
/home/l00ser/git_codes/raspberry_pico/test/RF24/examples_pico/build/acknowledgementPayloads.elf:     file format elf32-littlearm

Sections:
Idx Name          Size      VMA       LMA       File off  Algn
  0 .boot2        00000100  10000000  10000000  00001000  2**0
                  CONTENTS, ALLOC, LOAD, READONLY, CODE
  1 .text         00009668  10000100  10000100  00001100  2**3
                  CONTENTS, ALLOC, LOAD, READONLY, CODE
  2 .rodata       00000774  10009768  10009768  0000a768  2**3
                  CONTENTS, ALLOC, LOAD, READONLY, DATA
  3 .binary_info  00000020  10009edc  10009edc  0000aedc  2**2
                  CONTENTS, ALLOC, LOAD, DATA
  4 .ram_vector_table 000000c0  20000000  20000000  0000bd38  2**2
                  CONTENTS
  5 .data         00000c78  200000c0  10009efc  0000b0c0  2**4
                  CONTENTS, ALLOC, LOAD, CODE
  6 .uninitialized_data 00000000  20000d38  20000d38  0000bdf8  2**0
                  CONTENTS
  7 .scratch_x    00000000  20040000  20040000  0000bdf8  2**0
                  CONTENTS
  8 .scratch_y    00000000  20041000  20041000  0000bdf8  2**0
                  CONTENTS
  9 .bss          00000e3c  20000d38  20000d38  0000bd38  2**3
                  ALLOC
 10 .heap         00000800  20001b74  20001b74  0000bdf8  2**2
                  CONTENTS, READONLY
 11 .stack_dummy  00000800  20041000  20041000  0000c600  2**5
                  CONTENTS, READONLY
 12 .ARM.attributes 00000028  00000000  00000000  0000ce00  2**0
                  CONTENTS, READONLY
 13 .comment      000000a7  00000000  00000000  0000ce28  2**0
                  CONTENTS, READONLY
 14 .debug_line   00001661  00000000  00000000  0000cecf  2**0
                  CONTENTS, READONLY, DEBUGGING, OCTETS
 15 .debug_info   0000574a  00000000  00000000  0000e530  2**0
                  CONTENTS, READONLY, DEBUGGING, OCTETS
 16 .debug_abbrev 000012ba  00000000  00000000  00013c7a  2**0
                  CONTENTS, READONLY, DEBUGGING, OCTETS
 17 .debug_aranges 00000118  00000000  00000000  00014f38  2**3
                  CONTENTS, READONLY, DEBUGGING, OCTETS
 18 .debug_str    00000abe  00000000  00000000  00015050  2**0
                  CONTENTS, READONLY, DEBUGGING, OCTETS
 19 .debug_loc    00001653  00000000  00000000  00015b0e  2**0
                  CONTENTS, READONLY, DEBUGGING, OCTETS
 20 .debug_frame  000001a0  00000000  00000000  00017164  2**2
                  CONTENTS, READONLY, DEBUGGING, OCTETS
 21 .debug_ranges 00000038  00000000  00000000  00017304  2**0
                  CONTENTS, READONLY, DEBUGGING, OCTETS

/home/l00ser/git_codes/raspberry_pico/test/RF24/examples_pico/build/acknowledgementPayloads.elf:     file format elf32-littlearm


Disassembly of section .boot2:

10000000 <__boot2_start__>:
10000000:	4b32b500 	.word	0x4b32b500
10000004:	60582021 	.word	0x60582021
10000008:	21026898 	.word	0x21026898
1000000c:	60984388 	.word	0x60984388
10000010:	611860d8 	.word	0x611860d8
10000014:	4b2e6158 	.word	0x4b2e6158
10000018:	60992100 	.word	0x60992100
1000001c:	61592102 	.word	0x61592102
10000020:	22f02101 	.word	0x22f02101
10000024:	492b5099 	.word	0x492b5099
10000028:	21016019 	.word	0x21016019
1000002c:	20356099 	.word	0x20356099
10000030:	f844f000 	.word	0xf844f000
10000034:	42902202 	.word	0x42902202
10000038:	2106d014 	.word	0x2106d014
1000003c:	f0006619 	.word	0xf0006619
10000040:	6e19f834 	.word	0x6e19f834
10000044:	66192101 	.word	0x66192101
10000048:	66182000 	.word	0x66182000
1000004c:	f000661a 	.word	0xf000661a
10000050:	6e19f82c 	.word	0x6e19f82c
10000054:	6e196e19 	.word	0x6e196e19
10000058:	f0002005 	.word	0xf0002005
1000005c:	2101f82f 	.word	0x2101f82f
10000060:	d1f94208 	.word	0xd1f94208
10000064:	60992100 	.word	0x60992100
10000068:	6019491b 	.word	0x6019491b
1000006c:	60592100 	.word	0x60592100
10000070:	481b491a 	.word	0x481b491a
10000074:	21016001 	.word	0x21016001
10000078:	21eb6099 	.word	0x21eb6099
1000007c:	21a06619 	.word	0x21a06619
10000080:	f0006619 	.word	0xf0006619
10000084:	2100f812 	.word	0x2100f812
10000088:	49166099 	.word	0x49166099
1000008c:	60014814 	.word	0x60014814
10000090:	60992101 	.word	0x60992101
10000094:	2800bc01 	.word	0x2800bc01
10000098:	4700d000 	.word	0x4700d000
1000009c:	49134812 	.word	0x49134812
100000a0:	c8036008 	.word	0xc8036008
100000a4:	8808f380 	.word	0x8808f380
100000a8:	b5034708 	.word	0xb5034708
100000ac:	20046a99 	.word	0x20046a99
100000b0:	d0fb4201 	.word	0xd0fb4201
100000b4:	42012001 	.word	0x42012001
100000b8:	bd03d1f8 	.word	0xbd03d1f8
100000bc:	6618b502 	.word	0x6618b502
100000c0:	f7ff6618 	.word	0xf7ff6618
100000c4:	6e18fff2 	.word	0x6e18fff2
100000c8:	bd026e18 	.word	0xbd026e18
100000cc:	40020000 	.word	0x40020000
100000d0:	18000000 	.word	0x18000000
100000d4:	00070000 	.word	0x00070000
100000d8:	005f0300 	.word	0x005f0300
100000dc:	00002221 	.word	0x00002221
100000e0:	180000f4 	.word	0x180000f4
100000e4:	a0002022 	.word	0xa0002022
100000e8:	10000100 	.word	0x10000100
100000ec:	e000ed08 	.word	0xe000ed08
	...
100000fc:	7a4eb274 	.word	0x7a4eb274

Disassembly of section .text:

10000100 <__VECTOR_TABLE>:
10000100:	20042000 	.word	0x20042000
10000104:	100001f7 	.word	0x100001f7
10000108:	100001c3 	.word	0x100001c3
1000010c:	100001c5 	.word	0x100001c5
10000110:	100001c1 	.word	0x100001c1
10000114:	100001c1 	.word	0x100001c1
10000118:	100001c1 	.word	0x100001c1
1000011c:	100001c1 	.word	0x100001c1
10000120:	100001c1 	.word	0x100001c1
10000124:	100001c1 	.word	0x100001c1
10000128:	100001c1 	.word	0x100001c1
1000012c:	100001c7 	.word	0x100001c7
10000130:	100001c1 	.word	0x100001c1
10000134:	100001c1 	.word	0x100001c1
10000138:	100001c9 	.word	0x100001c9
1000013c:	100001cb 	.word	0x100001cb
10000140:	100001cd 	.word	0x100001cd
10000144:	100001cd 	.word	0x100001cd
10000148:	100001cd 	.word	0x100001cd
1000014c:	100001cd 	.word	0x100001cd
10000150:	100001cd 	.word	0x100001cd
10000154:	100001cd 	.word	0x100001cd
10000158:	100001cd 	.word	0x100001cd
1000015c:	100001cd 	.word	0x100001cd
10000160:	100001cd 	.word	0x100001cd
10000164:	100001cd 	.word	0x100001cd
10000168:	100001cd 	.word	0x100001cd
1000016c:	100001cd 	.word	0x100001cd
10000170:	100001cd 	.word	0x100001cd
10000174:	100001cd 	.word	0x100001cd
10000178:	100001cd 	.word	0x100001cd
1000017c:	100001cd 	.word	0x100001cd
10000180:	100001cd 	.word	0x100001cd
10000184:	100001cd 	.word	0x100001cd
10000188:	100001cd 	.word	0x100001cd
1000018c:	100001cd 	.word	0x100001cd
10000190:	100001cd 	.word	0x100001cd
10000194:	100001cd 	.word	0x100001cd
10000198:	100001cd 	.word	0x100001cd
1000019c:	100001cd 	.word	0x100001cd
100001a0:	100001cd 	.word	0x100001cd
100001a4:	100001cd 	.word	0x100001cd
100001a8:	100001cd 	.word	0x100001cd
100001ac:	100001cd 	.word	0x100001cd
100001b0:	100001cd 	.word	0x100001cd
100001b4:	100001cd 	.word	0x100001cd
100001b8:	100001cd 	.word	0x100001cd
100001bc:	100001cd 	.word	0x100001cd

100001c0 <isr_invalid>:
100001c0:	be00      	bkpt	0x0000

100001c2 <isr_nmi>:
100001c2:	be00      	bkpt	0x0000

100001c4 <isr_hardfault>:
100001c4:	be00      	bkpt	0x0000

100001c6 <isr_svcall>:
100001c6:	be00      	bkpt	0x0000

100001c8 <isr_pendsv>:
100001c8:	be00      	bkpt	0x0000

100001ca <isr_systick>:
100001ca:	be00      	bkpt	0x0000

100001cc <__unhandled_user_irq>:
100001cc:	f000 f84b 	bl	10000266 <__get_current_exception>
100001d0:	3810      	subs	r0, #16

100001d2 <unhandled_user_irq_num_in_r0>:
100001d2:	be00      	bkpt	0x0000

100001d4 <binary_info_header>:
100001d4:	7188ebf2 	.word	0x7188ebf2
100001d8:	10009edc 	.word	0x10009edc
100001dc:	10009efc 	.word	0x10009efc
100001e0:	10000234 	.word	0x10000234
100001e4:	e71aa390 	.word	0xe71aa390

100001e8 <_entry_point>:
100001e8:	2000      	movs	r0, #0
100001ea:	4921      	ldr	r1, [pc, #132]	; (10000270 <__get_current_exception+0xa>)
100001ec:	6008      	str	r0, [r1, #0]
100001ee:	c806      	ldmia	r0!, {r1, r2}
100001f0:	f381 8808 	msr	MSP, r1
100001f4:	4710      	bx	r2

100001f6 <_reset_handler>:
100001f6:	481f      	ldr	r0, [pc, #124]	; (10000274 <__get_current_exception+0xe>)
100001f8:	6800      	ldr	r0, [r0, #0]
100001fa:	2800      	cmp	r0, #0
100001fc:	d12f      	bne.n	1000025e <hold_non_core0_in_bootrom>
100001fe:	a40d      	add	r4, pc, #52	; (adr r4, 10000234 <data_cpy_table>)
10000200:	cc0e      	ldmia	r4!, {r1, r2, r3}
10000202:	2900      	cmp	r1, #0
10000204:	d002      	beq.n	1000020c <_reset_handler+0x16>
10000206:	f000 f812 	bl	1000022e <data_cpy>
1000020a:	e7f9      	b.n	10000200 <_reset_handler+0xa>
1000020c:	491a      	ldr	r1, [pc, #104]	; (10000278 <__get_current_exception+0x12>)
1000020e:	4a1b      	ldr	r2, [pc, #108]	; (1000027c <__get_current_exception+0x16>)
10000210:	2000      	movs	r0, #0
10000212:	e000      	b.n	10000216 <bss_fill_test>

10000214 <bss_fill_loop>:
10000214:	c101      	stmia	r1!, {r0}

10000216 <bss_fill_test>:
10000216:	4291      	cmp	r1, r2
10000218:	d1fc      	bne.n	10000214 <bss_fill_loop>

1000021a <platform_entry>:
1000021a:	4919      	ldr	r1, [pc, #100]	; (10000280 <__get_current_exception+0x1a>)
1000021c:	4788      	blx	r1
1000021e:	4919      	ldr	r1, [pc, #100]	; (10000284 <__get_current_exception+0x1e>)
10000220:	4788      	blx	r1
10000222:	4919      	ldr	r1, [pc, #100]	; (10000288 <__get_current_exception+0x22>)
10000224:	4788      	blx	r1
10000226:	be00      	bkpt	0x0000
10000228:	e7fd      	b.n	10000226 <platform_entry+0xc>

1000022a <data_cpy_loop>:
1000022a:	c901      	ldmia	r1!, {r0}
1000022c:	c201      	stmia	r2!, {r0}

1000022e <data_cpy>:
1000022e:	429a      	cmp	r2, r3
10000230:	d3fb      	bcc.n	1000022a <data_cpy_loop>
10000232:	4770      	bx	lr

10000234 <data_cpy_table>:
10000234:	10009efc 	.word	0x10009efc
10000238:	200000c0 	.word	0x200000c0
1000023c:	20000d38 	.word	0x20000d38
10000240:	1000ab74 	.word	0x1000ab74
10000244:	20040000 	.word	0x20040000
10000248:	20040000 	.word	0x20040000
1000024c:	1000ab74 	.word	0x1000ab74
10000250:	20041000 	.word	0x20041000
10000254:	20041000 	.word	0x20041000
10000258:	00000000 	.word	0x00000000
1000025c:	4770      	bx	lr

1000025e <hold_non_core0_in_bootrom>:
1000025e:	480b      	ldr	r0, [pc, #44]	; (1000028c <__get_current_exception+0x26>)
10000260:	f004 febc 	bl	10004fdc <rom_func_lookup>
10000264:	4700      	bx	r0

10000266 <__get_current_exception>:
10000266:	f3ef 8005 	mrs	r0, IPSR
1000026a:	b2c0      	uxtb	r0, r0
1000026c:	4770      	bx	lr
1000026e:	0000      	.short	0x0000
10000270:	e000ed08 	.word	0xe000ed08
10000274:	d0000000 	.word	0xd0000000
10000278:	20000d38 	.word	0x20000d38
1000027c:	20001b74 	.word	0x20001b74
10000280:	1000308d 	.word	0x1000308d
10000284:	1000062d 	.word	0x1000062d
10000288:	100031b1 	.word	0x100031b1
1000028c:	00005657 	.word	0x00005657

10000290 <__bi_50>:
10000290:	50520006 5360b3ab 10009c90              ..RP..`S....

1000029c <__bi_38>:
1000029c:	50520006 02031c86 10009ca0              ..RP........

100002a8 <__bi_30>:
100002a8:	50520006 9da22254 10009cb8              ..RPT"......

100002b4 <__bi_22>:
100002b4:	50520005 68f465de 1000ab74              ..RP.e.ht...

100002c0 <_init>:
100002c0:	b5f8      	push	{r3, r4, r5, r6, r7, lr}
100002c2:	46c0      	nop			; (mov r8, r8)

100002c4 <deregister_tm_clones>:
100002c4:	4804      	ldr	r0, [pc, #16]	; (100002d8 <deregister_tm_clones+0x14>)
100002c6:	4b05      	ldr	r3, [pc, #20]	; (100002dc <deregister_tm_clones+0x18>)
100002c8:	b510      	push	{r4, lr}
100002ca:	4283      	cmp	r3, r0
100002cc:	d003      	beq.n	100002d6 <deregister_tm_clones+0x12>
100002ce:	4b04      	ldr	r3, [pc, #16]	; (100002e0 <deregister_tm_clones+0x1c>)
100002d0:	2b00      	cmp	r3, #0
100002d2:	d000      	beq.n	100002d6 <deregister_tm_clones+0x12>
100002d4:	4798      	blx	r3
100002d6:	bd10      	pop	{r4, pc}
100002d8:	20000d38 	.word	0x20000d38
100002dc:	20000d38 	.word	0x20000d38
100002e0:	00000000 	.word	0x00000000

100002e4 <register_tm_clones>:
100002e4:	4806      	ldr	r0, [pc, #24]	; (10000300 <register_tm_clones+0x1c>)
100002e6:	4907      	ldr	r1, [pc, #28]	; (10000304 <register_tm_clones+0x20>)
100002e8:	1a09      	subs	r1, r1, r0
100002ea:	108b      	asrs	r3, r1, #2
100002ec:	0fc9      	lsrs	r1, r1, #31
100002ee:	18c9      	adds	r1, r1, r3
100002f0:	b510      	push	{r4, lr}
100002f2:	1049      	asrs	r1, r1, #1
100002f4:	d003      	beq.n	100002fe <register_tm_clones+0x1a>
100002f6:	4b04      	ldr	r3, [pc, #16]	; (10000308 <register_tm_clones+0x24>)
100002f8:	2b00      	cmp	r3, #0
100002fa:	d000      	beq.n	100002fe <register_tm_clones+0x1a>
100002fc:	4798      	blx	r3
100002fe:	bd10      	pop	{r4, pc}
10000300:	20000d38 	.word	0x20000d38
10000304:	20000d38 	.word	0x20000d38
10000308:	00000000 	.word	0x00000000

1000030c <__do_global_dtors_aux>:
1000030c:	b510      	push	{r4, lr}
1000030e:	4c07      	ldr	r4, [pc, #28]	; (1000032c <__do_global_dtors_aux+0x20>)
10000310:	7823      	ldrb	r3, [r4, #0]
10000312:	2b00      	cmp	r3, #0
10000314:	d109      	bne.n	1000032a <__do_global_dtors_aux+0x1e>
10000316:	f7ff ffd5 	bl	100002c4 <deregister_tm_clones>
1000031a:	4b05      	ldr	r3, [pc, #20]	; (10000330 <__do_global_dtors_aux+0x24>)
1000031c:	2b00      	cmp	r3, #0
1000031e:	d002      	beq.n	10000326 <__do_global_dtors_aux+0x1a>
10000320:	4804      	ldr	r0, [pc, #16]	; (10000334 <__do_global_dtors_aux+0x28>)
10000322:	e000      	b.n	10000326 <__do_global_dtors_aux+0x1a>
10000324:	bf00      	nop
10000326:	2301      	movs	r3, #1
10000328:	7023      	strb	r3, [r4, #0]
1000032a:	bd10      	pop	{r4, pc}
1000032c:	20000e40 	.word	0x20000e40
10000330:	00000000 	.word	0x00000000
10000334:	10009768 	.word	0x10009768

10000338 <frame_dummy>:
10000338:	4b05      	ldr	r3, [pc, #20]	; (10000350 <frame_dummy+0x18>)
1000033a:	b510      	push	{r4, lr}
1000033c:	2b00      	cmp	r3, #0
1000033e:	d003      	beq.n	10000348 <frame_dummy+0x10>
10000340:	4904      	ldr	r1, [pc, #16]	; (10000354 <frame_dummy+0x1c>)
10000342:	4805      	ldr	r0, [pc, #20]	; (10000358 <frame_dummy+0x20>)
10000344:	e000      	b.n	10000348 <frame_dummy+0x10>
10000346:	bf00      	nop
10000348:	f7ff ffcc 	bl	100002e4 <register_tm_clones>
1000034c:	bd10      	pop	{r4, pc}
1000034e:	46c0      	nop			; (mov r8, r8)
10000350:	00000000 	.word	0x00000000
10000354:	20000e44 	.word	0x20000e44
10000358:	10009768 	.word	0x10009768

1000035c <_Z5setupv>:
1000035c:	b5f0      	push	{r4, r5, r6, r7, lr}
1000035e:	46c6      	mov	lr, r8
10000360:	b500      	push	{lr}
10000362:	b084      	sub	sp, #16
10000364:	ac01      	add	r4, sp, #4
10000366:	0022      	movs	r2, r4
10000368:	4b34      	ldr	r3, [pc, #208]	; (1000043c <_Z5setupv+0xe0>)
1000036a:	cb23      	ldmia	r3!, {r0, r1, r5}
1000036c:	c223      	stmia	r2!, {r0, r1, r5}
1000036e:	e002      	b.n	10000376 <_Z5setupv+0x1a>
10000370:	300a      	adds	r0, #10
10000372:	f002 fa5d 	bl	10002830 <sleep_ms>
10000376:	2000      	movs	r0, #0
10000378:	f007 fe66 	bl	10008048 <tud_cdc_n_connected>
1000037c:	2800      	cmp	r0, #0
1000037e:	d0f7      	beq.n	10000370 <_Z5setupv+0x14>
10000380:	4e2f      	ldr	r6, [pc, #188]	; (10000440 <_Z5setupv+0xe4>)
10000382:	0030      	movs	r0, r6
10000384:	f000 fdc6 	bl	10000f14 <_ZN4RF245beginEv>
10000388:	1e07      	subs	r7, r0, #0
1000038a:	d052      	beq.n	10000432 <_Z5setupv+0xd6>
1000038c:	482d      	ldr	r0, [pc, #180]	; (10000444 <_Z5setupv+0xe8>)
1000038e:	f005 fe8b 	bl	100060a8 <__wrap_puts>
10000392:	482d      	ldr	r0, [pc, #180]	; (10000448 <_Z5setupv+0xec>)
10000394:	f005 fe88 	bl	100060a8 <__wrap_puts>
10000398:	f005 ff3e 	bl	10006218 <__wrap_getchar>
1000039c:	b2c5      	uxtb	r5, r0
1000039e:	3d31      	subs	r5, #49	; 0x31
100003a0:	4269      	negs	r1, r5
100003a2:	4169      	adcs	r1, r5
100003a4:	b2cb      	uxtb	r3, r1
100003a6:	4698      	mov	r8, r3
100003a8:	0019      	movs	r1, r3
100003aa:	4828      	ldr	r0, [pc, #160]	; (1000044c <_Z5setupv+0xf0>)
100003ac:	f005 ff24 	bl	100061f8 <__wrap_printf>
100003b0:	2201      	movs	r2, #1
100003b2:	2101      	movs	r1, #1
100003b4:	0030      	movs	r0, r6
100003b6:	f001 fcd5 	bl	10001d64 <_ZN4RF2410setPALevelEhb>
100003ba:	0030      	movs	r0, r6
100003bc:	f001 fb5c 	bl	10001a78 <_ZN4RF2421enableDynamicPayloadsEv>
100003c0:	0030      	movs	r0, r6
100003c2:	f001 fc05 	bl	10001bd0 <_ZN4RF2416enableAckPayloadEv>
100003c6:	4643      	mov	r3, r8
100003c8:	0059      	lsls	r1, r3, #1
100003ca:	4441      	add	r1, r8
100003cc:	0049      	lsls	r1, r1, #1
100003ce:	0030      	movs	r0, r6
100003d0:	1861      	adds	r1, r4, r1
100003d2:	f001 f969 	bl	100016a8 <_ZN4RF2415openWritingPipeEPKh>
100003d6:	1e68      	subs	r0, r5, #1
100003d8:	4185      	sbcs	r5, r0
100003da:	006a      	lsls	r2, r5, #1
100003dc:	1952      	adds	r2, r2, r5
100003de:	0052      	lsls	r2, r2, #1
100003e0:	2101      	movs	r1, #1
100003e2:	0030      	movs	r0, r6
100003e4:	18a2      	adds	r2, r4, r2
100003e6:	f001 fa37 	bl	10001858 <_ZN4RF2415openReadingPipeEhPKh>
100003ea:	4b19      	ldr	r3, [pc, #100]	; (10000450 <_Z5setupv+0xf4>)
100003ec:	781b      	ldrb	r3, [r3, #0]
100003ee:	2b00      	cmp	r3, #0
100003f0:	d115      	bne.n	1000041e <_Z5setupv+0xc2>
100003f2:	4b18      	ldr	r3, [pc, #96]	; (10000454 <_Z5setupv+0xf8>)
100003f4:	4a18      	ldr	r2, [pc, #96]	; (10000458 <_Z5setupv+0xfc>)
100003f6:	6819      	ldr	r1, [r3, #0]
100003f8:	0030      	movs	r0, r6
100003fa:	6011      	str	r1, [r2, #0]
100003fc:	889b      	ldrh	r3, [r3, #4]
100003fe:	2101      	movs	r1, #1
10000400:	8093      	strh	r3, [r2, #4]
10000402:	2308      	movs	r3, #8
10000404:	f001 fc98 	bl	10001d38 <_ZN4RF2415writeAckPayloadEhPKvh>
10000408:	0030      	movs	r0, r6
1000040a:	f000 fdb3 	bl	10000f74 <_ZN4RF2414startListeningEv>
1000040e:	4813      	ldr	r0, [pc, #76]	; (1000045c <_Z5setupv+0x100>)
10000410:	f005 fe4a 	bl	100060a8 <__wrap_puts>
10000414:	0038      	movs	r0, r7
10000416:	b004      	add	sp, #16
10000418:	bc04      	pop	{r2}
1000041a:	4690      	mov	r8, r2
1000041c:	bdf0      	pop	{r4, r5, r6, r7, pc}
1000041e:	4a10      	ldr	r2, [pc, #64]	; (10000460 <_Z5setupv+0x104>)
10000420:	4b0d      	ldr	r3, [pc, #52]	; (10000458 <_Z5setupv+0xfc>)
10000422:	6811      	ldr	r1, [r2, #0]
10000424:	0030      	movs	r0, r6
10000426:	6019      	str	r1, [r3, #0]
10000428:	8892      	ldrh	r2, [r2, #4]
1000042a:	809a      	strh	r2, [r3, #4]
1000042c:	f000 ff0e 	bl	1000124c <_ZN4RF2413stopListeningEv>
10000430:	e7ed      	b.n	1000040e <_Z5setupv+0xb2>
10000432:	480c      	ldr	r0, [pc, #48]	; (10000464 <_Z5setupv+0x108>)
10000434:	f005 fe38 	bl	100060a8 <__wrap_puts>
10000438:	e7ec      	b.n	10000414 <_Z5setupv+0xb8>
1000043a:	46c0      	nop			; (mov r8, r8)
1000043c:	100099a0 	.word	0x100099a0
10000440:	20001804 	.word	0x20001804
10000444:	1000978c 	.word	0x1000978c
10000448:	100097b8 	.word	0x100097b8
1000044c:	100097f0 	.word	0x100097f0
10000450:	200018ab 	.word	0x200018ab
10000454:	1000980c 	.word	0x1000980c
10000458:	200017ec 	.word	0x200017ec
1000045c:	10009814 	.word	0x10009814
10000460:	10009804 	.word	0x10009804
10000464:	10009768 	.word	0x10009768

10000468 <_Z4loopv>:
10000468:	b5f0      	push	{r4, r5, r6, r7, lr}
1000046a:	46ce      	mov	lr, r9
1000046c:	4647      	mov	r7, r8
1000046e:	b580      	push	{r7, lr}
10000470:	4d61      	ldr	r5, [pc, #388]	; (100005f8 <_Z4loopv+0x190>)
10000472:	b089      	sub	sp, #36	; 0x24
10000474:	782b      	ldrb	r3, [r5, #0]
10000476:	2b00      	cmp	r3, #0
10000478:	d02d      	beq.n	100004d6 <_Z4loopv+0x6e>
1000047a:	f002 fac7 	bl	10002a0c <time_us_64>
1000047e:	4b5f      	ldr	r3, [pc, #380]	; (100005fc <_Z4loopv+0x194>)
10000480:	4c5f      	ldr	r4, [pc, #380]	; (10000600 <_Z4loopv+0x198>)
10000482:	2208      	movs	r2, #8
10000484:	0006      	movs	r6, r0
10000486:	000f      	movs	r7, r1
10000488:	0020      	movs	r0, r4
1000048a:	0019      	movs	r1, r3
1000048c:	4698      	mov	r8, r3
1000048e:	f001 f865 	bl	1000155c <_ZN4RF245writeEPKvh>
10000492:	4681      	mov	r9, r0
10000494:	f002 faba 	bl	10002a0c <time_us_64>
10000498:	000b      	movs	r3, r1
1000049a:	4649      	mov	r1, r9
1000049c:	0002      	movs	r2, r0
1000049e:	2900      	cmp	r1, #0
100004a0:	d15c      	bne.n	1000055c <_Z4loopv+0xf4>
100004a2:	4858      	ldr	r0, [pc, #352]	; (10000604 <_Z4loopv+0x19c>)
100004a4:	f005 fe00 	bl	100060a8 <__wrap_puts>
100004a8:	20fa      	movs	r0, #250	; 0xfa
100004aa:	0080      	lsls	r0, r0, #2
100004ac:	f002 f9c0 	bl	10002830 <sleep_ms>
100004b0:	2000      	movs	r0, #0
100004b2:	f005 feed 	bl	10006290 <getchar_timeout_us>
100004b6:	23df      	movs	r3, #223	; 0xdf
100004b8:	4018      	ands	r0, r3
100004ba:	2854      	cmp	r0, #84	; 0x54
100004bc:	d03c      	beq.n	10000538 <_Z4loopv+0xd0>
100004be:	2852      	cmp	r0, #82	; 0x52
100004c0:	d000      	beq.n	100004c4 <_Z4loopv+0x5c>
100004c2:	e08c      	b.n	100005de <_Z4loopv+0x176>
100004c4:	782b      	ldrb	r3, [r5, #0]
100004c6:	2b00      	cmp	r3, #0
100004c8:	d000      	beq.n	100004cc <_Z4loopv+0x64>
100004ca:	e070      	b.n	100005ae <_Z4loopv+0x146>
100004cc:	b009      	add	sp, #36	; 0x24
100004ce:	bc0c      	pop	{r2, r3}
100004d0:	4690      	mov	r8, r2
100004d2:	4699      	mov	r9, r3
100004d4:	bdf0      	pop	{r4, r5, r6, r7, pc}
100004d6:	2317      	movs	r3, #23
100004d8:	4c49      	ldr	r4, [pc, #292]	; (10000600 <_Z4loopv+0x198>)
100004da:	446b      	add	r3, sp
100004dc:	0019      	movs	r1, r3
100004de:	0020      	movs	r0, r4
100004e0:	f001 f88c 	bl	100015fc <_ZN4RF249availableEPh>
100004e4:	2800      	cmp	r0, #0
100004e6:	d0e3      	beq.n	100004b0 <_Z4loopv+0x48>
100004e8:	0020      	movs	r0, r4
100004ea:	f001 f83d 	bl	10001568 <_ZN4RF2421getDynamicPayloadSizeEv>
100004ee:	2208      	movs	r2, #8
100004f0:	0007      	movs	r7, r0
100004f2:	a906      	add	r1, sp, #24
100004f4:	0020      	movs	r0, r4
100004f6:	f001 f8ad 	bl	10001654 <_ZN4RF244readEPvh>
100004fa:	466b      	mov	r3, sp
100004fc:	4e3f      	ldr	r6, [pc, #252]	; (100005fc <_Z4loopv+0x194>)
100004fe:	7dda      	ldrb	r2, [r3, #23]
10000500:	79f3      	ldrb	r3, [r6, #7]
10000502:	9601      	str	r6, [sp, #4]
10000504:	9302      	str	r3, [sp, #8]
10000506:	466b      	mov	r3, sp
10000508:	7fdb      	ldrb	r3, [r3, #31]
1000050a:	0039      	movs	r1, r7
1000050c:	9300      	str	r3, [sp, #0]
1000050e:	483e      	ldr	r0, [pc, #248]	; (10000608 <_Z4loopv+0x1a0>)
10000510:	ab06      	add	r3, sp, #24
10000512:	f005 fe71 	bl	100061f8 <__wrap_printf>
10000516:	466b      	mov	r3, sp
10000518:	7fdb      	ldrb	r3, [r3, #31]
1000051a:	0032      	movs	r2, r6
1000051c:	3301      	adds	r3, #1
1000051e:	2101      	movs	r1, #1
10000520:	71f3      	strb	r3, [r6, #7]
10000522:	0020      	movs	r0, r4
10000524:	2308      	movs	r3, #8
10000526:	f001 fc07 	bl	10001d38 <_ZN4RF2415writeAckPayloadEhPKvh>
1000052a:	2000      	movs	r0, #0
1000052c:	f005 feb0 	bl	10006290 <getchar_timeout_us>
10000530:	23df      	movs	r3, #223	; 0xdf
10000532:	4018      	ands	r0, r3
10000534:	2854      	cmp	r0, #84	; 0x54
10000536:	d1c2      	bne.n	100004be <_Z4loopv+0x56>
10000538:	782b      	ldrb	r3, [r5, #0]
1000053a:	2b00      	cmp	r3, #0
1000053c:	d1c6      	bne.n	100004cc <_Z4loopv+0x64>
1000053e:	3301      	adds	r3, #1
10000540:	4832      	ldr	r0, [pc, #200]	; (1000060c <_Z4loopv+0x1a4>)
10000542:	702b      	strb	r3, [r5, #0]
10000544:	f005 fdb0 	bl	100060a8 <__wrap_puts>
10000548:	4a31      	ldr	r2, [pc, #196]	; (10000610 <_Z4loopv+0x1a8>)
1000054a:	4b2c      	ldr	r3, [pc, #176]	; (100005fc <_Z4loopv+0x194>)
1000054c:	6811      	ldr	r1, [r2, #0]
1000054e:	0020      	movs	r0, r4
10000550:	6019      	str	r1, [r3, #0]
10000552:	8892      	ldrh	r2, [r2, #4]
10000554:	809a      	strh	r2, [r3, #4]
10000556:	f000 fe79 	bl	1000124c <_ZN4RF2413stopListeningEv>
1000055a:	e7b7      	b.n	100004cc <_Z4loopv+0x64>
1000055c:	4641      	mov	r1, r8
1000055e:	79c9      	ldrb	r1, [r1, #7]
10000560:	1b92      	subs	r2, r2, r6
10000562:	41bb      	sbcs	r3, r7
10000564:	9101      	str	r1, [sp, #4]
10000566:	4641      	mov	r1, r8
10000568:	482a      	ldr	r0, [pc, #168]	; (10000614 <_Z4loopv+0x1ac>)
1000056a:	9100      	str	r1, [sp, #0]
1000056c:	f005 fe44 	bl	100061f8 <__wrap_printf>
10000570:	2317      	movs	r3, #23
10000572:	446b      	add	r3, sp
10000574:	0019      	movs	r1, r3
10000576:	0020      	movs	r0, r4
10000578:	f001 f840 	bl	100015fc <_ZN4RF249availableEPh>
1000057c:	2800      	cmp	r0, #0
1000057e:	d02a      	beq.n	100005d6 <_Z4loopv+0x16e>
10000580:	2208      	movs	r2, #8
10000582:	a906      	add	r1, sp, #24
10000584:	0020      	movs	r0, r4
10000586:	f001 f865 	bl	10001654 <_ZN4RF244readEPvh>
1000058a:	0020      	movs	r0, r4
1000058c:	f000 ffec 	bl	10001568 <_ZN4RF2421getDynamicPayloadSizeEv>
10000590:	466b      	mov	r3, sp
10000592:	7dda      	ldrb	r2, [r3, #23]
10000594:	7fdb      	ldrb	r3, [r3, #31]
10000596:	0001      	movs	r1, r0
10000598:	9300      	str	r3, [sp, #0]
1000059a:	481f      	ldr	r0, [pc, #124]	; (10000618 <_Z4loopv+0x1b0>)
1000059c:	ab06      	add	r3, sp, #24
1000059e:	f005 fe2b 	bl	100061f8 <__wrap_printf>
100005a2:	466b      	mov	r3, sp
100005a4:	4642      	mov	r2, r8
100005a6:	7fdb      	ldrb	r3, [r3, #31]
100005a8:	3301      	adds	r3, #1
100005aa:	71d3      	strb	r3, [r2, #7]
100005ac:	e77c      	b.n	100004a8 <_Z4loopv+0x40>
100005ae:	2300      	movs	r3, #0
100005b0:	481a      	ldr	r0, [pc, #104]	; (1000061c <_Z4loopv+0x1b4>)
100005b2:	702b      	strb	r3, [r5, #0]
100005b4:	f005 fd78 	bl	100060a8 <__wrap_puts>
100005b8:	4b19      	ldr	r3, [pc, #100]	; (10000620 <_Z4loopv+0x1b8>)
100005ba:	4a10      	ldr	r2, [pc, #64]	; (100005fc <_Z4loopv+0x194>)
100005bc:	6819      	ldr	r1, [r3, #0]
100005be:	0020      	movs	r0, r4
100005c0:	6011      	str	r1, [r2, #0]
100005c2:	889b      	ldrh	r3, [r3, #4]
100005c4:	2101      	movs	r1, #1
100005c6:	8093      	strh	r3, [r2, #4]
100005c8:	2308      	movs	r3, #8
100005ca:	f001 fbb5 	bl	10001d38 <_ZN4RF2415writeAckPayloadEhPKvh>
100005ce:	0020      	movs	r0, r4
100005d0:	f000 fcd0 	bl	10000f74 <_ZN4RF2414startListeningEv>
100005d4:	e77a      	b.n	100004cc <_Z4loopv+0x64>
100005d6:	4813      	ldr	r0, [pc, #76]	; (10000624 <_Z4loopv+0x1bc>)
100005d8:	f005 fd66 	bl	100060a8 <__wrap_puts>
100005dc:	e764      	b.n	100004a8 <_Z4loopv+0x40>
100005de:	2842      	cmp	r0, #66	; 0x42
100005e0:	d000      	beq.n	100005e4 <_Z4loopv+0x17c>
100005e2:	e773      	b.n	100004cc <_Z4loopv+0x64>
100005e4:	0020      	movs	r0, r4
100005e6:	f000 fedf 	bl	100013a8 <_ZN4RF249powerDownEv>
100005ea:	480f      	ldr	r0, [pc, #60]	; (10000628 <_Z4loopv+0x1c0>)
100005ec:	f004 fcf6 	bl	10004fdc <rom_func_lookup>
100005f0:	2100      	movs	r1, #0
100005f2:	0003      	movs	r3, r0
100005f4:	0008      	movs	r0, r1
100005f6:	4798      	blx	r3
100005f8:	200018ab 	.word	0x200018ab
100005fc:	200017ec 	.word	0x200017ec
10000600:	20001804 	.word	0x20001804
10000604:	100098d4 	.word	0x100098d4
10000608:	100098f8 	.word	0x100098f8
1000060c:	10009928 	.word	0x10009928
10000610:	10009804 	.word	0x10009804
10000614:	1000984c 	.word	0x1000984c
10000618:	1000988c 	.word	0x1000988c
1000061c:	10009964 	.word	0x10009964
10000620:	1000980c 	.word	0x1000980c
10000624:	100098b4 	.word	0x100098b4
10000628:	00004255 	.word	0x00004255

1000062c <main>:
1000062c:	b510      	push	{r4, lr}
1000062e:	f005 fdef 	bl	10006210 <stdio_init_all>
10000632:	f7ff fe93 	bl	1000035c <_Z5setupv>
10000636:	2800      	cmp	r0, #0
10000638:	d0fb      	beq.n	10000632 <main+0x6>
1000063a:	f7ff ff15 	bl	10000468 <_Z4loopv>
1000063e:	f7ff ff13 	bl	10000468 <_Z4loopv>
10000642:	e7fa      	b.n	1000063a <main+0xe>

10000644 <_GLOBAL__sub_I_radio>:
10000644:	b510      	push	{r4, lr}
10000646:	4805      	ldr	r0, [pc, #20]	; (1000065c <_GLOBAL__sub_I_radio+0x18>)
10000648:	f001 fc1a 	bl	10001e80 <_ZN3SPIC1Ev>
1000064c:	2205      	movs	r2, #5
1000064e:	2106      	movs	r1, #6
10000650:	4b03      	ldr	r3, [pc, #12]	; (10000660 <_GLOBAL__sub_I_radio+0x1c>)
10000652:	4804      	ldr	r0, [pc, #16]	; (10000664 <_GLOBAL__sub_I_radio+0x20>)
10000654:	f000 f956 	bl	10000904 <_ZN4RF24C1Ettm>
10000658:	bd10      	pop	{r4, pc}
1000065a:	46c0      	nop			; (mov r8, r8)
1000065c:	20000e90 	.word	0x20000e90
10000660:	00989680 	.word	0x00989680
10000664:	20001804 	.word	0x20001804

10000668 <_ZN4RF2413write_payloadEPKvhh>:
10000668:	b5f8      	push	{r3, r4, r5, r6, r7, lr}
1000066a:	4657      	mov	r7, sl
1000066c:	4645      	mov	r5, r8
1000066e:	46de      	mov	lr, fp
10000670:	464e      	mov	r6, r9
10000672:	469a      	mov	sl, r3
10000674:	235e      	movs	r3, #94	; 0x5e
10000676:	b5e0      	push	{r5, r6, r7, lr}
10000678:	5cc3      	ldrb	r3, [r0, r3]
1000067a:	0004      	movs	r4, r0
1000067c:	000d      	movs	r5, r1
1000067e:	2b00      	cmp	r3, #0
10000680:	d000      	beq.n	10000684 <_ZN4RF2413write_payloadEPKvhh+0x1c>
10000682:	e07f      	b.n	10000784 <_ZN4RF2413write_payloadEPKvhh+0x11c>
10000684:	3353      	adds	r3, #83	; 0x53
10000686:	5cc3      	ldrb	r3, [r0, r3]
10000688:	4698      	mov	r8, r3
1000068a:	1c1f      	adds	r7, r3, #0
1000068c:	4293      	cmp	r3, r2
1000068e:	d900      	bls.n	10000692 <_ZN4RF2413write_payloadEPKvhh+0x2a>
10000690:	e085      	b.n	1000079e <_ZN4RF2413write_payloadEPKvhh+0x136>
10000692:	4643      	mov	r3, r8
10000694:	b2ff      	uxtb	r7, r7
10000696:	1bde      	subs	r6, r3, r7
10000698:	b2f3      	uxtb	r3, r6
1000069a:	469b      	mov	fp, r3
1000069c:	68e0      	ldr	r0, [r4, #12]
1000069e:	f001 fc29 	bl	10001ef4 <_ZN3SPI16beginTransactionEm>
100006a2:	2100      	movs	r1, #0
100006a4:	8960      	ldrh	r0, [r4, #10]
100006a6:	f001 fbd7 	bl	10001e58 <_ZN4GPIO5writeEii>
100006aa:	2100      	movs	r1, #0
100006ac:	6e60      	ldr	r0, [r4, #100]	; 0x64
100006ae:	f002 f8a7 	bl	10002800 <sleep_us>
100006b2:	2331      	movs	r3, #49	; 0x31
100006b4:	4699      	mov	r9, r3
100006b6:	4643      	mov	r3, r8
100006b8:	3301      	adds	r3, #1
100006ba:	b2db      	uxtb	r3, r3
100006bc:	4698      	mov	r8, r3
100006be:	4652      	mov	r2, sl
100006c0:	2331      	movs	r3, #49	; 0x31
100006c2:	0021      	movs	r1, r4
100006c4:	54e2      	strb	r2, [r4, r3]
100006c6:	1e7b      	subs	r3, r7, #1
100006c8:	3132      	adds	r1, #50	; 0x32
100006ca:	b2db      	uxtb	r3, r3
100006cc:	0008      	movs	r0, r1
100006ce:	469c      	mov	ip, r3
100006d0:	44a1      	add	r9, r4
100006d2:	2f00      	cmp	r7, #0
100006d4:	d033      	beq.n	1000073e <_ZN4RF2413write_payloadEPKvhh+0xd6>
100006d6:	000a      	movs	r2, r1
100006d8:	2303      	movs	r3, #3
100006da:	432a      	orrs	r2, r5
100006dc:	0020      	movs	r0, r4
100006de:	4013      	ands	r3, r2
100006e0:	425a      	negs	r2, r3
100006e2:	415a      	adcs	r2, r3
100006e4:	2306      	movs	r3, #6
100006e6:	3035      	adds	r0, #53	; 0x35
100006e8:	1b40      	subs	r0, r0, r5
100006ea:	4283      	cmp	r3, r0
100006ec:	419b      	sbcs	r3, r3
100006ee:	425b      	negs	r3, r3
100006f0:	4213      	tst	r3, r2
100006f2:	d05d      	beq.n	100007b0 <_ZN4RF2413write_payloadEPKvhh+0x148>
100006f4:	4663      	mov	r3, ip
100006f6:	2b08      	cmp	r3, #8
100006f8:	d95a      	bls.n	100007b0 <_ZN4RF2413write_payloadEPKvhh+0x148>
100006fa:	2300      	movs	r3, #0
100006fc:	2200      	movs	r2, #0
100006fe:	08b8      	lsrs	r0, r7, #2
10000700:	58ae      	ldr	r6, [r5, r2]
10000702:	3301      	adds	r3, #1
10000704:	b2db      	uxtb	r3, r3
10000706:	508e      	str	r6, [r1, r2]
10000708:	3204      	adds	r2, #4
1000070a:	4298      	cmp	r0, r3
1000070c:	d1f8      	bne.n	10000700 <_ZN4RF2413write_payloadEPKvhh+0x98>
1000070e:	2303      	movs	r3, #3
10000710:	003a      	movs	r2, r7
10000712:	439a      	bics	r2, r3
10000714:	0013      	movs	r3, r2
10000716:	18ad      	adds	r5, r5, r2
10000718:	1888      	adds	r0, r1, r2
1000071a:	4662      	mov	r2, ip
1000071c:	1ad2      	subs	r2, r2, r3
1000071e:	b2d2      	uxtb	r2, r2
10000720:	429f      	cmp	r7, r3
10000722:	d009      	beq.n	10000738 <_ZN4RF2413write_payloadEPKvhh+0xd0>
10000724:	782b      	ldrb	r3, [r5, #0]
10000726:	7003      	strb	r3, [r0, #0]
10000728:	2a00      	cmp	r2, #0
1000072a:	d005      	beq.n	10000738 <_ZN4RF2413write_payloadEPKvhh+0xd0>
1000072c:	786b      	ldrb	r3, [r5, #1]
1000072e:	7043      	strb	r3, [r0, #1]
10000730:	2a01      	cmp	r2, #1
10000732:	d001      	beq.n	10000738 <_ZN4RF2413write_payloadEPKvhh+0xd0>
10000734:	78ab      	ldrb	r3, [r5, #2]
10000736:	7083      	strb	r3, [r0, #2]
10000738:	4660      	mov	r0, ip
1000073a:	3001      	adds	r0, #1
1000073c:	1808      	adds	r0, r1, r0
1000073e:	465b      	mov	r3, fp
10000740:	2b00      	cmp	r3, #0
10000742:	d006      	beq.n	10000752 <_ZN4RF2413write_payloadEPKvhh+0xea>
10000744:	465e      	mov	r6, fp
10000746:	3e01      	subs	r6, #1
10000748:	b2f2      	uxtb	r2, r6
1000074a:	2100      	movs	r1, #0
1000074c:	3201      	adds	r2, #1
1000074e:	f005 fb45 	bl	10005ddc <__wrap_memset>
10000752:	0021      	movs	r1, r4
10000754:	4642      	mov	r2, r8
10000756:	4648      	mov	r0, r9
10000758:	3110      	adds	r1, #16
1000075a:	f001 fbbf 	bl	10001edc <_ZN3SPI10transfernbEPKhPhm>
1000075e:	2352      	movs	r3, #82	; 0x52
10000760:	7c22      	ldrb	r2, [r4, #16]
10000762:	2101      	movs	r1, #1
10000764:	54e2      	strb	r2, [r4, r3]
10000766:	8960      	ldrh	r0, [r4, #10]
10000768:	f001 fb76 	bl	10001e58 <_ZN4GPIO5writeEii>
1000076c:	2100      	movs	r1, #0
1000076e:	6e60      	ldr	r0, [r4, #100]	; 0x64
10000770:	f002 f846 	bl	10002800 <sleep_us>
10000774:	f001 fbd2 	bl	10001f1c <_ZN3SPI14endTransactionEv>
10000778:	bc3c      	pop	{r2, r3, r4, r5}
1000077a:	4690      	mov	r8, r2
1000077c:	4699      	mov	r9, r3
1000077e:	46a2      	mov	sl, r4
10000780:	46ab      	mov	fp, r5
10000782:	bdf8      	pop	{r3, r4, r5, r6, r7, pc}
10000784:	4256      	negs	r6, r2
10000786:	4156      	adcs	r6, r2
10000788:	b2f3      	uxtb	r3, r6
1000078a:	469b      	mov	fp, r3
1000078c:	1c17      	adds	r7, r2, #0
1000078e:	2a20      	cmp	r2, #32
10000790:	d807      	bhi.n	100007a2 <_ZN4RF2413write_payloadEPKvhh+0x13a>
10000792:	465b      	mov	r3, fp
10000794:	b2ff      	uxtb	r7, r7
10000796:	18fb      	adds	r3, r7, r3
10000798:	b2db      	uxtb	r3, r3
1000079a:	4698      	mov	r8, r3
1000079c:	e77e      	b.n	1000069c <_ZN4RF2413write_payloadEPKvhh+0x34>
1000079e:	1c17      	adds	r7, r2, #0
100007a0:	e777      	b.n	10000692 <_ZN4RF2413write_payloadEPKvhh+0x2a>
100007a2:	2720      	movs	r7, #32
100007a4:	465b      	mov	r3, fp
100007a6:	b2ff      	uxtb	r7, r7
100007a8:	18fb      	adds	r3, r7, r3
100007aa:	b2db      	uxtb	r3, r3
100007ac:	4698      	mov	r8, r3
100007ae:	e775      	b.n	1000069c <_ZN4RF2413write_payloadEPKvhh+0x34>
100007b0:	2300      	movs	r3, #0
100007b2:	5cea      	ldrb	r2, [r5, r3]
100007b4:	54ca      	strb	r2, [r1, r3]
100007b6:	3301      	adds	r3, #1
100007b8:	b2da      	uxtb	r2, r3
100007ba:	4297      	cmp	r7, r2
100007bc:	d1f9      	bne.n	100007b2 <_ZN4RF2413write_payloadEPKvhh+0x14a>
100007be:	e7bb      	b.n	10000738 <_ZN4RF2413write_payloadEPKvhh+0xd0>

100007c0 <_ZN4RF2412read_payloadEPvh>:
100007c0:	b5f8      	push	{r3, r4, r5, r6, r7, lr}
100007c2:	46ce      	mov	lr, r9
100007c4:	4647      	mov	r7, r8
100007c6:	235e      	movs	r3, #94	; 0x5e
100007c8:	b580      	push	{r7, lr}
100007ca:	5cc3      	ldrb	r3, [r0, r3]
100007cc:	0004      	movs	r4, r0
100007ce:	000e      	movs	r6, r1
100007d0:	2b00      	cmp	r3, #0
100007d2:	d000      	beq.n	100007d6 <_ZN4RF2412read_payloadEPvh+0x16>
100007d4:	e081      	b.n	100008da <_ZN4RF2412read_payloadEPvh+0x11a>
100007d6:	3353      	adds	r3, #83	; 0x53
100007d8:	5cc5      	ldrb	r5, [r0, r3]
100007da:	1c2f      	adds	r7, r5, #0
100007dc:	4295      	cmp	r5, r2
100007de:	d900      	bls.n	100007e2 <_ZN4RF2412read_payloadEPvh+0x22>
100007e0:	e081      	b.n	100008e6 <_ZN4RF2412read_payloadEPvh+0x126>
100007e2:	b2ff      	uxtb	r7, r7
100007e4:	68e0      	ldr	r0, [r4, #12]
100007e6:	f001 fb85 	bl	10001ef4 <_ZN3SPI16beginTransactionEm>
100007ea:	2100      	movs	r1, #0
100007ec:	8960      	ldrh	r0, [r4, #10]
100007ee:	f001 fb33 	bl	10001e58 <_ZN4GPIO5writeEii>
100007f2:	6e60      	ldr	r0, [r4, #100]	; 0x64
100007f4:	2100      	movs	r1, #0
100007f6:	f002 f803 	bl	10002800 <sleep_us>
100007fa:	2331      	movs	r3, #49	; 0x31
100007fc:	4699      	mov	r9, r3
100007fe:	1c6b      	adds	r3, r5, #1
10000800:	b2db      	uxtb	r3, r3
10000802:	4698      	mov	r8, r3
10000804:	0020      	movs	r0, r4
10000806:	2331      	movs	r3, #49	; 0x31
10000808:	2261      	movs	r2, #97	; 0x61
1000080a:	44a1      	add	r9, r4
1000080c:	3032      	adds	r0, #50	; 0x32
1000080e:	54e2      	strb	r2, [r4, r3]
10000810:	2d00      	cmp	r5, #0
10000812:	d005      	beq.n	10000820 <_ZN4RF2412read_payloadEPvh+0x60>
10000814:	3d01      	subs	r5, #1
10000816:	b2ea      	uxtb	r2, r5
10000818:	21ff      	movs	r1, #255	; 0xff
1000081a:	3201      	adds	r2, #1
1000081c:	f005 fade 	bl	10005ddc <__wrap_memset>
10000820:	0021      	movs	r1, r4
10000822:	4642      	mov	r2, r8
10000824:	4648      	mov	r0, r9
10000826:	3110      	adds	r1, #16
10000828:	f001 fb58 	bl	10001edc <_ZN3SPI10transfernbEPKhPhm>
1000082c:	2352      	movs	r3, #82	; 0x52
1000082e:	7c22      	ldrb	r2, [r4, #16]
10000830:	54e2      	strb	r2, [r4, r3]
10000832:	2f00      	cmp	r7, #0
10000834:	d043      	beq.n	100008be <_ZN4RF2412read_payloadEPvh+0xfe>
10000836:	0021      	movs	r1, r4
10000838:	1e78      	subs	r0, r7, #1
1000083a:	3111      	adds	r1, #17
1000083c:	b2c0      	uxtb	r0, r0
1000083e:	000b      	movs	r3, r1
10000840:	2800      	cmp	r0, #0
10000842:	d03a      	beq.n	100008ba <_ZN4RF2412read_payloadEPvh+0xfa>
10000844:	3f02      	subs	r7, #2
10000846:	b2fb      	uxtb	r3, r7
10000848:	0032      	movs	r2, r6
1000084a:	4698      	mov	r8, r3
1000084c:	2303      	movs	r3, #3
1000084e:	430a      	orrs	r2, r1
10000850:	0025      	movs	r5, r4
10000852:	4013      	ands	r3, r2
10000854:	425a      	negs	r2, r3
10000856:	4153      	adcs	r3, r2
10000858:	2206      	movs	r2, #6
1000085a:	3514      	adds	r5, #20
1000085c:	1bad      	subs	r5, r5, r6
1000085e:	42aa      	cmp	r2, r5
10000860:	4192      	sbcs	r2, r2
10000862:	4252      	negs	r2, r2
10000864:	421a      	tst	r2, r3
10000866:	d044      	beq.n	100008f2 <_ZN4RF2412read_payloadEPvh+0x132>
10000868:	4643      	mov	r3, r8
1000086a:	2b08      	cmp	r3, #8
1000086c:	d941      	bls.n	100008f2 <_ZN4RF2412read_payloadEPvh+0x132>
1000086e:	2300      	movs	r3, #0
10000870:	2200      	movs	r2, #0
10000872:	0885      	lsrs	r5, r0, #2
10000874:	588f      	ldr	r7, [r1, r2]
10000876:	3301      	adds	r3, #1
10000878:	b2db      	uxtb	r3, r3
1000087a:	50b7      	str	r7, [r6, r2]
1000087c:	3204      	adds	r2, #4
1000087e:	429d      	cmp	r5, r3
10000880:	d1f8      	bne.n	10000874 <_ZN4RF2412read_payloadEPvh+0xb4>
10000882:	2303      	movs	r3, #3
10000884:	0002      	movs	r2, r0
10000886:	439a      	bics	r2, r3
10000888:	0013      	movs	r3, r2
1000088a:	18b5      	adds	r5, r6, r2
1000088c:	188a      	adds	r2, r1, r2
1000088e:	4694      	mov	ip, r2
10000890:	1ac2      	subs	r2, r0, r3
10000892:	b2d2      	uxtb	r2, r2
10000894:	4298      	cmp	r0, r3
10000896:	d00c      	beq.n	100008b2 <_ZN4RF2412read_payloadEPvh+0xf2>
10000898:	4663      	mov	r3, ip
1000089a:	781b      	ldrb	r3, [r3, #0]
1000089c:	702b      	strb	r3, [r5, #0]
1000089e:	2a01      	cmp	r2, #1
100008a0:	d007      	beq.n	100008b2 <_ZN4RF2412read_payloadEPvh+0xf2>
100008a2:	4663      	mov	r3, ip
100008a4:	785b      	ldrb	r3, [r3, #1]
100008a6:	706b      	strb	r3, [r5, #1]
100008a8:	2a02      	cmp	r2, #2
100008aa:	d002      	beq.n	100008b2 <_ZN4RF2412read_payloadEPvh+0xf2>
100008ac:	4663      	mov	r3, ip
100008ae:	789b      	ldrb	r3, [r3, #2]
100008b0:	70ab      	strb	r3, [r5, #2]
100008b2:	4643      	mov	r3, r8
100008b4:	3301      	adds	r3, #1
100008b6:	18f6      	adds	r6, r6, r3
100008b8:	18cb      	adds	r3, r1, r3
100008ba:	781b      	ldrb	r3, [r3, #0]
100008bc:	7033      	strb	r3, [r6, #0]
100008be:	8960      	ldrh	r0, [r4, #10]
100008c0:	2101      	movs	r1, #1
100008c2:	f001 fac9 	bl	10001e58 <_ZN4GPIO5writeEii>
100008c6:	2100      	movs	r1, #0
100008c8:	6e60      	ldr	r0, [r4, #100]	; 0x64
100008ca:	f001 ff99 	bl	10002800 <sleep_us>
100008ce:	f001 fb25 	bl	10001f1c <_ZN3SPI14endTransactionEv>
100008d2:	bc0c      	pop	{r2, r3}
100008d4:	4690      	mov	r8, r2
100008d6:	4699      	mov	r9, r3
100008d8:	bdf8      	pop	{r3, r4, r5, r6, r7, pc}
100008da:	1c17      	adds	r7, r2, #0
100008dc:	2a20      	cmp	r2, #32
100008de:	d804      	bhi.n	100008ea <_ZN4RF2412read_payloadEPvh+0x12a>
100008e0:	b2ff      	uxtb	r7, r7
100008e2:	003d      	movs	r5, r7
100008e4:	e77e      	b.n	100007e4 <_ZN4RF2412read_payloadEPvh+0x24>
100008e6:	1c17      	adds	r7, r2, #0
100008e8:	e77b      	b.n	100007e2 <_ZN4RF2412read_payloadEPvh+0x22>
100008ea:	2720      	movs	r7, #32
100008ec:	b2ff      	uxtb	r7, r7
100008ee:	003d      	movs	r5, r7
100008f0:	e778      	b.n	100007e4 <_ZN4RF2412read_payloadEPvh+0x24>
100008f2:	2300      	movs	r3, #0
100008f4:	5cca      	ldrb	r2, [r1, r3]
100008f6:	54f2      	strb	r2, [r6, r3]
100008f8:	3301      	adds	r3, #1
100008fa:	b2da      	uxtb	r2, r3
100008fc:	4290      	cmp	r0, r2
100008fe:	d1f9      	bne.n	100008f4 <_ZN4RF2412read_payloadEPvh+0x134>
10000900:	e7d7      	b.n	100008b2 <_ZN4RF2412read_payloadEPvh+0xf2>
10000902:	46c0      	nop			; (mov r8, r8)

10000904 <_ZN4RF24C1Ettm>:
10000904:	b5f8      	push	{r3, r4, r5, r6, r7, lr}
10000906:	0004      	movs	r4, r0
10000908:	000f      	movs	r7, r1
1000090a:	0016      	movs	r6, r2
1000090c:	001d      	movs	r5, r3
1000090e:	f001 fab7 	bl	10001e80 <_ZN3SPIC1Ev>
10000912:	2353      	movs	r3, #83	; 0x53
10000914:	2220      	movs	r2, #32
10000916:	8127      	strh	r7, [r4, #8]
10000918:	8166      	strh	r6, [r4, #10]
1000091a:	60e5      	str	r5, [r4, #12]
1000091c:	54e2      	strb	r2, [r4, r3]
1000091e:	2200      	movs	r2, #0
10000920:	2101      	movs	r1, #1
10000922:	3307      	adds	r3, #7
10000924:	52e2      	strh	r2, [r4, r3]
10000926:	3b55      	subs	r3, #85	; 0x55
10000928:	325d      	adds	r2, #93	; 0x5d
1000092a:	54a3      	strb	r3, [r4, r2]
1000092c:	3201      	adds	r2, #1
1000092e:	54a1      	strb	r1, [r4, r2]
10000930:	2200      	movs	r2, #0
10000932:	6663      	str	r3, [r4, #100]	; 0x64
10000934:	334f      	adds	r3, #79	; 0x4f
10000936:	54e2      	strb	r2, [r4, r3]
10000938:	4b03      	ldr	r3, [pc, #12]	; (10000948 <_ZN4RF24C1Ettm+0x44>)
1000093a:	429d      	cmp	r5, r3
1000093c:	d801      	bhi.n	10000942 <_ZN4RF24C1Ettm+0x3e>
1000093e:	4b03      	ldr	r3, [pc, #12]	; (1000094c <_ZN4RF24C1Ettm+0x48>)
10000940:	60e3      	str	r3, [r4, #12]
10000942:	0020      	movs	r0, r4
10000944:	bdf8      	pop	{r3, r4, r5, r6, r7, pc}
10000946:	46c0      	nop			; (mov r8, r8)
10000948:	000088b8 	.word	0x000088b8
1000094c:	00989680 	.word	0x00989680

10000950 <_ZN4RF2411_init_radioEv>:
10000950:	b5f0      	push	{r4, r5, r6, r7, lr}
10000952:	46de      	mov	lr, fp
10000954:	4657      	mov	r7, sl
10000956:	464e      	mov	r6, r9
10000958:	4645      	mov	r5, r8
1000095a:	0004      	movs	r4, r0
1000095c:	b5e0      	push	{r5, r6, r7, lr}
1000095e:	2005      	movs	r0, #5
10000960:	b083      	sub	sp, #12
10000962:	f001 ff65 	bl	10002830 <sleep_ms>
10000966:	68e0      	ldr	r0, [r4, #12]
10000968:	f001 fac4 	bl	10001ef4 <_ZN3SPI16beginTransactionEm>
1000096c:	2100      	movs	r1, #0
1000096e:	8960      	ldrh	r0, [r4, #10]
10000970:	f001 fa72 	bl	10001e58 <_ZN4GPIO5writeEii>
10000974:	2100      	movs	r1, #0
10000976:	6e60      	ldr	r0, [r4, #100]	; 0x64
10000978:	f001 ff42 	bl	10002800 <sleep_us>
1000097c:	2331      	movs	r3, #49	; 0x31
1000097e:	4699      	mov	r9, r3
10000980:	464a      	mov	r2, r9
10000982:	3b0d      	subs	r3, #13
10000984:	54a3      	strb	r3, [r4, r2]
10000986:	330e      	adds	r3, #14
10000988:	4698      	mov	r8, r3
1000098a:	0025      	movs	r5, r4
1000098c:	0026      	movs	r6, r4
1000098e:	4642      	mov	r2, r8
10000990:	2752      	movs	r7, #82	; 0x52
10000992:	3531      	adds	r5, #49	; 0x31
10000994:	3610      	adds	r6, #16
10000996:	332d      	adds	r3, #45	; 0x2d
10000998:	54a3      	strb	r3, [r4, r2]
1000099a:	0031      	movs	r1, r6
1000099c:	3a30      	subs	r2, #48	; 0x30
1000099e:	0028      	movs	r0, r5
100009a0:	f001 fa9c 	bl	10001edc <_ZN3SPI10transfernbEPKhPhm>
100009a4:	7c23      	ldrb	r3, [r4, #16]
100009a6:	2101      	movs	r1, #1
100009a8:	55e3      	strb	r3, [r4, r7]
100009aa:	8960      	ldrh	r0, [r4, #10]
100009ac:	f001 fa54 	bl	10001e58 <_ZN4GPIO5writeEii>
100009b0:	2100      	movs	r1, #0
100009b2:	6e60      	ldr	r0, [r4, #100]	; 0x64
100009b4:	f001 ff24 	bl	10002800 <sleep_us>
100009b8:	f001 fab0 	bl	10001f1c <_ZN3SPI14endTransactionEv>
100009bc:	238c      	movs	r3, #140	; 0x8c
100009be:	005b      	lsls	r3, r3, #1
100009c0:	6623      	str	r3, [r4, #96]	; 0x60
100009c2:	68e0      	ldr	r0, [r4, #12]
100009c4:	f001 fa96 	bl	10001ef4 <_ZN3SPI16beginTransactionEm>
100009c8:	2100      	movs	r1, #0
100009ca:	8960      	ldrh	r0, [r4, #10]
100009cc:	f001 fa44 	bl	10001e58 <_ZN4GPIO5writeEii>
100009d0:	2100      	movs	r1, #0
100009d2:	6e60      	ldr	r0, [r4, #100]	; 0x64
100009d4:	f001 ff14 	bl	10002800 <sleep_us>
100009d8:	2326      	movs	r3, #38	; 0x26
100009da:	464a      	mov	r2, r9
100009dc:	54a3      	strb	r3, [r4, r2]
100009de:	4642      	mov	r2, r8
100009e0:	3b1f      	subs	r3, #31
100009e2:	54a3      	strb	r3, [r4, r2]
100009e4:	0031      	movs	r1, r6
100009e6:	3a30      	subs	r2, #48	; 0x30
100009e8:	0028      	movs	r0, r5
100009ea:	f001 fa77 	bl	10001edc <_ZN3SPI10transfernbEPKhPhm>
100009ee:	7c23      	ldrb	r3, [r4, #16]
100009f0:	2101      	movs	r1, #1
100009f2:	55e3      	strb	r3, [r4, r7]
100009f4:	8960      	ldrh	r0, [r4, #10]
100009f6:	f001 fa2f 	bl	10001e58 <_ZN4GPIO5writeEii>
100009fa:	2100      	movs	r1, #0
100009fc:	6e60      	ldr	r0, [r4, #100]	; 0x64
100009fe:	f001 feff 	bl	10002800 <sleep_us>
10000a02:	f001 fa8b 	bl	10001f1c <_ZN3SPI14endTransactionEv>
10000a06:	68e0      	ldr	r0, [r4, #12]
10000a08:	f001 fa74 	bl	10001ef4 <_ZN3SPI16beginTransactionEm>
10000a0c:	2100      	movs	r1, #0
10000a0e:	8960      	ldrh	r0, [r4, #10]
10000a10:	f001 fa22 	bl	10001e58 <_ZN4GPIO5writeEii>
10000a14:	2100      	movs	r1, #0
10000a16:	6e60      	ldr	r0, [r4, #100]	; 0x64
10000a18:	f001 fef2 	bl	10002800 <sleep_us>
10000a1c:	231d      	movs	r3, #29
10000a1e:	469b      	mov	fp, r3
10000a20:	464b      	mov	r3, r9
10000a22:	465a      	mov	r2, fp
10000a24:	54e2      	strb	r2, [r4, r3]
10000a26:	33ce      	adds	r3, #206	; 0xce
10000a28:	469a      	mov	sl, r3
10000a2a:	4643      	mov	r3, r8
10000a2c:	4652      	mov	r2, sl
10000a2e:	0031      	movs	r1, r6
10000a30:	54e2      	strb	r2, [r4, r3]
10000a32:	0028      	movs	r0, r5
10000a34:	3afd      	subs	r2, #253	; 0xfd
10000a36:	f001 fa51 	bl	10001edc <_ZN3SPI10transfernbEPKhPhm>
10000a3a:	7c23      	ldrb	r3, [r4, #16]
10000a3c:	55e3      	strb	r3, [r4, r7]
10000a3e:	7c61      	ldrb	r1, [r4, #17]
10000a40:	8960      	ldrh	r0, [r4, #10]
10000a42:	9101      	str	r1, [sp, #4]
10000a44:	2101      	movs	r1, #1
10000a46:	f001 fa07 	bl	10001e58 <_ZN4GPIO5writeEii>
10000a4a:	2100      	movs	r1, #0
10000a4c:	6e60      	ldr	r0, [r4, #100]	; 0x64
10000a4e:	f001 fed7 	bl	10002800 <sleep_us>
10000a52:	f001 fa63 	bl	10001f1c <_ZN3SPI14endTransactionEv>
10000a56:	68e0      	ldr	r0, [r4, #12]
10000a58:	f001 fa4c 	bl	10001ef4 <_ZN3SPI16beginTransactionEm>
10000a5c:	2100      	movs	r1, #0
10000a5e:	8960      	ldrh	r0, [r4, #10]
10000a60:	f001 f9fa 	bl	10001e58 <_ZN4GPIO5writeEii>
10000a64:	2100      	movs	r1, #0
10000a66:	6e60      	ldr	r0, [r4, #100]	; 0x64
10000a68:	f001 feca 	bl	10002800 <sleep_us>
10000a6c:	2050      	movs	r0, #80	; 0x50
10000a6e:	f001 fa1f 	bl	10001eb0 <_ZN3SPI8transferEh>
10000a72:	55e0      	strb	r0, [r4, r7]
10000a74:	2073      	movs	r0, #115	; 0x73
10000a76:	f001 fa1b 	bl	10001eb0 <_ZN3SPI8transferEh>
10000a7a:	2101      	movs	r1, #1
10000a7c:	8960      	ldrh	r0, [r4, #10]
10000a7e:	f001 f9eb 	bl	10001e58 <_ZN4GPIO5writeEii>
10000a82:	2100      	movs	r1, #0
10000a84:	6e60      	ldr	r0, [r4, #100]	; 0x64
10000a86:	f001 febb 	bl	10002800 <sleep_us>
10000a8a:	f001 fa47 	bl	10001f1c <_ZN3SPI14endTransactionEv>
10000a8e:	68e0      	ldr	r0, [r4, #12]
10000a90:	f001 fa30 	bl	10001ef4 <_ZN3SPI16beginTransactionEm>
10000a94:	2100      	movs	r1, #0
10000a96:	8960      	ldrh	r0, [r4, #10]
10000a98:	f001 f9de 	bl	10001e58 <_ZN4GPIO5writeEii>
10000a9c:	2100      	movs	r1, #0
10000a9e:	6e60      	ldr	r0, [r4, #100]	; 0x64
10000aa0:	f001 feae 	bl	10002800 <sleep_us>
10000aa4:	464b      	mov	r3, r9
10000aa6:	465a      	mov	r2, fp
10000aa8:	54e2      	strb	r2, [r4, r3]
10000aaa:	4643      	mov	r3, r8
10000aac:	4652      	mov	r2, sl
10000aae:	0031      	movs	r1, r6
10000ab0:	54e2      	strb	r2, [r4, r3]
10000ab2:	0028      	movs	r0, r5
10000ab4:	3afd      	subs	r2, #253	; 0xfd
10000ab6:	f001 fa11 	bl	10001edc <_ZN3SPI10transfernbEPKhPhm>
10000aba:	7c23      	ldrb	r3, [r4, #16]
10000abc:	2101      	movs	r1, #1
10000abe:	55e3      	strb	r3, [r4, r7]
10000ac0:	7c63      	ldrb	r3, [r4, #17]
10000ac2:	8960      	ldrh	r0, [r4, #10]
10000ac4:	4698      	mov	r8, r3
10000ac6:	f001 f9c7 	bl	10001e58 <_ZN4GPIO5writeEii>
10000aca:	2100      	movs	r1, #0
10000acc:	6e60      	ldr	r0, [r4, #100]	; 0x64
10000ace:	f001 fe97 	bl	10002800 <sleep_us>
10000ad2:	f001 fa23 	bl	10001f1c <_ZN3SPI14endTransactionEv>
10000ad6:	4643      	mov	r3, r8
10000ad8:	9901      	ldr	r1, [sp, #4]
10000ada:	1a5b      	subs	r3, r3, r1
10000adc:	425a      	negs	r2, r3
10000ade:	4153      	adcs	r3, r2
10000ae0:	225a      	movs	r2, #90	; 0x5a
10000ae2:	54a3      	strb	r3, [r4, r2]
10000ae4:	4643      	mov	r3, r8
10000ae6:	2b00      	cmp	r3, #0
10000ae8:	d025      	beq.n	10000b36 <_ZN4RF2411_init_radioEv+0x1e6>
10000aea:	4588      	cmp	r8, r1
10000aec:	d100      	bne.n	10000af0 <_ZN4RF2411_init_radioEv+0x1a0>
10000aee:	e1f2      	b.n	10000ed6 <_ZN4RF2411_init_radioEv+0x586>
10000af0:	68e0      	ldr	r0, [r4, #12]
10000af2:	f001 f9ff 	bl	10001ef4 <_ZN3SPI16beginTransactionEm>
10000af6:	2100      	movs	r1, #0
10000af8:	8960      	ldrh	r0, [r4, #10]
10000afa:	f001 f9ad 	bl	10001e58 <_ZN4GPIO5writeEii>
10000afe:	2100      	movs	r1, #0
10000b00:	6e60      	ldr	r0, [r4, #100]	; 0x64
10000b02:	f001 fe7d 	bl	10002800 <sleep_us>
10000b06:	2331      	movs	r3, #49	; 0x31
10000b08:	223d      	movs	r2, #61	; 0x3d
10000b0a:	54e2      	strb	r2, [r4, r3]
10000b0c:	2200      	movs	r2, #0
10000b0e:	3301      	adds	r3, #1
10000b10:	54e2      	strb	r2, [r4, r3]
10000b12:	0031      	movs	r1, r6
10000b14:	0028      	movs	r0, r5
10000b16:	3202      	adds	r2, #2
10000b18:	f001 f9e0 	bl	10001edc <_ZN3SPI10transfernbEPKhPhm>
10000b1c:	2352      	movs	r3, #82	; 0x52
10000b1e:	7c22      	ldrb	r2, [r4, #16]
10000b20:	2101      	movs	r1, #1
10000b22:	54e2      	strb	r2, [r4, r3]
10000b24:	8960      	ldrh	r0, [r4, #10]
10000b26:	f001 f997 	bl	10001e58 <_ZN4GPIO5writeEii>
10000b2a:	2100      	movs	r1, #0
10000b2c:	6e60      	ldr	r0, [r4, #100]	; 0x64
10000b2e:	f001 fe67 	bl	10002800 <sleep_us>
10000b32:	f001 f9f3 	bl	10001f1c <_ZN3SPI14endTransactionEv>
10000b36:	2300      	movs	r3, #0
10000b38:	469a      	mov	sl, r3
10000b3a:	4652      	mov	r2, sl
10000b3c:	335c      	adds	r3, #92	; 0x5c
10000b3e:	54e2      	strb	r2, [r4, r3]
10000b40:	68e0      	ldr	r0, [r4, #12]
10000b42:	f001 f9d7 	bl	10001ef4 <_ZN3SPI16beginTransactionEm>
10000b46:	2100      	movs	r1, #0
10000b48:	8960      	ldrh	r0, [r4, #10]
10000b4a:	f001 f985 	bl	10001e58 <_ZN4GPIO5writeEii>
10000b4e:	2100      	movs	r1, #0
10000b50:	6e60      	ldr	r0, [r4, #100]	; 0x64
10000b52:	f001 fe55 	bl	10002800 <sleep_us>
10000b56:	2331      	movs	r3, #49	; 0x31
10000b58:	4699      	mov	r9, r3
10000b5a:	464a      	mov	r2, r9
10000b5c:	330b      	adds	r3, #11
10000b5e:	54a3      	strb	r3, [r4, r2]
10000b60:	4652      	mov	r2, sl
10000b62:	2752      	movs	r7, #82	; 0x52
10000b64:	3b0a      	subs	r3, #10
10000b66:	54e2      	strb	r2, [r4, r3]
10000b68:	0031      	movs	r1, r6
10000b6a:	3202      	adds	r2, #2
10000b6c:	0028      	movs	r0, r5
10000b6e:	4698      	mov	r8, r3
10000b70:	f001 f9b4 	bl	10001edc <_ZN3SPI10transfernbEPKhPhm>
10000b74:	7c23      	ldrb	r3, [r4, #16]
10000b76:	2101      	movs	r1, #1
10000b78:	55e3      	strb	r3, [r4, r7]
10000b7a:	8960      	ldrh	r0, [r4, #10]
10000b7c:	f001 f96c 	bl	10001e58 <_ZN4GPIO5writeEii>
10000b80:	2100      	movs	r1, #0
10000b82:	6e60      	ldr	r0, [r4, #100]	; 0x64
10000b84:	f001 fe3c 	bl	10002800 <sleep_us>
10000b88:	f001 f9c8 	bl	10001f1c <_ZN3SPI14endTransactionEv>
10000b8c:	4652      	mov	r2, sl
10000b8e:	235e      	movs	r3, #94	; 0x5e
10000b90:	68e0      	ldr	r0, [r4, #12]
10000b92:	54e2      	strb	r2, [r4, r3]
10000b94:	f001 f9ae 	bl	10001ef4 <_ZN3SPI16beginTransactionEm>
10000b98:	2100      	movs	r1, #0
10000b9a:	8960      	ldrh	r0, [r4, #10]
10000b9c:	f001 f95c 	bl	10001e58 <_ZN4GPIO5writeEii>
10000ba0:	2100      	movs	r1, #0
10000ba2:	6e60      	ldr	r0, [r4, #100]	; 0x64
10000ba4:	f001 fe2c 	bl	10002800 <sleep_us>
10000ba8:	2321      	movs	r3, #33	; 0x21
10000baa:	464a      	mov	r2, r9
10000bac:	54a3      	strb	r3, [r4, r2]
10000bae:	4642      	mov	r2, r8
10000bb0:	331e      	adds	r3, #30
10000bb2:	54a3      	strb	r3, [r4, r2]
10000bb4:	0031      	movs	r1, r6
10000bb6:	3a30      	subs	r2, #48	; 0x30
10000bb8:	0028      	movs	r0, r5
10000bba:	f001 f98f 	bl	10001edc <_ZN3SPI10transfernbEPKhPhm>
10000bbe:	7c23      	ldrb	r3, [r4, #16]
10000bc0:	2101      	movs	r1, #1
10000bc2:	55e3      	strb	r3, [r4, r7]
10000bc4:	8960      	ldrh	r0, [r4, #10]
10000bc6:	f001 f947 	bl	10001e58 <_ZN4GPIO5writeEii>
10000bca:	2100      	movs	r1, #0
10000bcc:	6e60      	ldr	r0, [r4, #100]	; 0x64
10000bce:	f001 fe17 	bl	10002800 <sleep_us>
10000bd2:	f001 f9a3 	bl	10001f1c <_ZN3SPI14endTransactionEv>
10000bd6:	68e0      	ldr	r0, [r4, #12]
10000bd8:	f001 f98c 	bl	10001ef4 <_ZN3SPI16beginTransactionEm>
10000bdc:	2100      	movs	r1, #0
10000bde:	8960      	ldrh	r0, [r4, #10]
10000be0:	f001 f93a 	bl	10001e58 <_ZN4GPIO5writeEii>
10000be4:	2100      	movs	r1, #0
10000be6:	6e60      	ldr	r0, [r4, #100]	; 0x64
10000be8:	f001 fe0a 	bl	10002800 <sleep_us>
10000bec:	2322      	movs	r3, #34	; 0x22
10000bee:	464a      	mov	r2, r9
10000bf0:	54a3      	strb	r3, [r4, r2]
10000bf2:	4642      	mov	r2, r8
10000bf4:	3b1f      	subs	r3, #31
10000bf6:	54a3      	strb	r3, [r4, r2]
10000bf8:	0031      	movs	r1, r6
10000bfa:	3a30      	subs	r2, #48	; 0x30
10000bfc:	0028      	movs	r0, r5
10000bfe:	f001 f96d 	bl	10001edc <_ZN3SPI10transfernbEPKhPhm>
10000c02:	7c23      	ldrb	r3, [r4, #16]
10000c04:	2101      	movs	r1, #1
10000c06:	55e3      	strb	r3, [r4, r7]
10000c08:	8960      	ldrh	r0, [r4, #10]
10000c0a:	f001 f925 	bl	10001e58 <_ZN4GPIO5writeEii>
10000c0e:	2100      	movs	r1, #0
10000c10:	6e60      	ldr	r0, [r4, #100]	; 0x64
10000c12:	f001 fdf5 	bl	10002800 <sleep_us>
10000c16:	f001 f981 	bl	10001f1c <_ZN3SPI14endTransactionEv>
10000c1a:	2353      	movs	r3, #83	; 0x53
10000c1c:	2220      	movs	r2, #32
10000c1e:	54e2      	strb	r2, [r4, r3]
10000c20:	3b33      	subs	r3, #51	; 0x33
10000c22:	4698      	mov	r8, r3
10000c24:	3311      	adds	r3, #17
10000c26:	469a      	mov	sl, r3
10000c28:	2320      	movs	r3, #32
10000c2a:	3f41      	subs	r7, #65	; 0x41
10000c2c:	469b      	mov	fp, r3
10000c2e:	e002      	b.n	10000c36 <_ZN4RF2411_init_radioEv+0x2e6>
10000c30:	2353      	movs	r3, #83	; 0x53
10000c32:	5ce3      	ldrb	r3, [r4, r3]
10000c34:	4698      	mov	r8, r3
10000c36:	68e0      	ldr	r0, [r4, #12]
10000c38:	f001 f95c 	bl	10001ef4 <_ZN3SPI16beginTransactionEm>
10000c3c:	2100      	movs	r1, #0
10000c3e:	8960      	ldrh	r0, [r4, #10]
10000c40:	f001 f90a 	bl	10001e58 <_ZN4GPIO5writeEii>
10000c44:	2100      	movs	r1, #0
10000c46:	6e60      	ldr	r0, [r4, #100]	; 0x64
10000c48:	f001 fdda 	bl	10002800 <sleep_us>
10000c4c:	465b      	mov	r3, fp
10000c4e:	4652      	mov	r2, sl
10000c50:	433b      	orrs	r3, r7
10000c52:	54a3      	strb	r3, [r4, r2]
10000c54:	2332      	movs	r3, #50	; 0x32
10000c56:	4642      	mov	r2, r8
10000c58:	0031      	movs	r1, r6
10000c5a:	54e2      	strb	r2, [r4, r3]
10000c5c:	0028      	movs	r0, r5
10000c5e:	2202      	movs	r2, #2
10000c60:	4699      	mov	r9, r3
10000c62:	f001 f93b 	bl	10001edc <_ZN3SPI10transfernbEPKhPhm>
10000c66:	2352      	movs	r3, #82	; 0x52
10000c68:	4698      	mov	r8, r3
10000c6a:	4642      	mov	r2, r8
10000c6c:	7c23      	ldrb	r3, [r4, #16]
10000c6e:	2101      	movs	r1, #1
10000c70:	54a3      	strb	r3, [r4, r2]
10000c72:	8960      	ldrh	r0, [r4, #10]
10000c74:	3701      	adds	r7, #1
10000c76:	f001 f8ef 	bl	10001e58 <_ZN4GPIO5writeEii>
10000c7a:	b2ff      	uxtb	r7, r7
10000c7c:	2100      	movs	r1, #0
10000c7e:	6e60      	ldr	r0, [r4, #100]	; 0x64
10000c80:	f001 fdbe 	bl	10002800 <sleep_us>
10000c84:	f001 f94a 	bl	10001f1c <_ZN3SPI14endTransactionEv>
10000c88:	2f17      	cmp	r7, #23
10000c8a:	d1d1      	bne.n	10000c30 <_ZN4RF2411_init_radioEv+0x2e0>
10000c8c:	68e0      	ldr	r0, [r4, #12]
10000c8e:	f001 f931 	bl	10001ef4 <_ZN3SPI16beginTransactionEm>
10000c92:	2100      	movs	r1, #0
10000c94:	8960      	ldrh	r0, [r4, #10]
10000c96:	f001 f8df 	bl	10001e58 <_ZN4GPIO5writeEii>
10000c9a:	2100      	movs	r1, #0
10000c9c:	6e60      	ldr	r0, [r4, #100]	; 0x64
10000c9e:	f001 fdaf 	bl	10002800 <sleep_us>
10000ca2:	2323      	movs	r3, #35	; 0x23
10000ca4:	4652      	mov	r2, sl
10000ca6:	54a3      	strb	r3, [r4, r2]
10000ca8:	464a      	mov	r2, r9
10000caa:	3b20      	subs	r3, #32
10000cac:	54a3      	strb	r3, [r4, r2]
10000cae:	0031      	movs	r1, r6
10000cb0:	2202      	movs	r2, #2
10000cb2:	0028      	movs	r0, r5
10000cb4:	f001 f912 	bl	10001edc <_ZN3SPI10transfernbEPKhPhm>
10000cb8:	4642      	mov	r2, r8
10000cba:	7c23      	ldrb	r3, [r4, #16]
10000cbc:	2101      	movs	r1, #1
10000cbe:	54a3      	strb	r3, [r4, r2]
10000cc0:	8960      	ldrh	r0, [r4, #10]
10000cc2:	f001 f8c9 	bl	10001e58 <_ZN4GPIO5writeEii>
10000cc6:	2100      	movs	r1, #0
10000cc8:	6e60      	ldr	r0, [r4, #100]	; 0x64
10000cca:	f001 fd99 	bl	10002800 <sleep_us>
10000cce:	f001 f925 	bl	10001f1c <_ZN3SPI14endTransactionEv>
10000cd2:	235d      	movs	r3, #93	; 0x5d
10000cd4:	2205      	movs	r2, #5
10000cd6:	54e2      	strb	r2, [r4, r3]
10000cd8:	68e0      	ldr	r0, [r4, #12]
10000cda:	f001 f90b 	bl	10001ef4 <_ZN3SPI16beginTransactionEm>
10000cde:	2100      	movs	r1, #0
10000ce0:	8960      	ldrh	r0, [r4, #10]
10000ce2:	f001 f8b9 	bl	10001e58 <_ZN4GPIO5writeEii>
10000ce6:	2100      	movs	r1, #0
10000ce8:	6e60      	ldr	r0, [r4, #100]	; 0x64
10000cea:	f001 fd89 	bl	10002800 <sleep_us>
10000cee:	2325      	movs	r3, #37	; 0x25
10000cf0:	4652      	mov	r2, sl
10000cf2:	54a3      	strb	r3, [r4, r2]
10000cf4:	464a      	mov	r2, r9
10000cf6:	3327      	adds	r3, #39	; 0x27
10000cf8:	54a3      	strb	r3, [r4, r2]
10000cfa:	0031      	movs	r1, r6
10000cfc:	2202      	movs	r2, #2
10000cfe:	0028      	movs	r0, r5
10000d00:	f001 f8ec 	bl	10001edc <_ZN3SPI10transfernbEPKhPhm>
10000d04:	4642      	mov	r2, r8
10000d06:	7c23      	ldrb	r3, [r4, #16]
10000d08:	2101      	movs	r1, #1
10000d0a:	54a3      	strb	r3, [r4, r2]
10000d0c:	8960      	ldrh	r0, [r4, #10]
10000d0e:	f001 f8a3 	bl	10001e58 <_ZN4GPIO5writeEii>
10000d12:	2100      	movs	r1, #0
10000d14:	6e60      	ldr	r0, [r4, #100]	; 0x64
10000d16:	f001 fd73 	bl	10002800 <sleep_us>
10000d1a:	f001 f8ff 	bl	10001f1c <_ZN3SPI14endTransactionEv>
10000d1e:	68e0      	ldr	r0, [r4, #12]
10000d20:	f001 f8e8 	bl	10001ef4 <_ZN3SPI16beginTransactionEm>
10000d24:	2100      	movs	r1, #0
10000d26:	8960      	ldrh	r0, [r4, #10]
10000d28:	f001 f896 	bl	10001e58 <_ZN4GPIO5writeEii>
10000d2c:	2100      	movs	r1, #0
10000d2e:	6e60      	ldr	r0, [r4, #100]	; 0x64
10000d30:	f001 fd66 	bl	10002800 <sleep_us>
10000d34:	2327      	movs	r3, #39	; 0x27
10000d36:	4652      	mov	r2, sl
10000d38:	54a3      	strb	r3, [r4, r2]
10000d3a:	464a      	mov	r2, r9
10000d3c:	3349      	adds	r3, #73	; 0x49
10000d3e:	54a3      	strb	r3, [r4, r2]
10000d40:	0031      	movs	r1, r6
10000d42:	2202      	movs	r2, #2
10000d44:	0028      	movs	r0, r5
10000d46:	f001 f8c9 	bl	10001edc <_ZN3SPI10transfernbEPKhPhm>
10000d4a:	4642      	mov	r2, r8
10000d4c:	7c23      	ldrb	r3, [r4, #16]
10000d4e:	2101      	movs	r1, #1
10000d50:	54a3      	strb	r3, [r4, r2]
10000d52:	8960      	ldrh	r0, [r4, #10]
10000d54:	f001 f880 	bl	10001e58 <_ZN4GPIO5writeEii>
10000d58:	2100      	movs	r1, #0
10000d5a:	6e60      	ldr	r0, [r4, #100]	; 0x64
10000d5c:	f001 fd50 	bl	10002800 <sleep_us>
10000d60:	f001 f8dc 	bl	10001f1c <_ZN3SPI14endTransactionEv>
10000d64:	68e0      	ldr	r0, [r4, #12]
10000d66:	f001 f8c5 	bl	10001ef4 <_ZN3SPI16beginTransactionEm>
10000d6a:	2100      	movs	r1, #0
10000d6c:	8960      	ldrh	r0, [r4, #10]
10000d6e:	f001 f873 	bl	10001e58 <_ZN4GPIO5writeEii>
10000d72:	2100      	movs	r1, #0
10000d74:	6e60      	ldr	r0, [r4, #100]	; 0x64
10000d76:	f001 fd43 	bl	10002800 <sleep_us>
10000d7a:	20e2      	movs	r0, #226	; 0xe2
10000d7c:	f001 f898 	bl	10001eb0 <_ZN3SPI8transferEh>
10000d80:	4643      	mov	r3, r8
10000d82:	54e0      	strb	r0, [r4, r3]
10000d84:	2101      	movs	r1, #1
10000d86:	8960      	ldrh	r0, [r4, #10]
10000d88:	f001 f866 	bl	10001e58 <_ZN4GPIO5writeEii>
10000d8c:	2100      	movs	r1, #0
10000d8e:	6e60      	ldr	r0, [r4, #100]	; 0x64
10000d90:	f001 fd36 	bl	10002800 <sleep_us>
10000d94:	f001 f8c2 	bl	10001f1c <_ZN3SPI14endTransactionEv>
10000d98:	68e0      	ldr	r0, [r4, #12]
10000d9a:	f001 f8ab 	bl	10001ef4 <_ZN3SPI16beginTransactionEm>
10000d9e:	2100      	movs	r1, #0
10000da0:	8960      	ldrh	r0, [r4, #10]
10000da2:	f001 f859 	bl	10001e58 <_ZN4GPIO5writeEii>
10000da6:	2100      	movs	r1, #0
10000da8:	6e60      	ldr	r0, [r4, #100]	; 0x64
10000daa:	f001 fd29 	bl	10002800 <sleep_us>
10000dae:	20e1      	movs	r0, #225	; 0xe1
10000db0:	f001 f87e 	bl	10001eb0 <_ZN3SPI8transferEh>
10000db4:	4643      	mov	r3, r8
10000db6:	54e0      	strb	r0, [r4, r3]
10000db8:	2101      	movs	r1, #1
10000dba:	8960      	ldrh	r0, [r4, #10]
10000dbc:	f001 f84c 	bl	10001e58 <_ZN4GPIO5writeEii>
10000dc0:	2100      	movs	r1, #0
10000dc2:	6e60      	ldr	r0, [r4, #100]	; 0x64
10000dc4:	f001 fd1c 	bl	10002800 <sleep_us>
10000dc8:	f001 f8a8 	bl	10001f1c <_ZN3SPI14endTransactionEv>
10000dcc:	68e0      	ldr	r0, [r4, #12]
10000dce:	f001 f891 	bl	10001ef4 <_ZN3SPI16beginTransactionEm>
10000dd2:	2100      	movs	r1, #0
10000dd4:	8960      	ldrh	r0, [r4, #10]
10000dd6:	f001 f83f 	bl	10001e58 <_ZN4GPIO5writeEii>
10000dda:	2100      	movs	r1, #0
10000ddc:	6e60      	ldr	r0, [r4, #100]	; 0x64
10000dde:	f001 fd0f 	bl	10002800 <sleep_us>
10000de2:	4653      	mov	r3, sl
10000de4:	2220      	movs	r2, #32
10000de6:	54e2      	strb	r2, [r4, r3]
10000de8:	230c      	movs	r3, #12
10000dea:	464a      	mov	r2, r9
10000dec:	0031      	movs	r1, r6
10000dee:	54a3      	strb	r3, [r4, r2]
10000df0:	0028      	movs	r0, r5
10000df2:	2202      	movs	r2, #2
10000df4:	f001 f872 	bl	10001edc <_ZN3SPI10transfernbEPKhPhm>
10000df8:	4642      	mov	r2, r8
10000dfa:	7c23      	ldrb	r3, [r4, #16]
10000dfc:	2101      	movs	r1, #1
10000dfe:	54a3      	strb	r3, [r4, r2]
10000e00:	8960      	ldrh	r0, [r4, #10]
10000e02:	f001 f829 	bl	10001e58 <_ZN4GPIO5writeEii>
10000e06:	2100      	movs	r1, #0
10000e08:	6e60      	ldr	r0, [r4, #100]	; 0x64
10000e0a:	f001 fcf9 	bl	10002800 <sleep_us>
10000e0e:	f001 f885 	bl	10001f1c <_ZN3SPI14endTransactionEv>
10000e12:	68e0      	ldr	r0, [r4, #12]
10000e14:	f001 f86e 	bl	10001ef4 <_ZN3SPI16beginTransactionEm>
10000e18:	2100      	movs	r1, #0
10000e1a:	8960      	ldrh	r0, [r4, #10]
10000e1c:	f001 f81c 	bl	10001e58 <_ZN4GPIO5writeEii>
10000e20:	2100      	movs	r1, #0
10000e22:	6e60      	ldr	r0, [r4, #100]	; 0x64
10000e24:	f001 fcec 	bl	10002800 <sleep_us>
10000e28:	2300      	movs	r3, #0
10000e2a:	4652      	mov	r2, sl
10000e2c:	54a3      	strb	r3, [r4, r2]
10000e2e:	464a      	mov	r2, r9
10000e30:	33ff      	adds	r3, #255	; 0xff
10000e32:	54a3      	strb	r3, [r4, r2]
10000e34:	0031      	movs	r1, r6
10000e36:	2202      	movs	r2, #2
10000e38:	0028      	movs	r0, r5
10000e3a:	f001 f84f 	bl	10001edc <_ZN3SPI10transfernbEPKhPhm>
10000e3e:	4642      	mov	r2, r8
10000e40:	7c23      	ldrb	r3, [r4, #16]
10000e42:	2101      	movs	r1, #1
10000e44:	54a3      	strb	r3, [r4, r2]
10000e46:	7c67      	ldrb	r7, [r4, #17]
10000e48:	8960      	ldrh	r0, [r4, #10]
10000e4a:	f001 f805 	bl	10001e58 <_ZN4GPIO5writeEii>
10000e4e:	2100      	movs	r1, #0
10000e50:	6e60      	ldr	r0, [r4, #100]	; 0x64
10000e52:	f001 fcd5 	bl	10002800 <sleep_us>
10000e56:	f001 f861 	bl	10001f1c <_ZN3SPI14endTransactionEv>
10000e5a:	07bb      	lsls	r3, r7, #30
10000e5c:	d50c      	bpl.n	10000e78 <_ZN4RF2411_init_radioEv+0x528>
10000e5e:	2359      	movs	r3, #89	; 0x59
10000e60:	54e7      	strb	r7, [r4, r3]
10000e62:	3f0e      	subs	r7, #14
10000e64:	4278      	negs	r0, r7
10000e66:	4178      	adcs	r0, r7
10000e68:	b2c0      	uxtb	r0, r0
10000e6a:	b003      	add	sp, #12
10000e6c:	bc3c      	pop	{r2, r3, r4, r5}
10000e6e:	4690      	mov	r8, r2
10000e70:	4699      	mov	r9, r3
10000e72:	46a2      	mov	sl, r4
10000e74:	46ab      	mov	fp, r5
10000e76:	bdf0      	pop	{r4, r5, r6, r7, pc}
10000e78:	2302      	movs	r3, #2
10000e7a:	431f      	orrs	r7, r3
10000e7c:	2359      	movs	r3, #89	; 0x59
10000e7e:	b2ff      	uxtb	r7, r7
10000e80:	54e7      	strb	r7, [r4, r3]
10000e82:	68e0      	ldr	r0, [r4, #12]
10000e84:	469b      	mov	fp, r3
10000e86:	f001 f835 	bl	10001ef4 <_ZN3SPI16beginTransactionEm>
10000e8a:	2100      	movs	r1, #0
10000e8c:	8960      	ldrh	r0, [r4, #10]
10000e8e:	f000 ffe3 	bl	10001e58 <_ZN4GPIO5writeEii>
10000e92:	2100      	movs	r1, #0
10000e94:	6e60      	ldr	r0, [r4, #100]	; 0x64
10000e96:	f001 fcb3 	bl	10002800 <sleep_us>
10000e9a:	4653      	mov	r3, sl
10000e9c:	2220      	movs	r2, #32
10000e9e:	54e2      	strb	r2, [r4, r3]
10000ea0:	464b      	mov	r3, r9
10000ea2:	0031      	movs	r1, r6
10000ea4:	54e7      	strb	r7, [r4, r3]
10000ea6:	0028      	movs	r0, r5
10000ea8:	3a1e      	subs	r2, #30
10000eaa:	f001 f817 	bl	10001edc <_ZN3SPI10transfernbEPKhPhm>
10000eae:	4642      	mov	r2, r8
10000eb0:	7c23      	ldrb	r3, [r4, #16]
10000eb2:	2101      	movs	r1, #1
10000eb4:	54a3      	strb	r3, [r4, r2]
10000eb6:	8960      	ldrh	r0, [r4, #10]
10000eb8:	f000 ffce 	bl	10001e58 <_ZN4GPIO5writeEii>
10000ebc:	2100      	movs	r1, #0
10000ebe:	6e60      	ldr	r0, [r4, #100]	; 0x64
10000ec0:	f001 fc9e 	bl	10002800 <sleep_us>
10000ec4:	f001 f82a 	bl	10001f1c <_ZN3SPI14endTransactionEv>
10000ec8:	2100      	movs	r1, #0
10000eca:	4811      	ldr	r0, [pc, #68]	; (10000f10 <_ZN4RF2411_init_radioEv+0x5c0>)
10000ecc:	f001 fc98 	bl	10002800 <sleep_us>
10000ed0:	465b      	mov	r3, fp
10000ed2:	5ce7      	ldrb	r7, [r4, r3]
10000ed4:	e7c5      	b.n	10000e62 <_ZN4RF2411_init_radioEv+0x512>
10000ed6:	68e0      	ldr	r0, [r4, #12]
10000ed8:	f001 f80c 	bl	10001ef4 <_ZN3SPI16beginTransactionEm>
10000edc:	8960      	ldrh	r0, [r4, #10]
10000ede:	2100      	movs	r1, #0
10000ee0:	f000 ffba 	bl	10001e58 <_ZN4GPIO5writeEii>
10000ee4:	2100      	movs	r1, #0
10000ee6:	6e60      	ldr	r0, [r4, #100]	; 0x64
10000ee8:	f001 fc8a 	bl	10002800 <sleep_us>
10000eec:	2050      	movs	r0, #80	; 0x50
10000eee:	f000 ffdf 	bl	10001eb0 <_ZN3SPI8transferEh>
10000ef2:	55e0      	strb	r0, [r4, r7]
10000ef4:	2073      	movs	r0, #115	; 0x73
10000ef6:	f000 ffdb 	bl	10001eb0 <_ZN3SPI8transferEh>
10000efa:	8960      	ldrh	r0, [r4, #10]
10000efc:	2101      	movs	r1, #1
10000efe:	f000 ffab 	bl	10001e58 <_ZN4GPIO5writeEii>
10000f02:	2100      	movs	r1, #0
10000f04:	6e60      	ldr	r0, [r4, #100]	; 0x64
10000f06:	f001 fc7b 	bl	10002800 <sleep_us>
10000f0a:	f001 f807 	bl	10001f1c <_ZN3SPI14endTransactionEv>
10000f0e:	e5ef      	b.n	10000af0 <_ZN4RF2411_init_radioEv+0x1a0>
10000f10:	00001388 	.word	0x00001388

10000f14 <_ZN4RF245beginEv>:
10000f14:	b510      	push	{r4, lr}
10000f16:	0004      	movs	r4, r0
10000f18:	4814      	ldr	r0, [pc, #80]	; (10000f6c <_ZN4RF245beginEv+0x58>)
10000f1a:	f000 ffb7 	bl	10001e8c <_ZN3SPI5beginEP8spi_inst>
10000f1e:	8922      	ldrh	r2, [r4, #8]
10000f20:	4b13      	ldr	r3, [pc, #76]	; (10000f70 <_ZN4RF245beginEv+0x5c>)
10000f22:	429a      	cmp	r2, r3
10000f24:	d020      	beq.n	10000f68 <_ZN4RF245beginEv+0x54>
10000f26:	8960      	ldrh	r0, [r4, #10]
10000f28:	4298      	cmp	r0, r3
10000f2a:	d01d      	beq.n	10000f68 <_ZN4RF245beginEv+0x54>
10000f2c:	4282      	cmp	r2, r0
10000f2e:	d010      	beq.n	10000f52 <_ZN4RF245beginEv+0x3e>
10000f30:	0010      	movs	r0, r2
10000f32:	2101      	movs	r1, #1
10000f34:	f000 ff80 	bl	10001e38 <_ZN4GPIO4openEii>
10000f38:	8960      	ldrh	r0, [r4, #10]
10000f3a:	2101      	movs	r1, #1
10000f3c:	f000 ff7c 	bl	10001e38 <_ZN4GPIO4openEii>
10000f40:	8923      	ldrh	r3, [r4, #8]
10000f42:	8960      	ldrh	r0, [r4, #10]
10000f44:	4283      	cmp	r3, r0
10000f46:	d004      	beq.n	10000f52 <_ZN4RF245beginEv+0x3e>
10000f48:	0018      	movs	r0, r3
10000f4a:	2100      	movs	r1, #0
10000f4c:	f000 ff84 	bl	10001e58 <_ZN4GPIO5writeEii>
10000f50:	8960      	ldrh	r0, [r4, #10]
10000f52:	2101      	movs	r1, #1
10000f54:	f000 ff80 	bl	10001e58 <_ZN4GPIO5writeEii>
10000f58:	6e60      	ldr	r0, [r4, #100]	; 0x64
10000f5a:	2100      	movs	r1, #0
10000f5c:	f001 fc50 	bl	10002800 <sleep_us>
10000f60:	0020      	movs	r0, r4
10000f62:	f7ff fcf5 	bl	10000950 <_ZN4RF2411_init_radioEv>
10000f66:	e000      	b.n	10000f6a <_ZN4RF245beginEv+0x56>
10000f68:	2000      	movs	r0, #0
10000f6a:	bd10      	pop	{r4, pc}
10000f6c:	4003c000 	.word	0x4003c000
10000f70:	0000ffff 	.word	0x0000ffff

10000f74 <_ZN4RF2414startListeningEv>:
10000f74:	b5f0      	push	{r4, r5, r6, r7, lr}
10000f76:	4657      	mov	r7, sl
10000f78:	46de      	mov	lr, fp
10000f7a:	464e      	mov	r6, r9
10000f7c:	4645      	mov	r5, r8
10000f7e:	b5e0      	push	{r5, r6, r7, lr}
10000f80:	2759      	movs	r7, #89	; 0x59
10000f82:	5dc3      	ldrb	r3, [r0, r7]
10000f84:	0004      	movs	r4, r0
10000f86:	b083      	sub	sp, #12
10000f88:	079a      	lsls	r2, r3, #30
10000f8a:	d400      	bmi.n	10000f8e <_ZN4RF2414startListeningEv+0x1a>
10000f8c:	e124      	b.n	100011d8 <_ZN4RF2414startListeningEv+0x264>
10000f8e:	0005      	movs	r5, r0
10000f90:	0006      	movs	r6, r0
10000f92:	3531      	adds	r5, #49	; 0x31
10000f94:	3610      	adds	r6, #16
10000f96:	2701      	movs	r7, #1
10000f98:	431f      	orrs	r7, r3
10000f9a:	2359      	movs	r3, #89	; 0x59
10000f9c:	54e7      	strb	r7, [r4, r3]
10000f9e:	68e0      	ldr	r0, [r4, #12]
10000fa0:	f000 ffa8 	bl	10001ef4 <_ZN3SPI16beginTransactionEm>
10000fa4:	2100      	movs	r1, #0
10000fa6:	8960      	ldrh	r0, [r4, #10]
10000fa8:	f000 ff56 	bl	10001e58 <_ZN4GPIO5writeEii>
10000fac:	2100      	movs	r1, #0
10000fae:	6e60      	ldr	r0, [r4, #100]	; 0x64
10000fb0:	f001 fc26 	bl	10002800 <sleep_us>
10000fb4:	2331      	movs	r3, #49	; 0x31
10000fb6:	4699      	mov	r9, r3
10000fb8:	464a      	mov	r2, r9
10000fba:	3b11      	subs	r3, #17
10000fbc:	54a3      	strb	r3, [r4, r2]
10000fbe:	3312      	adds	r3, #18
10000fc0:	54e7      	strb	r7, [r4, r3]
10000fc2:	2752      	movs	r7, #82	; 0x52
10000fc4:	3a2f      	subs	r2, #47	; 0x2f
10000fc6:	0031      	movs	r1, r6
10000fc8:	0028      	movs	r0, r5
10000fca:	4698      	mov	r8, r3
10000fcc:	f000 ff86 	bl	10001edc <_ZN3SPI10transfernbEPKhPhm>
10000fd0:	7c23      	ldrb	r3, [r4, #16]
10000fd2:	2101      	movs	r1, #1
10000fd4:	55e3      	strb	r3, [r4, r7]
10000fd6:	8960      	ldrh	r0, [r4, #10]
10000fd8:	f000 ff3e 	bl	10001e58 <_ZN4GPIO5writeEii>
10000fdc:	2100      	movs	r1, #0
10000fde:	6e60      	ldr	r0, [r4, #100]	; 0x64
10000fe0:	f001 fc0e 	bl	10002800 <sleep_us>
10000fe4:	f000 ff9a 	bl	10001f1c <_ZN3SPI14endTransactionEv>
10000fe8:	68e0      	ldr	r0, [r4, #12]
10000fea:	f000 ff83 	bl	10001ef4 <_ZN3SPI16beginTransactionEm>
10000fee:	2100      	movs	r1, #0
10000ff0:	8960      	ldrh	r0, [r4, #10]
10000ff2:	f000 ff31 	bl	10001e58 <_ZN4GPIO5writeEii>
10000ff6:	2100      	movs	r1, #0
10000ff8:	6e60      	ldr	r0, [r4, #100]	; 0x64
10000ffa:	f001 fc01 	bl	10002800 <sleep_us>
10000ffe:	2327      	movs	r3, #39	; 0x27
10001000:	464a      	mov	r2, r9
10001002:	54a3      	strb	r3, [r4, r2]
10001004:	4642      	mov	r2, r8
10001006:	3349      	adds	r3, #73	; 0x49
10001008:	54a3      	strb	r3, [r4, r2]
1000100a:	0031      	movs	r1, r6
1000100c:	3a30      	subs	r2, #48	; 0x30
1000100e:	0028      	movs	r0, r5
10001010:	f000 ff64 	bl	10001edc <_ZN3SPI10transfernbEPKhPhm>
10001014:	7c23      	ldrb	r3, [r4, #16]
10001016:	2101      	movs	r1, #1
10001018:	55e3      	strb	r3, [r4, r7]
1000101a:	8960      	ldrh	r0, [r4, #10]
1000101c:	f000 ff1c 	bl	10001e58 <_ZN4GPIO5writeEii>
10001020:	6e60      	ldr	r0, [r4, #100]	; 0x64
10001022:	2100      	movs	r1, #0
10001024:	f001 fbec 	bl	10002800 <sleep_us>
10001028:	f000 ff78 	bl	10001f1c <_ZN3SPI14endTransactionEv>
1000102c:	8920      	ldrh	r0, [r4, #8]
1000102e:	8963      	ldrh	r3, [r4, #10]
10001030:	4283      	cmp	r3, r0
10001032:	d002      	beq.n	1000103a <_ZN4RF2414startListeningEv+0xc6>
10001034:	2101      	movs	r1, #1
10001036:	f000 ff0f 	bl	10001e58 <_ZN4GPIO5writeEii>
1000103a:	275b      	movs	r7, #91	; 0x5b
1000103c:	5de3      	ldrb	r3, [r4, r7]
1000103e:	4698      	mov	r8, r3
10001040:	2b00      	cmp	r3, #0
10001042:	d100      	bne.n	10001046 <_ZN4RF2414startListeningEv+0xd2>
10001044:	e074      	b.n	10001130 <_ZN4RF2414startListeningEv+0x1bc>
10001046:	235d      	movs	r3, #93	; 0x5d
10001048:	5ce3      	ldrb	r3, [r4, r3]
1000104a:	68e0      	ldr	r0, [r4, #12]
1000104c:	4698      	mov	r8, r3
1000104e:	f000 ff51 	bl	10001ef4 <_ZN3SPI16beginTransactionEm>
10001052:	2100      	movs	r1, #0
10001054:	8960      	ldrh	r0, [r4, #10]
10001056:	f000 feff 	bl	10001e58 <_ZN4GPIO5writeEii>
1000105a:	2300      	movs	r3, #0
1000105c:	2100      	movs	r1, #0
1000105e:	6e60      	ldr	r0, [r4, #100]	; 0x64
10001060:	4699      	mov	r9, r3
10001062:	f001 fbcd 	bl	10002800 <sleep_us>
10001066:	4643      	mov	r3, r8
10001068:	1c5a      	adds	r2, r3, #1
1000106a:	b2d3      	uxtb	r3, r2
1000106c:	212a      	movs	r1, #42	; 0x2a
1000106e:	2231      	movs	r2, #49	; 0x31
10001070:	54a1      	strb	r1, [r4, r2]
10001072:	4642      	mov	r2, r8
10001074:	1e50      	subs	r0, r2, #1
10001076:	b2c2      	uxtb	r2, r0
10001078:	0027      	movs	r7, r4
1000107a:	469c      	mov	ip, r3
1000107c:	4693      	mov	fp, r2
1000107e:	0023      	movs	r3, r4
10001080:	4642      	mov	r2, r8
10001082:	3754      	adds	r7, #84	; 0x54
10001084:	3332      	adds	r3, #50	; 0x32
10001086:	2a00      	cmp	r2, #0
10001088:	d039      	beq.n	100010fe <_ZN4RF2414startListeningEv+0x18a>
1000108a:	0022      	movs	r2, r4
1000108c:	4649      	mov	r1, r9
1000108e:	3258      	adds	r2, #88	; 0x58
10001090:	4293      	cmp	r3, r2
10001092:	4149      	adcs	r1, r1
10001094:	000a      	movs	r2, r1
10001096:	0021      	movs	r1, r4
10001098:	4648      	mov	r0, r9
1000109a:	3136      	adds	r1, #54	; 0x36
1000109c:	428f      	cmp	r7, r1
1000109e:	4140      	adcs	r0, r0
100010a0:	0001      	movs	r1, r0
100010a2:	4311      	orrs	r1, r2
100010a4:	2208      	movs	r2, #8
100010a6:	455a      	cmp	r2, fp
100010a8:	4192      	sbcs	r2, r2
100010aa:	4252      	negs	r2, r2
100010ac:	420a      	tst	r2, r1
100010ae:	d100      	bne.n	100010b2 <_ZN4RF2414startListeningEv+0x13e>
100010b0:	e0c2      	b.n	10001238 <_ZN4RF2414startListeningEv+0x2c4>
100010b2:	001a      	movs	r2, r3
100010b4:	433a      	orrs	r2, r7
100010b6:	0792      	lsls	r2, r2, #30
100010b8:	d000      	beq.n	100010bc <_ZN4RF2414startListeningEv+0x148>
100010ba:	e0bd      	b.n	10001238 <_ZN4RF2414startListeningEv+0x2c4>
100010bc:	4642      	mov	r2, r8
100010be:	0892      	lsrs	r2, r2, #2
100010c0:	4692      	mov	sl, r2
100010c2:	2100      	movs	r1, #0
100010c4:	2200      	movs	r2, #0
100010c6:	5878      	ldr	r0, [r7, r1]
100010c8:	3201      	adds	r2, #1
100010ca:	5058      	str	r0, [r3, r1]
100010cc:	b2d0      	uxtb	r0, r2
100010ce:	3104      	adds	r1, #4
100010d0:	4582      	cmp	sl, r0
100010d2:	d8f8      	bhi.n	100010c6 <_ZN4RF2414startListeningEv+0x152>
100010d4:	2203      	movs	r2, #3
100010d6:	4641      	mov	r1, r8
100010d8:	4391      	bics	r1, r2
100010da:	000a      	movs	r2, r1
100010dc:	4659      	mov	r1, fp
100010de:	1a88      	subs	r0, r1, r2
100010e0:	b2c0      	uxtb	r0, r0
100010e2:	18bf      	adds	r7, r7, r2
100010e4:	189b      	adds	r3, r3, r2
100010e6:	4590      	cmp	r8, r2
100010e8:	d009      	beq.n	100010fe <_ZN4RF2414startListeningEv+0x18a>
100010ea:	783a      	ldrb	r2, [r7, #0]
100010ec:	701a      	strb	r2, [r3, #0]
100010ee:	2800      	cmp	r0, #0
100010f0:	d005      	beq.n	100010fe <_ZN4RF2414startListeningEv+0x18a>
100010f2:	787a      	ldrb	r2, [r7, #1]
100010f4:	705a      	strb	r2, [r3, #1]
100010f6:	2801      	cmp	r0, #1
100010f8:	d001      	beq.n	100010fe <_ZN4RF2414startListeningEv+0x18a>
100010fa:	78ba      	ldrb	r2, [r7, #2]
100010fc:	709a      	strb	r2, [r3, #2]
100010fe:	4662      	mov	r2, ip
10001100:	0031      	movs	r1, r6
10001102:	0028      	movs	r0, r5
10001104:	f000 feea 	bl	10001edc <_ZN3SPI10transfernbEPKhPhm>
10001108:	2352      	movs	r3, #82	; 0x52
1000110a:	7c22      	ldrb	r2, [r4, #16]
1000110c:	2101      	movs	r1, #1
1000110e:	54e2      	strb	r2, [r4, r3]
10001110:	8960      	ldrh	r0, [r4, #10]
10001112:	f000 fea1 	bl	10001e58 <_ZN4GPIO5writeEii>
10001116:	2100      	movs	r1, #0
10001118:	6e60      	ldr	r0, [r4, #100]	; 0x64
1000111a:	f001 fb71 	bl	10002800 <sleep_us>
1000111e:	f000 fefd 	bl	10001f1c <_ZN3SPI14endTransactionEv>
10001122:	b003      	add	sp, #12
10001124:	bc3c      	pop	{r2, r3, r4, r5}
10001126:	4690      	mov	r8, r2
10001128:	4699      	mov	r9, r3
1000112a:	46a2      	mov	sl, r4
1000112c:	46ab      	mov	fp, r5
1000112e:	bdf0      	pop	{r4, r5, r6, r7, pc}
10001130:	68e0      	ldr	r0, [r4, #12]
10001132:	f000 fedf 	bl	10001ef4 <_ZN3SPI16beginTransactionEm>
10001136:	2100      	movs	r1, #0
10001138:	8960      	ldrh	r0, [r4, #10]
1000113a:	f000 fe8d 	bl	10001e58 <_ZN4GPIO5writeEii>
1000113e:	2100      	movs	r1, #0
10001140:	6e60      	ldr	r0, [r4, #100]	; 0x64
10001142:	f001 fb5d 	bl	10002800 <sleep_us>
10001146:	2331      	movs	r3, #49	; 0x31
10001148:	469b      	mov	fp, r3
1000114a:	465a      	mov	r2, fp
1000114c:	3b2f      	subs	r3, #47	; 0x2f
1000114e:	54a3      	strb	r3, [r4, r2]
10001150:	3330      	adds	r3, #48	; 0x30
10001152:	469a      	mov	sl, r3
10001154:	4652      	mov	r2, sl
10001156:	33cd      	adds	r3, #205	; 0xcd
10001158:	54a3      	strb	r3, [r4, r2]
1000115a:	0031      	movs	r1, r6
1000115c:	0028      	movs	r0, r5
1000115e:	3a30      	subs	r2, #48	; 0x30
10001160:	f000 febc 	bl	10001edc <_ZN3SPI10transfernbEPKhPhm>
10001164:	2352      	movs	r3, #82	; 0x52
10001166:	4699      	mov	r9, r3
10001168:	464a      	mov	r2, r9
1000116a:	7c23      	ldrb	r3, [r4, #16]
1000116c:	2101      	movs	r1, #1
1000116e:	54a3      	strb	r3, [r4, r2]
10001170:	7c63      	ldrb	r3, [r4, #17]
10001172:	8960      	ldrh	r0, [r4, #10]
10001174:	9301      	str	r3, [sp, #4]
10001176:	f000 fe6f 	bl	10001e58 <_ZN4GPIO5writeEii>
1000117a:	2100      	movs	r1, #0
1000117c:	6e60      	ldr	r0, [r4, #100]	; 0x64
1000117e:	f001 fb3f 	bl	10002800 <sleep_us>
10001182:	f000 fecb 	bl	10001f1c <_ZN3SPI14endTransactionEv>
10001186:	68e0      	ldr	r0, [r4, #12]
10001188:	f000 feb4 	bl	10001ef4 <_ZN3SPI16beginTransactionEm>
1000118c:	2100      	movs	r1, #0
1000118e:	8960      	ldrh	r0, [r4, #10]
10001190:	f000 fe62 	bl	10001e58 <_ZN4GPIO5writeEii>
10001194:	2100      	movs	r1, #0
10001196:	6e60      	ldr	r0, [r4, #100]	; 0x64
10001198:	f001 fb32 	bl	10002800 <sleep_us>
1000119c:	2322      	movs	r3, #34	; 0x22
1000119e:	4659      	mov	r1, fp
100011a0:	9a01      	ldr	r2, [sp, #4]
100011a2:	5463      	strb	r3, [r4, r1]
100011a4:	3b21      	subs	r3, #33	; 0x21
100011a6:	439a      	bics	r2, r3
100011a8:	0013      	movs	r3, r2
100011aa:	4652      	mov	r2, sl
100011ac:	0031      	movs	r1, r6
100011ae:	54a3      	strb	r3, [r4, r2]
100011b0:	0028      	movs	r0, r5
100011b2:	3a30      	subs	r2, #48	; 0x30
100011b4:	f000 fe92 	bl	10001edc <_ZN3SPI10transfernbEPKhPhm>
100011b8:	464a      	mov	r2, r9
100011ba:	7c23      	ldrb	r3, [r4, #16]
100011bc:	2101      	movs	r1, #1
100011be:	54a3      	strb	r3, [r4, r2]
100011c0:	8960      	ldrh	r0, [r4, #10]
100011c2:	f000 fe49 	bl	10001e58 <_ZN4GPIO5writeEii>
100011c6:	2100      	movs	r1, #0
100011c8:	6e60      	ldr	r0, [r4, #100]	; 0x64
100011ca:	f001 fb19 	bl	10002800 <sleep_us>
100011ce:	f000 fea5 	bl	10001f1c <_ZN3SPI14endTransactionEv>
100011d2:	4643      	mov	r3, r8
100011d4:	55e3      	strb	r3, [r4, r7]
100011d6:	e7a4      	b.n	10001122 <_ZN4RF2414startListeningEv+0x1ae>
100011d8:	2602      	movs	r6, #2
100011da:	431e      	orrs	r6, r3
100011dc:	b2f6      	uxtb	r6, r6
100011de:	55c6      	strb	r6, [r0, r7]
100011e0:	68c0      	ldr	r0, [r0, #12]
100011e2:	f000 fe87 	bl	10001ef4 <_ZN3SPI16beginTransactionEm>
100011e6:	2100      	movs	r1, #0
100011e8:	8960      	ldrh	r0, [r4, #10]
100011ea:	f000 fe35 	bl	10001e58 <_ZN4GPIO5writeEii>
100011ee:	2100      	movs	r1, #0
100011f0:	6e60      	ldr	r0, [r4, #100]	; 0x64
100011f2:	f001 fb05 	bl	10002800 <sleep_us>
100011f6:	2331      	movs	r3, #49	; 0x31
100011f8:	2220      	movs	r2, #32
100011fa:	54e2      	strb	r2, [r4, r3]
100011fc:	3301      	adds	r3, #1
100011fe:	54e6      	strb	r6, [r4, r3]
10001200:	0025      	movs	r5, r4
10001202:	0026      	movs	r6, r4
10001204:	3531      	adds	r5, #49	; 0x31
10001206:	3610      	adds	r6, #16
10001208:	0031      	movs	r1, r6
1000120a:	0028      	movs	r0, r5
1000120c:	3a1e      	subs	r2, #30
1000120e:	f000 fe65 	bl	10001edc <_ZN3SPI10transfernbEPKhPhm>
10001212:	2352      	movs	r3, #82	; 0x52
10001214:	7c22      	ldrb	r2, [r4, #16]
10001216:	2101      	movs	r1, #1
10001218:	54e2      	strb	r2, [r4, r3]
1000121a:	8960      	ldrh	r0, [r4, #10]
1000121c:	f000 fe1c 	bl	10001e58 <_ZN4GPIO5writeEii>
10001220:	2100      	movs	r1, #0
10001222:	6e60      	ldr	r0, [r4, #100]	; 0x64
10001224:	f001 faec 	bl	10002800 <sleep_us>
10001228:	f000 fe78 	bl	10001f1c <_ZN3SPI14endTransactionEv>
1000122c:	2100      	movs	r1, #0
1000122e:	4806      	ldr	r0, [pc, #24]	; (10001248 <_ZN4RF2414startListeningEv+0x2d4>)
10001230:	f001 fae6 	bl	10002800 <sleep_us>
10001234:	5de3      	ldrb	r3, [r4, r7]
10001236:	e6ae      	b.n	10000f96 <_ZN4RF2414startListeningEv+0x22>
10001238:	2100      	movs	r1, #0
1000123a:	5c7a      	ldrb	r2, [r7, r1]
1000123c:	545a      	strb	r2, [r3, r1]
1000123e:	3101      	adds	r1, #1
10001240:	b2ca      	uxtb	r2, r1
10001242:	4590      	cmp	r8, r2
10001244:	d1f9      	bne.n	1000123a <_ZN4RF2414startListeningEv+0x2c6>
10001246:	e75a      	b.n	100010fe <_ZN4RF2414startListeningEv+0x18a>
10001248:	00001388 	.word	0x00001388

1000124c <_ZN4RF2413stopListeningEv>:
1000124c:	b5f0      	push	{r4, r5, r6, r7, lr}
1000124e:	46d6      	mov	lr, sl
10001250:	464f      	mov	r7, r9
10001252:	4646      	mov	r6, r8
10001254:	0004      	movs	r4, r0
10001256:	b5c0      	push	{r6, r7, lr}
10001258:	8963      	ldrh	r3, [r4, #10]
1000125a:	8900      	ldrh	r0, [r0, #8]
1000125c:	4283      	cmp	r3, r0
1000125e:	d002      	beq.n	10001266 <_ZN4RF2413stopListeningEv+0x1a>
10001260:	2100      	movs	r1, #0
10001262:	f000 fdf9 	bl	10001e58 <_ZN4GPIO5writeEii>
10001266:	6e23      	ldr	r3, [r4, #96]	; 0x60
10001268:	0018      	movs	r0, r3
1000126a:	17d9      	asrs	r1, r3, #31
1000126c:	f001 fac8 	bl	10002800 <sleep_us>
10001270:	235c      	movs	r3, #92	; 0x5c
10001272:	5ce3      	ldrb	r3, [r4, r3]
10001274:	2b00      	cmp	r3, #0
10001276:	d000      	beq.n	1000127a <_ZN4RF2413stopListeningEv+0x2e>
10001278:	e07a      	b.n	10001370 <_ZN4RF2413stopListeningEv+0x124>
1000127a:	2359      	movs	r3, #89	; 0x59
1000127c:	2201      	movs	r2, #1
1000127e:	5ce5      	ldrb	r5, [r4, r3]
10001280:	0026      	movs	r6, r4
10001282:	4395      	bics	r5, r2
10001284:	54e5      	strb	r5, [r4, r3]
10001286:	68e0      	ldr	r0, [r4, #12]
10001288:	f000 fe34 	bl	10001ef4 <_ZN3SPI16beginTransactionEm>
1000128c:	2100      	movs	r1, #0
1000128e:	8960      	ldrh	r0, [r4, #10]
10001290:	f000 fde2 	bl	10001e58 <_ZN4GPIO5writeEii>
10001294:	2100      	movs	r1, #0
10001296:	6e60      	ldr	r0, [r4, #100]	; 0x64
10001298:	f001 fab2 	bl	10002800 <sleep_us>
1000129c:	2331      	movs	r3, #49	; 0x31
1000129e:	469a      	mov	sl, r3
100012a0:	4652      	mov	r2, sl
100012a2:	0027      	movs	r7, r4
100012a4:	3b11      	subs	r3, #17
100012a6:	54a3      	strb	r3, [r4, r2]
100012a8:	3312      	adds	r3, #18
100012aa:	54e5      	strb	r5, [r4, r3]
100012ac:	2552      	movs	r5, #82	; 0x52
100012ae:	3631      	adds	r6, #49	; 0x31
100012b0:	3710      	adds	r7, #16
100012b2:	3a2f      	subs	r2, #47	; 0x2f
100012b4:	0039      	movs	r1, r7
100012b6:	0030      	movs	r0, r6
100012b8:	4698      	mov	r8, r3
100012ba:	f000 fe0f 	bl	10001edc <_ZN3SPI10transfernbEPKhPhm>
100012be:	7c23      	ldrb	r3, [r4, #16]
100012c0:	2101      	movs	r1, #1
100012c2:	5563      	strb	r3, [r4, r5]
100012c4:	8960      	ldrh	r0, [r4, #10]
100012c6:	f000 fdc7 	bl	10001e58 <_ZN4GPIO5writeEii>
100012ca:	2100      	movs	r1, #0
100012cc:	6e60      	ldr	r0, [r4, #100]	; 0x64
100012ce:	f001 fa97 	bl	10002800 <sleep_us>
100012d2:	f000 fe23 	bl	10001f1c <_ZN3SPI14endTransactionEv>
100012d6:	68e0      	ldr	r0, [r4, #12]
100012d8:	f000 fe0c 	bl	10001ef4 <_ZN3SPI16beginTransactionEm>
100012dc:	2100      	movs	r1, #0
100012de:	8960      	ldrh	r0, [r4, #10]
100012e0:	f000 fdba 	bl	10001e58 <_ZN4GPIO5writeEii>
100012e4:	2100      	movs	r1, #0
100012e6:	6e60      	ldr	r0, [r4, #100]	; 0x64
100012e8:	f001 fa8a 	bl	10002800 <sleep_us>
100012ec:	4652      	mov	r2, sl
100012ee:	2302      	movs	r3, #2
100012f0:	54a3      	strb	r3, [r4, r2]
100012f2:	4642      	mov	r2, r8
100012f4:	33fd      	adds	r3, #253	; 0xfd
100012f6:	0039      	movs	r1, r7
100012f8:	0030      	movs	r0, r6
100012fa:	54a3      	strb	r3, [r4, r2]
100012fc:	3a30      	subs	r2, #48	; 0x30
100012fe:	f000 fded 	bl	10001edc <_ZN3SPI10transfernbEPKhPhm>
10001302:	7c23      	ldrb	r3, [r4, #16]
10001304:	2101      	movs	r1, #1
10001306:	5563      	strb	r3, [r4, r5]
10001308:	7c63      	ldrb	r3, [r4, #17]
1000130a:	8960      	ldrh	r0, [r4, #10]
1000130c:	4699      	mov	r9, r3
1000130e:	f000 fda3 	bl	10001e58 <_ZN4GPIO5writeEii>
10001312:	2100      	movs	r1, #0
10001314:	6e60      	ldr	r0, [r4, #100]	; 0x64
10001316:	f001 fa73 	bl	10002800 <sleep_us>
1000131a:	f000 fdff 	bl	10001f1c <_ZN3SPI14endTransactionEv>
1000131e:	68e0      	ldr	r0, [r4, #12]
10001320:	f000 fde8 	bl	10001ef4 <_ZN3SPI16beginTransactionEm>
10001324:	2100      	movs	r1, #0
10001326:	8960      	ldrh	r0, [r4, #10]
10001328:	f000 fd96 	bl	10001e58 <_ZN4GPIO5writeEii>
1000132c:	2100      	movs	r1, #0
1000132e:	6e60      	ldr	r0, [r4, #100]	; 0x64
10001330:	f001 fa66 	bl	10002800 <sleep_us>
10001334:	4652      	mov	r2, sl
10001336:	2322      	movs	r3, #34	; 0x22
10001338:	54a3      	strb	r3, [r4, r2]
1000133a:	464a      	mov	r2, r9
1000133c:	2301      	movs	r3, #1
1000133e:	4313      	orrs	r3, r2
10001340:	4642      	mov	r2, r8
10001342:	0039      	movs	r1, r7
10001344:	0030      	movs	r0, r6
10001346:	54a3      	strb	r3, [r4, r2]
10001348:	3a30      	subs	r2, #48	; 0x30
1000134a:	f000 fdc7 	bl	10001edc <_ZN3SPI10transfernbEPKhPhm>
1000134e:	7c23      	ldrb	r3, [r4, #16]
10001350:	2101      	movs	r1, #1
10001352:	5563      	strb	r3, [r4, r5]
10001354:	8960      	ldrh	r0, [r4, #10]
10001356:	f000 fd7f 	bl	10001e58 <_ZN4GPIO5writeEii>
1000135a:	2100      	movs	r1, #0
1000135c:	6e60      	ldr	r0, [r4, #100]	; 0x64
1000135e:	f001 fa4f 	bl	10002800 <sleep_us>
10001362:	f000 fddb 	bl	10001f1c <_ZN3SPI14endTransactionEv>
10001366:	bc1c      	pop	{r2, r3, r4}
10001368:	4690      	mov	r8, r2
1000136a:	4699      	mov	r9, r3
1000136c:	46a2      	mov	sl, r4
1000136e:	bdf0      	pop	{r4, r5, r6, r7, pc}
10001370:	68e0      	ldr	r0, [r4, #12]
10001372:	f000 fdbf 	bl	10001ef4 <_ZN3SPI16beginTransactionEm>
10001376:	8960      	ldrh	r0, [r4, #10]
10001378:	2100      	movs	r1, #0
1000137a:	f000 fd6d 	bl	10001e58 <_ZN4GPIO5writeEii>
1000137e:	2100      	movs	r1, #0
10001380:	6e60      	ldr	r0, [r4, #100]	; 0x64
10001382:	f001 fa3d 	bl	10002800 <sleep_us>
10001386:	20e1      	movs	r0, #225	; 0xe1
10001388:	f000 fd92 	bl	10001eb0 <_ZN3SPI8transferEh>
1000138c:	2352      	movs	r3, #82	; 0x52
1000138e:	54e0      	strb	r0, [r4, r3]
10001390:	8960      	ldrh	r0, [r4, #10]
10001392:	2101      	movs	r1, #1
10001394:	f000 fd60 	bl	10001e58 <_ZN4GPIO5writeEii>
10001398:	2100      	movs	r1, #0
1000139a:	6e60      	ldr	r0, [r4, #100]	; 0x64
1000139c:	f001 fa30 	bl	10002800 <sleep_us>
100013a0:	f000 fdbc 	bl	10001f1c <_ZN3SPI14endTransactionEv>
100013a4:	e769      	b.n	1000127a <_ZN4RF2413stopListeningEv+0x2e>
100013a6:	46c0      	nop			; (mov r8, r8)

100013a8 <_ZN4RF249powerDownEv>:
100013a8:	b570      	push	{r4, r5, r6, lr}
100013aa:	0004      	movs	r4, r0
100013ac:	8900      	ldrh	r0, [r0, #8]
100013ae:	8963      	ldrh	r3, [r4, #10]
100013b0:	4283      	cmp	r3, r0
100013b2:	d002      	beq.n	100013ba <_ZN4RF249powerDownEv+0x12>
100013b4:	2100      	movs	r1, #0
100013b6:	f000 fd4f 	bl	10001e58 <_ZN4GPIO5writeEii>
100013ba:	2359      	movs	r3, #89	; 0x59
100013bc:	2202      	movs	r2, #2
100013be:	5ce5      	ldrb	r5, [r4, r3]
100013c0:	4395      	bics	r5, r2
100013c2:	54e5      	strb	r5, [r4, r3]
100013c4:	68e0      	ldr	r0, [r4, #12]
100013c6:	f000 fd95 	bl	10001ef4 <_ZN3SPI16beginTransactionEm>
100013ca:	8960      	ldrh	r0, [r4, #10]
100013cc:	2100      	movs	r1, #0
100013ce:	f000 fd43 	bl	10001e58 <_ZN4GPIO5writeEii>
100013d2:	6e60      	ldr	r0, [r4, #100]	; 0x64
100013d4:	2100      	movs	r1, #0
100013d6:	f001 fa13 	bl	10002800 <sleep_us>
100013da:	2331      	movs	r3, #49	; 0x31
100013dc:	2220      	movs	r2, #32
100013de:	0021      	movs	r1, r4
100013e0:	0020      	movs	r0, r4
100013e2:	54e2      	strb	r2, [r4, r3]
100013e4:	3301      	adds	r3, #1
100013e6:	54e5      	strb	r5, [r4, r3]
100013e8:	3110      	adds	r1, #16
100013ea:	3031      	adds	r0, #49	; 0x31
100013ec:	3a1e      	subs	r2, #30
100013ee:	f000 fd75 	bl	10001edc <_ZN3SPI10transfernbEPKhPhm>
100013f2:	2352      	movs	r3, #82	; 0x52
100013f4:	7c22      	ldrb	r2, [r4, #16]
100013f6:	2101      	movs	r1, #1
100013f8:	54e2      	strb	r2, [r4, r3]
100013fa:	8960      	ldrh	r0, [r4, #10]
100013fc:	f000 fd2c 	bl	10001e58 <_ZN4GPIO5writeEii>
10001400:	2100      	movs	r1, #0
10001402:	6e60      	ldr	r0, [r4, #100]	; 0x64
10001404:	f001 f9fc 	bl	10002800 <sleep_us>
10001408:	f000 fd88 	bl	10001f1c <_ZN3SPI14endTransactionEv>
1000140c:	bd70      	pop	{r4, r5, r6, pc}
1000140e:	46c0      	nop			; (mov r8, r8)

10001410 <_ZN4RF245writeEPKvhb>:
10001410:	b570      	push	{r4, r5, r6, lr}
10001412:	0004      	movs	r4, r0
10001414:	1e58      	subs	r0, r3, #1
10001416:	4183      	sbcs	r3, r0
10001418:	4258      	negs	r0, r3
1000141a:	2310      	movs	r3, #16
1000141c:	4003      	ands	r3, r0
1000141e:	33a0      	adds	r3, #160	; 0xa0
10001420:	0020      	movs	r0, r4
10001422:	f7ff f921 	bl	10000668 <_ZN4RF2413write_payloadEPKvhh>
10001426:	8920      	ldrh	r0, [r4, #8]
10001428:	8963      	ldrh	r3, [r4, #10]
1000142a:	4283      	cmp	r3, r0
1000142c:	d002      	beq.n	10001434 <_ZN4RF245writeEPKvhb+0x24>
1000142e:	2101      	movs	r1, #1
10001430:	f000 fd12 	bl	10001e58 <_ZN4GPIO5writeEii>
10001434:	f001 faea 	bl	10002a0c <time_us_64>
10001438:	2900      	cmp	r1, #0
1000143a:	d100      	bne.n	1000143e <_ZN4RF245writeEPKvhb+0x2e>
1000143c:	e084      	b.n	10001548 <_ZN4RF245writeEPKvhb+0x138>
1000143e:	22fa      	movs	r2, #250	; 0xfa
10001440:	2300      	movs	r3, #0
10001442:	0092      	lsls	r2, r2, #2
10001444:	f003 fe62 	bl	1000510c <__wrap___aeabi_uldivmod>
10001448:	0006      	movs	r6, r0
1000144a:	2552      	movs	r5, #82	; 0x52
1000144c:	68e0      	ldr	r0, [r4, #12]
1000144e:	f000 fd51 	bl	10001ef4 <_ZN3SPI16beginTransactionEm>
10001452:	2100      	movs	r1, #0
10001454:	8960      	ldrh	r0, [r4, #10]
10001456:	f000 fcff 	bl	10001e58 <_ZN4GPIO5writeEii>
1000145a:	2100      	movs	r1, #0
1000145c:	6e60      	ldr	r0, [r4, #100]	; 0x64
1000145e:	f001 f9cf 	bl	10002800 <sleep_us>
10001462:	20ff      	movs	r0, #255	; 0xff
10001464:	f000 fd24 	bl	10001eb0 <_ZN3SPI8transferEh>
10001468:	5560      	strb	r0, [r4, r5]
1000146a:	2101      	movs	r1, #1
1000146c:	8960      	ldrh	r0, [r4, #10]
1000146e:	f000 fcf3 	bl	10001e58 <_ZN4GPIO5writeEii>
10001472:	2100      	movs	r1, #0
10001474:	6e60      	ldr	r0, [r4, #100]	; 0x64
10001476:	f001 f9c3 	bl	10002800 <sleep_us>
1000147a:	f000 fd4f 	bl	10001f1c <_ZN3SPI14endTransactionEv>
1000147e:	2230      	movs	r2, #48	; 0x30
10001480:	5d63      	ldrb	r3, [r4, r5]
10001482:	421a      	tst	r2, r3
10001484:	d118      	bne.n	100014b8 <_ZN4RF245writeEPKvhb+0xa8>
10001486:	f001 fac1 	bl	10002a0c <time_us_64>
1000148a:	2900      	cmp	r1, #0
1000148c:	d00c      	beq.n	100014a8 <_ZN4RF245writeEPKvhb+0x98>
1000148e:	22fa      	movs	r2, #250	; 0xfa
10001490:	2300      	movs	r3, #0
10001492:	0092      	lsls	r2, r2, #2
10001494:	f003 fe3a 	bl	1000510c <__wrap___aeabi_uldivmod>
10001498:	1b80      	subs	r0, r0, r6
1000149a:	285f      	cmp	r0, #95	; 0x5f
1000149c:	d9d6      	bls.n	1000144c <_ZN4RF245writeEPKvhb+0x3c>
1000149e:	235f      	movs	r3, #95	; 0x5f
100014a0:	2201      	movs	r2, #1
100014a2:	2000      	movs	r0, #0
100014a4:	54e2      	strb	r2, [r4, r3]
100014a6:	bd70      	pop	{r4, r5, r6, pc}
100014a8:	21fa      	movs	r1, #250	; 0xfa
100014aa:	0089      	lsls	r1, r1, #2
100014ac:	f003 fdec 	bl	10005088 <__wrap___aeabi_uidiv>
100014b0:	1b80      	subs	r0, r0, r6
100014b2:	285f      	cmp	r0, #95	; 0x5f
100014b4:	d9ca      	bls.n	1000144c <_ZN4RF245writeEPKvhb+0x3c>
100014b6:	e7f2      	b.n	1000149e <_ZN4RF245writeEPKvhb+0x8e>
100014b8:	8920      	ldrh	r0, [r4, #8]
100014ba:	8963      	ldrh	r3, [r4, #10]
100014bc:	4283      	cmp	r3, r0
100014be:	d149      	bne.n	10001554 <_ZN4RF245writeEPKvhb+0x144>
100014c0:	68e0      	ldr	r0, [r4, #12]
100014c2:	f000 fd17 	bl	10001ef4 <_ZN3SPI16beginTransactionEm>
100014c6:	2100      	movs	r1, #0
100014c8:	8960      	ldrh	r0, [r4, #10]
100014ca:	f000 fcc5 	bl	10001e58 <_ZN4GPIO5writeEii>
100014ce:	2100      	movs	r1, #0
100014d0:	6e60      	ldr	r0, [r4, #100]	; 0x64
100014d2:	f001 f995 	bl	10002800 <sleep_us>
100014d6:	2331      	movs	r3, #49	; 0x31
100014d8:	2227      	movs	r2, #39	; 0x27
100014da:	0021      	movs	r1, r4
100014dc:	0020      	movs	r0, r4
100014de:	2552      	movs	r5, #82	; 0x52
100014e0:	54e2      	strb	r2, [r4, r3]
100014e2:	3301      	adds	r3, #1
100014e4:	3249      	adds	r2, #73	; 0x49
100014e6:	54e2      	strb	r2, [r4, r3]
100014e8:	3110      	adds	r1, #16
100014ea:	3a6e      	subs	r2, #110	; 0x6e
100014ec:	3031      	adds	r0, #49	; 0x31
100014ee:	f000 fcf5 	bl	10001edc <_ZN3SPI10transfernbEPKhPhm>
100014f2:	7c23      	ldrb	r3, [r4, #16]
100014f4:	2101      	movs	r1, #1
100014f6:	5563      	strb	r3, [r4, r5]
100014f8:	8960      	ldrh	r0, [r4, #10]
100014fa:	f000 fcad 	bl	10001e58 <_ZN4GPIO5writeEii>
100014fe:	6e60      	ldr	r0, [r4, #100]	; 0x64
10001500:	2100      	movs	r1, #0
10001502:	f001 f97d 	bl	10002800 <sleep_us>
10001506:	f000 fd09 	bl	10001f1c <_ZN3SPI14endTransactionEv>
1000150a:	5d63      	ldrb	r3, [r4, r5]
1000150c:	2001      	movs	r0, #1
1000150e:	06db      	lsls	r3, r3, #27
10001510:	d5c9      	bpl.n	100014a6 <_ZN4RF245writeEPKvhb+0x96>
10001512:	68e0      	ldr	r0, [r4, #12]
10001514:	f000 fcee 	bl	10001ef4 <_ZN3SPI16beginTransactionEm>
10001518:	2100      	movs	r1, #0
1000151a:	8960      	ldrh	r0, [r4, #10]
1000151c:	f000 fc9c 	bl	10001e58 <_ZN4GPIO5writeEii>
10001520:	2100      	movs	r1, #0
10001522:	6e60      	ldr	r0, [r4, #100]	; 0x64
10001524:	f001 f96c 	bl	10002800 <sleep_us>
10001528:	20e1      	movs	r0, #225	; 0xe1
1000152a:	f000 fcc1 	bl	10001eb0 <_ZN3SPI8transferEh>
1000152e:	5560      	strb	r0, [r4, r5]
10001530:	2101      	movs	r1, #1
10001532:	8960      	ldrh	r0, [r4, #10]
10001534:	f000 fc90 	bl	10001e58 <_ZN4GPIO5writeEii>
10001538:	6e60      	ldr	r0, [r4, #100]	; 0x64
1000153a:	2100      	movs	r1, #0
1000153c:	f001 f960 	bl	10002800 <sleep_us>
10001540:	f000 fcec 	bl	10001f1c <_ZN3SPI14endTransactionEv>
10001544:	2000      	movs	r0, #0
10001546:	e7ae      	b.n	100014a6 <_ZN4RF245writeEPKvhb+0x96>
10001548:	21fa      	movs	r1, #250	; 0xfa
1000154a:	0089      	lsls	r1, r1, #2
1000154c:	f003 fd9c 	bl	10005088 <__wrap___aeabi_uidiv>
10001550:	0006      	movs	r6, r0
10001552:	e77a      	b.n	1000144a <_ZN4RF245writeEPKvhb+0x3a>
10001554:	2100      	movs	r1, #0
10001556:	f000 fc7f 	bl	10001e58 <_ZN4GPIO5writeEii>
1000155a:	e7b1      	b.n	100014c0 <_ZN4RF245writeEPKvhb+0xb0>

1000155c <_ZN4RF245writeEPKvh>:
1000155c:	b510      	push	{r4, lr}
1000155e:	2300      	movs	r3, #0
10001560:	f7ff ff56 	bl	10001410 <_ZN4RF245writeEPKvhb>
10001564:	bd10      	pop	{r4, pc}
10001566:	46c0      	nop			; (mov r8, r8)

10001568 <_ZN4RF2421getDynamicPayloadSizeEv>:
10001568:	b570      	push	{r4, r5, r6, lr}
1000156a:	0004      	movs	r4, r0
1000156c:	68c0      	ldr	r0, [r0, #12]
1000156e:	f000 fcc1 	bl	10001ef4 <_ZN3SPI16beginTransactionEm>
10001572:	2100      	movs	r1, #0
10001574:	8960      	ldrh	r0, [r4, #10]
10001576:	f000 fc6f 	bl	10001e58 <_ZN4GPIO5writeEii>
1000157a:	2100      	movs	r1, #0
1000157c:	6e60      	ldr	r0, [r4, #100]	; 0x64
1000157e:	f001 f93f 	bl	10002800 <sleep_us>
10001582:	2331      	movs	r3, #49	; 0x31
10001584:	2260      	movs	r2, #96	; 0x60
10001586:	0021      	movs	r1, r4
10001588:	0020      	movs	r0, r4
1000158a:	2652      	movs	r6, #82	; 0x52
1000158c:	54e2      	strb	r2, [r4, r3]
1000158e:	3301      	adds	r3, #1
10001590:	329f      	adds	r2, #159	; 0x9f
10001592:	54e2      	strb	r2, [r4, r3]
10001594:	3110      	adds	r1, #16
10001596:	3afd      	subs	r2, #253	; 0xfd
10001598:	3031      	adds	r0, #49	; 0x31
1000159a:	f000 fc9f 	bl	10001edc <_ZN3SPI10transfernbEPKhPhm>
1000159e:	7c23      	ldrb	r3, [r4, #16]
100015a0:	2101      	movs	r1, #1
100015a2:	55a3      	strb	r3, [r4, r6]
100015a4:	7c65      	ldrb	r5, [r4, #17]
100015a6:	8960      	ldrh	r0, [r4, #10]
100015a8:	f000 fc56 	bl	10001e58 <_ZN4GPIO5writeEii>
100015ac:	2100      	movs	r1, #0
100015ae:	6e60      	ldr	r0, [r4, #100]	; 0x64
100015b0:	f001 f926 	bl	10002800 <sleep_us>
100015b4:	f000 fcb2 	bl	10001f1c <_ZN3SPI14endTransactionEv>
100015b8:	2d20      	cmp	r5, #32
100015ba:	d801      	bhi.n	100015c0 <_ZN4RF2421getDynamicPayloadSizeEv+0x58>
100015bc:	0028      	movs	r0, r5
100015be:	bd70      	pop	{r4, r5, r6, pc}
100015c0:	68e0      	ldr	r0, [r4, #12]
100015c2:	f000 fc97 	bl	10001ef4 <_ZN3SPI16beginTransactionEm>
100015c6:	2100      	movs	r1, #0
100015c8:	8960      	ldrh	r0, [r4, #10]
100015ca:	f000 fc45 	bl	10001e58 <_ZN4GPIO5writeEii>
100015ce:	2100      	movs	r1, #0
100015d0:	6e60      	ldr	r0, [r4, #100]	; 0x64
100015d2:	f001 f915 	bl	10002800 <sleep_us>
100015d6:	20e2      	movs	r0, #226	; 0xe2
100015d8:	f000 fc6a 	bl	10001eb0 <_ZN3SPI8transferEh>
100015dc:	55a0      	strb	r0, [r4, r6]
100015de:	2101      	movs	r1, #1
100015e0:	8960      	ldrh	r0, [r4, #10]
100015e2:	f000 fc39 	bl	10001e58 <_ZN4GPIO5writeEii>
100015e6:	2100      	movs	r1, #0
100015e8:	6e60      	ldr	r0, [r4, #100]	; 0x64
100015ea:	f001 f909 	bl	10002800 <sleep_us>
100015ee:	f000 fc95 	bl	10001f1c <_ZN3SPI14endTransactionEv>
100015f2:	2002      	movs	r0, #2
100015f4:	f001 f91c 	bl	10002830 <sleep_ms>
100015f8:	2500      	movs	r5, #0
100015fa:	e7df      	b.n	100015bc <_ZN4RF2421getDynamicPayloadSizeEv+0x54>

100015fc <_ZN4RF249availableEPh>:
100015fc:	b570      	push	{r4, r5, r6, lr}
100015fe:	0004      	movs	r4, r0
10001600:	68c0      	ldr	r0, [r0, #12]
10001602:	000d      	movs	r5, r1
10001604:	f000 fc76 	bl	10001ef4 <_ZN3SPI16beginTransactionEm>
10001608:	2100      	movs	r1, #0
1000160a:	8960      	ldrh	r0, [r4, #10]
1000160c:	f000 fc24 	bl	10001e58 <_ZN4GPIO5writeEii>
10001610:	2100      	movs	r1, #0
10001612:	6e60      	ldr	r0, [r4, #100]	; 0x64
10001614:	f001 f8f4 	bl	10002800 <sleep_us>
10001618:	20ff      	movs	r0, #255	; 0xff
1000161a:	f000 fc49 	bl	10001eb0 <_ZN3SPI8transferEh>
1000161e:	2652      	movs	r6, #82	; 0x52
10001620:	55a0      	strb	r0, [r4, r6]
10001622:	2101      	movs	r1, #1
10001624:	8960      	ldrh	r0, [r4, #10]
10001626:	f000 fc17 	bl	10001e58 <_ZN4GPIO5writeEii>
1000162a:	2100      	movs	r1, #0
1000162c:	6e60      	ldr	r0, [r4, #100]	; 0x64
1000162e:	f001 f8e7 	bl	10002800 <sleep_us>
10001632:	f000 fc73 	bl	10001f1c <_ZN3SPI14endTransactionEv>
10001636:	5da3      	ldrb	r3, [r4, r6]
10001638:	071b      	lsls	r3, r3, #28
1000163a:	0f5b      	lsrs	r3, r3, #29
1000163c:	2b05      	cmp	r3, #5
1000163e:	d804      	bhi.n	1000164a <_ZN4RF249availableEPh+0x4e>
10001640:	2d00      	cmp	r5, #0
10001642:	d004      	beq.n	1000164e <_ZN4RF249availableEPh+0x52>
10001644:	2001      	movs	r0, #1
10001646:	702b      	strb	r3, [r5, #0]
10001648:	bd70      	pop	{r4, r5, r6, pc}
1000164a:	2000      	movs	r0, #0
1000164c:	e7fc      	b.n	10001648 <_ZN4RF249availableEPh+0x4c>
1000164e:	2001      	movs	r0, #1
10001650:	e7fa      	b.n	10001648 <_ZN4RF249availableEPh+0x4c>
10001652:	46c0      	nop			; (mov r8, r8)

10001654 <_ZN4RF244readEPvh>:
10001654:	b510      	push	{r4, lr}
10001656:	0004      	movs	r4, r0
10001658:	f7ff f8b2 	bl	100007c0 <_ZN4RF2412read_payloadEPvh>
1000165c:	68e0      	ldr	r0, [r4, #12]
1000165e:	f000 fc49 	bl	10001ef4 <_ZN3SPI16beginTransactionEm>
10001662:	8960      	ldrh	r0, [r4, #10]
10001664:	2100      	movs	r1, #0
10001666:	f000 fbf7 	bl	10001e58 <_ZN4GPIO5writeEii>
1000166a:	6e60      	ldr	r0, [r4, #100]	; 0x64
1000166c:	2100      	movs	r1, #0
1000166e:	f001 f8c7 	bl	10002800 <sleep_us>
10001672:	2331      	movs	r3, #49	; 0x31
10001674:	2227      	movs	r2, #39	; 0x27
10001676:	0021      	movs	r1, r4
10001678:	0020      	movs	r0, r4
1000167a:	54e2      	strb	r2, [r4, r3]
1000167c:	3301      	adds	r3, #1
1000167e:	3219      	adds	r2, #25
10001680:	54e2      	strb	r2, [r4, r3]
10001682:	3110      	adds	r1, #16
10001684:	3031      	adds	r0, #49	; 0x31
10001686:	3a3e      	subs	r2, #62	; 0x3e
10001688:	f000 fc28 	bl	10001edc <_ZN3SPI10transfernbEPKhPhm>
1000168c:	2352      	movs	r3, #82	; 0x52
1000168e:	7c22      	ldrb	r2, [r4, #16]
10001690:	2101      	movs	r1, #1
10001692:	54e2      	strb	r2, [r4, r3]
10001694:	8960      	ldrh	r0, [r4, #10]
10001696:	f000 fbdf 	bl	10001e58 <_ZN4GPIO5writeEii>
1000169a:	2100      	movs	r1, #0
1000169c:	6e60      	ldr	r0, [r4, #100]	; 0x64
1000169e:	f001 f8af 	bl	10002800 <sleep_us>
100016a2:	f000 fc3b 	bl	10001f1c <_ZN3SPI14endTransactionEv>
100016a6:	bd10      	pop	{r4, pc}

100016a8 <_ZN4RF2415openWritingPipeEPKh>:
100016a8:	b5f0      	push	{r4, r5, r6, r7, lr}
100016aa:	46d6      	mov	lr, sl
100016ac:	4646      	mov	r6, r8
100016ae:	464f      	mov	r7, r9
100016b0:	235d      	movs	r3, #93	; 0x5d
100016b2:	0004      	movs	r4, r0
100016b4:	b5c0      	push	{r6, r7, lr}
100016b6:	5cc7      	ldrb	r7, [r0, r3]
100016b8:	68c0      	ldr	r0, [r0, #12]
100016ba:	000d      	movs	r5, r1
100016bc:	f000 fc1a 	bl	10001ef4 <_ZN3SPI16beginTransactionEm>
100016c0:	2100      	movs	r1, #0
100016c2:	8960      	ldrh	r0, [r4, #10]
100016c4:	f000 fbc8 	bl	10001e58 <_ZN4GPIO5writeEii>
100016c8:	2100      	movs	r1, #0
100016ca:	6e60      	ldr	r0, [r4, #100]	; 0x64
100016cc:	f001 f898 	bl	10002800 <sleep_us>
100016d0:	2331      	movs	r3, #49	; 0x31
100016d2:	1c7a      	adds	r2, r7, #1
100016d4:	4698      	mov	r8, r3
100016d6:	b2d3      	uxtb	r3, r2
100016d8:	469a      	mov	sl, r3
100016da:	212a      	movs	r1, #42	; 0x2a
100016dc:	2331      	movs	r3, #49	; 0x31
100016de:	0026      	movs	r6, r4
100016e0:	54e1      	strb	r1, [r4, r3]
100016e2:	1e7b      	subs	r3, r7, #1
100016e4:	44a0      	add	r8, r4
100016e6:	3632      	adds	r6, #50	; 0x32
100016e8:	b2db      	uxtb	r3, r3
100016ea:	2f00      	cmp	r7, #0
100016ec:	d031      	beq.n	10001752 <_ZN4RF2415openWritingPipeEPKh+0xaa>
100016ee:	0028      	movs	r0, r5
100016f0:	3927      	subs	r1, #39	; 0x27
100016f2:	4330      	orrs	r0, r6
100016f4:	4001      	ands	r1, r0
100016f6:	0020      	movs	r0, r4
100016f8:	424a      	negs	r2, r1
100016fa:	414a      	adcs	r2, r1
100016fc:	2106      	movs	r1, #6
100016fe:	3035      	adds	r0, #53	; 0x35
10001700:	1b40      	subs	r0, r0, r5
10001702:	4281      	cmp	r1, r0
10001704:	4189      	sbcs	r1, r1
10001706:	4249      	negs	r1, r1
10001708:	4211      	tst	r1, r2
1000170a:	d100      	bne.n	1000170e <_ZN4RF2415openWritingPipeEPKh+0x66>
1000170c:	e09b      	b.n	10001846 <_ZN4RF2415openWritingPipeEPKh+0x19e>
1000170e:	2b08      	cmp	r3, #8
10001710:	d800      	bhi.n	10001714 <_ZN4RF2415openWritingPipeEPKh+0x6c>
10001712:	e098      	b.n	10001846 <_ZN4RF2415openWritingPipeEPKh+0x19e>
10001714:	08ba      	lsrs	r2, r7, #2
10001716:	4694      	mov	ip, r2
10001718:	2100      	movs	r1, #0
1000171a:	2000      	movs	r0, #0
1000171c:	582a      	ldr	r2, [r5, r0]
1000171e:	3101      	adds	r1, #1
10001720:	b2c9      	uxtb	r1, r1
10001722:	5032      	str	r2, [r6, r0]
10001724:	3004      	adds	r0, #4
10001726:	458c      	cmp	ip, r1
10001728:	d1f8      	bne.n	1000171c <_ZN4RF2415openWritingPipeEPKh+0x74>
1000172a:	2103      	movs	r1, #3
1000172c:	0038      	movs	r0, r7
1000172e:	4388      	bics	r0, r1
10001730:	1a1b      	subs	r3, r3, r0
10001732:	0001      	movs	r1, r0
10001734:	182a      	adds	r2, r5, r0
10001736:	b2db      	uxtb	r3, r3
10001738:	1830      	adds	r0, r6, r0
1000173a:	428f      	cmp	r7, r1
1000173c:	d009      	beq.n	10001752 <_ZN4RF2415openWritingPipeEPKh+0xaa>
1000173e:	7811      	ldrb	r1, [r2, #0]
10001740:	7001      	strb	r1, [r0, #0]
10001742:	2b00      	cmp	r3, #0
10001744:	d005      	beq.n	10001752 <_ZN4RF2415openWritingPipeEPKh+0xaa>
10001746:	7851      	ldrb	r1, [r2, #1]
10001748:	7041      	strb	r1, [r0, #1]
1000174a:	2b01      	cmp	r3, #1
1000174c:	d001      	beq.n	10001752 <_ZN4RF2415openWritingPipeEPKh+0xaa>
1000174e:	7893      	ldrb	r3, [r2, #2]
10001750:	7083      	strb	r3, [r0, #2]
10001752:	2310      	movs	r3, #16
10001754:	4699      	mov	r9, r3
10001756:	44a1      	add	r9, r4
10001758:	4652      	mov	r2, sl
1000175a:	4649      	mov	r1, r9
1000175c:	4640      	mov	r0, r8
1000175e:	f000 fbbd 	bl	10001edc <_ZN3SPI10transfernbEPKhPhm>
10001762:	2352      	movs	r3, #82	; 0x52
10001764:	7c22      	ldrb	r2, [r4, #16]
10001766:	2101      	movs	r1, #1
10001768:	54e2      	strb	r2, [r4, r3]
1000176a:	8960      	ldrh	r0, [r4, #10]
1000176c:	f000 fb74 	bl	10001e58 <_ZN4GPIO5writeEii>
10001770:	2100      	movs	r1, #0
10001772:	6e60      	ldr	r0, [r4, #100]	; 0x64
10001774:	f001 f844 	bl	10002800 <sleep_us>
10001778:	f000 fbd0 	bl	10001f1c <_ZN3SPI14endTransactionEv>
1000177c:	235d      	movs	r3, #93	; 0x5d
1000177e:	68e0      	ldr	r0, [r4, #12]
10001780:	5ce7      	ldrb	r7, [r4, r3]
10001782:	f000 fbb7 	bl	10001ef4 <_ZN3SPI16beginTransactionEm>
10001786:	2100      	movs	r1, #0
10001788:	8960      	ldrh	r0, [r4, #10]
1000178a:	f000 fb65 	bl	10001e58 <_ZN4GPIO5writeEii>
1000178e:	2100      	movs	r1, #0
10001790:	6e60      	ldr	r0, [r4, #100]	; 0x64
10001792:	f001 f835 	bl	10002800 <sleep_us>
10001796:	1c7a      	adds	r2, r7, #1
10001798:	b2d3      	uxtb	r3, r2
1000179a:	469a      	mov	sl, r3
1000179c:	2130      	movs	r1, #48	; 0x30
1000179e:	2331      	movs	r3, #49	; 0x31
100017a0:	54e1      	strb	r1, [r4, r3]
100017a2:	1e7b      	subs	r3, r7, #1
100017a4:	b2db      	uxtb	r3, r3
100017a6:	2f00      	cmp	r7, #0
100017a8:	d02e      	beq.n	10001808 <_ZN4RF2415openWritingPipeEPKh+0x160>
100017aa:	0030      	movs	r0, r6
100017ac:	392d      	subs	r1, #45	; 0x2d
100017ae:	4328      	orrs	r0, r5
100017b0:	4001      	ands	r1, r0
100017b2:	4248      	negs	r0, r1
100017b4:	4148      	adcs	r0, r1
100017b6:	0021      	movs	r1, r4
100017b8:	3135      	adds	r1, #53	; 0x35
100017ba:	1b4a      	subs	r2, r1, r5
100017bc:	2106      	movs	r1, #6
100017be:	4291      	cmp	r1, r2
100017c0:	4189      	sbcs	r1, r1
100017c2:	4249      	negs	r1, r1
100017c4:	4201      	tst	r1, r0
100017c6:	d036      	beq.n	10001836 <_ZN4RF2415openWritingPipeEPKh+0x18e>
100017c8:	2b08      	cmp	r3, #8
100017ca:	d934      	bls.n	10001836 <_ZN4RF2415openWritingPipeEPKh+0x18e>
100017cc:	08ba      	lsrs	r2, r7, #2
100017ce:	4694      	mov	ip, r2
100017d0:	2100      	movs	r1, #0
100017d2:	2000      	movs	r0, #0
100017d4:	582a      	ldr	r2, [r5, r0]
100017d6:	3101      	adds	r1, #1
100017d8:	b2c9      	uxtb	r1, r1
100017da:	5032      	str	r2, [r6, r0]
100017dc:	3004      	adds	r0, #4
100017de:	458c      	cmp	ip, r1
100017e0:	d1f8      	bne.n	100017d4 <_ZN4RF2415openWritingPipeEPKh+0x12c>
100017e2:	2103      	movs	r1, #3
100017e4:	0038      	movs	r0, r7
100017e6:	4388      	bics	r0, r1
100017e8:	1a1b      	subs	r3, r3, r0
100017ea:	b2db      	uxtb	r3, r3
100017ec:	182d      	adds	r5, r5, r0
100017ee:	1836      	adds	r6, r6, r0
100017f0:	4287      	cmp	r7, r0
100017f2:	d009      	beq.n	10001808 <_ZN4RF2415openWritingPipeEPKh+0x160>
100017f4:	7829      	ldrb	r1, [r5, #0]
100017f6:	7031      	strb	r1, [r6, #0]
100017f8:	2b00      	cmp	r3, #0
100017fa:	d005      	beq.n	10001808 <_ZN4RF2415openWritingPipeEPKh+0x160>
100017fc:	7869      	ldrb	r1, [r5, #1]
100017fe:	7071      	strb	r1, [r6, #1]
10001800:	2b01      	cmp	r3, #1
10001802:	d001      	beq.n	10001808 <_ZN4RF2415openWritingPipeEPKh+0x160>
10001804:	78ab      	ldrb	r3, [r5, #2]
10001806:	70b3      	strb	r3, [r6, #2]
10001808:	4652      	mov	r2, sl
1000180a:	4649      	mov	r1, r9
1000180c:	4640      	mov	r0, r8
1000180e:	f000 fb65 	bl	10001edc <_ZN3SPI10transfernbEPKhPhm>
10001812:	2352      	movs	r3, #82	; 0x52
10001814:	7c22      	ldrb	r2, [r4, #16]
10001816:	2101      	movs	r1, #1
10001818:	54e2      	strb	r2, [r4, r3]
1000181a:	8960      	ldrh	r0, [r4, #10]
1000181c:	f000 fb1c 	bl	10001e58 <_ZN4GPIO5writeEii>
10001820:	2100      	movs	r1, #0
10001822:	6e60      	ldr	r0, [r4, #100]	; 0x64
10001824:	f000 ffec 	bl	10002800 <sleep_us>
10001828:	f000 fb78 	bl	10001f1c <_ZN3SPI14endTransactionEv>
1000182c:	bc1c      	pop	{r2, r3, r4}
1000182e:	4690      	mov	r8, r2
10001830:	4699      	mov	r9, r3
10001832:	46a2      	mov	sl, r4
10001834:	bdf0      	pop	{r4, r5, r6, r7, pc}
10001836:	2300      	movs	r3, #0
10001838:	5ce9      	ldrb	r1, [r5, r3]
1000183a:	54f1      	strb	r1, [r6, r3]
1000183c:	3301      	adds	r3, #1
1000183e:	b2d9      	uxtb	r1, r3
10001840:	428f      	cmp	r7, r1
10001842:	d1f9      	bne.n	10001838 <_ZN4RF2415openWritingPipeEPKh+0x190>
10001844:	e7e0      	b.n	10001808 <_ZN4RF2415openWritingPipeEPKh+0x160>
10001846:	2300      	movs	r3, #0
10001848:	5ce9      	ldrb	r1, [r5, r3]
1000184a:	54f1      	strb	r1, [r6, r3]
1000184c:	3301      	adds	r3, #1
1000184e:	b2d9      	uxtb	r1, r3
10001850:	428f      	cmp	r7, r1
10001852:	d1f9      	bne.n	10001848 <_ZN4RF2415openWritingPipeEPKh+0x1a0>
10001854:	e77d      	b.n	10001752 <_ZN4RF2415openWritingPipeEPKh+0xaa>
10001856:	46c0      	nop			; (mov r8, r8)

10001858 <_ZN4RF2415openReadingPipeEhPKh>:
10001858:	b5f8      	push	{r3, r4, r5, r6, r7, lr}
1000185a:	464e      	mov	r6, r9
1000185c:	4645      	mov	r5, r8
1000185e:	46de      	mov	lr, fp
10001860:	4657      	mov	r7, sl
10001862:	0004      	movs	r4, r0
10001864:	b5e0      	push	{r5, r6, r7, lr}
10001866:	000d      	movs	r5, r1
10001868:	0016      	movs	r6, r2
1000186a:	2900      	cmp	r1, #0
1000186c:	d008      	beq.n	10001880 <_ZN4RF2415openReadingPipeEhPKh+0x28>
1000186e:	2905      	cmp	r1, #5
10001870:	d800      	bhi.n	10001874 <_ZN4RF2415openReadingPipeEhPKh+0x1c>
10001872:	e0d3      	b.n	10001a1c <_ZN4RF2415openReadingPipeEhPKh+0x1c4>
10001874:	bc3c      	pop	{r2, r3, r4, r5}
10001876:	4690      	mov	r8, r2
10001878:	4699      	mov	r9, r3
1000187a:	46a2      	mov	sl, r4
1000187c:	46ab      	mov	fp, r5
1000187e:	bdf8      	pop	{r3, r4, r5, r6, r7, pc}
10001880:	235d      	movs	r3, #93	; 0x5d
10001882:	0031      	movs	r1, r6
10001884:	5cc2      	ldrb	r2, [r0, r3]
10001886:	3054      	adds	r0, #84	; 0x54
10001888:	f004 faae 	bl	10005de8 <__wrap___aeabi_memcpy>
1000188c:	235b      	movs	r3, #91	; 0x5b
1000188e:	2201      	movs	r2, #1
10001890:	54e2      	strb	r2, [r4, r3]
10001892:	4b77      	ldr	r3, [pc, #476]	; (10001a70 <_ZN4RF2415openReadingPipeEhPKh+0x218>)
10001894:	68e0      	ldr	r0, [r4, #12]
10001896:	5d5b      	ldrb	r3, [r3, r5]
10001898:	0027      	movs	r7, r4
1000189a:	4699      	mov	r9, r3
1000189c:	235d      	movs	r3, #93	; 0x5d
1000189e:	5ce3      	ldrb	r3, [r4, r3]
100018a0:	3731      	adds	r7, #49	; 0x31
100018a2:	4698      	mov	r8, r3
100018a4:	f000 fb26 	bl	10001ef4 <_ZN3SPI16beginTransactionEm>
100018a8:	2100      	movs	r1, #0
100018aa:	8960      	ldrh	r0, [r4, #10]
100018ac:	f000 fad4 	bl	10001e58 <_ZN4GPIO5writeEii>
100018b0:	6e60      	ldr	r0, [r4, #100]	; 0x64
100018b2:	2100      	movs	r1, #0
100018b4:	f000 ffa4 	bl	10002800 <sleep_us>
100018b8:	4643      	mov	r3, r8
100018ba:	1c5a      	adds	r2, r3, #1
100018bc:	b2d3      	uxtb	r3, r2
100018be:	469c      	mov	ip, r3
100018c0:	464a      	mov	r2, r9
100018c2:	231f      	movs	r3, #31
100018c4:	4013      	ands	r3, r2
100018c6:	2220      	movs	r2, #32
100018c8:	4313      	orrs	r3, r2
100018ca:	2231      	movs	r2, #49	; 0x31
100018cc:	54a3      	strb	r3, [r4, r2]
100018ce:	4643      	mov	r3, r8
100018d0:	1e5a      	subs	r2, r3, #1
100018d2:	b2d3      	uxtb	r3, r2
100018d4:	0020      	movs	r0, r4
100018d6:	469a      	mov	sl, r3
100018d8:	4643      	mov	r3, r8
100018da:	3032      	adds	r0, #50	; 0x32
100018dc:	2b00      	cmp	r3, #0
100018de:	d034      	beq.n	1000194a <_ZN4RF2415openReadingPipeEhPKh+0xf2>
100018e0:	0001      	movs	r1, r0
100018e2:	2303      	movs	r3, #3
100018e4:	4331      	orrs	r1, r6
100018e6:	400b      	ands	r3, r1
100018e8:	4259      	negs	r1, r3
100018ea:	4159      	adcs	r1, r3
100018ec:	0023      	movs	r3, r4
100018ee:	3335      	adds	r3, #53	; 0x35
100018f0:	1b9b      	subs	r3, r3, r6
100018f2:	4699      	mov	r9, r3
100018f4:	2306      	movs	r3, #6
100018f6:	454b      	cmp	r3, r9
100018f8:	419b      	sbcs	r3, r3
100018fa:	425b      	negs	r3, r3
100018fc:	420b      	tst	r3, r1
100018fe:	d100      	bne.n	10001902 <_ZN4RF2415openReadingPipeEhPKh+0xaa>
10001900:	e0ad      	b.n	10001a5e <_ZN4RF2415openReadingPipeEhPKh+0x206>
10001902:	4653      	mov	r3, sl
10001904:	2b08      	cmp	r3, #8
10001906:	d800      	bhi.n	1000190a <_ZN4RF2415openReadingPipeEhPKh+0xb2>
10001908:	e0a9      	b.n	10001a5e <_ZN4RF2415openReadingPipeEhPKh+0x206>
1000190a:	4643      	mov	r3, r8
1000190c:	089b      	lsrs	r3, r3, #2
1000190e:	4699      	mov	r9, r3
10001910:	2100      	movs	r1, #0
10001912:	2300      	movs	r3, #0
10001914:	5872      	ldr	r2, [r6, r1]
10001916:	3301      	adds	r3, #1
10001918:	b2db      	uxtb	r3, r3
1000191a:	5042      	str	r2, [r0, r1]
1000191c:	3104      	adds	r1, #4
1000191e:	4599      	cmp	r9, r3
10001920:	d1f8      	bne.n	10001914 <_ZN4RF2415openReadingPipeEhPKh+0xbc>
10001922:	2303      	movs	r3, #3
10001924:	4641      	mov	r1, r8
10001926:	4399      	bics	r1, r3
10001928:	4653      	mov	r3, sl
1000192a:	1a5a      	subs	r2, r3, r1
1000192c:	b2d3      	uxtb	r3, r2
1000192e:	1876      	adds	r6, r6, r1
10001930:	1840      	adds	r0, r0, r1
10001932:	4588      	cmp	r8, r1
10001934:	d009      	beq.n	1000194a <_ZN4RF2415openReadingPipeEhPKh+0xf2>
10001936:	7832      	ldrb	r2, [r6, #0]
10001938:	7002      	strb	r2, [r0, #0]
1000193a:	2b00      	cmp	r3, #0
1000193c:	d005      	beq.n	1000194a <_ZN4RF2415openReadingPipeEhPKh+0xf2>
1000193e:	7872      	ldrb	r2, [r6, #1]
10001940:	7042      	strb	r2, [r0, #1]
10001942:	2b01      	cmp	r3, #1
10001944:	d001      	beq.n	1000194a <_ZN4RF2415openReadingPipeEhPKh+0xf2>
10001946:	78b3      	ldrb	r3, [r6, #2]
10001948:	7083      	strb	r3, [r0, #2]
1000194a:	0026      	movs	r6, r4
1000194c:	4662      	mov	r2, ip
1000194e:	3610      	adds	r6, #16
10001950:	0031      	movs	r1, r6
10001952:	0038      	movs	r0, r7
10001954:	f000 fac2 	bl	10001edc <_ZN3SPI10transfernbEPKhPhm>
10001958:	2352      	movs	r3, #82	; 0x52
1000195a:	7c22      	ldrb	r2, [r4, #16]
1000195c:	2101      	movs	r1, #1
1000195e:	54e2      	strb	r2, [r4, r3]
10001960:	8960      	ldrh	r0, [r4, #10]
10001962:	f000 fa79 	bl	10001e58 <_ZN4GPIO5writeEii>
10001966:	2100      	movs	r1, #0
10001968:	6e60      	ldr	r0, [r4, #100]	; 0x64
1000196a:	f000 ff49 	bl	10002800 <sleep_us>
1000196e:	f000 fad5 	bl	10001f1c <_ZN3SPI14endTransactionEv>
10001972:	68e0      	ldr	r0, [r4, #12]
10001974:	f000 fabe 	bl	10001ef4 <_ZN3SPI16beginTransactionEm>
10001978:	8960      	ldrh	r0, [r4, #10]
1000197a:	2100      	movs	r1, #0
1000197c:	f000 fa6c 	bl	10001e58 <_ZN4GPIO5writeEii>
10001980:	6e60      	ldr	r0, [r4, #100]	; 0x64
10001982:	2100      	movs	r1, #0
10001984:	f000 ff3c 	bl	10002800 <sleep_us>
10001988:	2331      	movs	r3, #49	; 0x31
1000198a:	469a      	mov	sl, r3
1000198c:	4652      	mov	r2, sl
1000198e:	3b2f      	subs	r3, #47	; 0x2f
10001990:	54a3      	strb	r3, [r4, r2]
10001992:	3330      	adds	r3, #48	; 0x30
10001994:	4699      	mov	r9, r3
10001996:	464a      	mov	r2, r9
10001998:	33cd      	adds	r3, #205	; 0xcd
1000199a:	54a3      	strb	r3, [r4, r2]
1000199c:	0031      	movs	r1, r6
1000199e:	0038      	movs	r0, r7
100019a0:	3a30      	subs	r2, #48	; 0x30
100019a2:	f000 fa9b 	bl	10001edc <_ZN3SPI10transfernbEPKhPhm>
100019a6:	2352      	movs	r3, #82	; 0x52
100019a8:	4698      	mov	r8, r3
100019aa:	4642      	mov	r2, r8
100019ac:	7c23      	ldrb	r3, [r4, #16]
100019ae:	2101      	movs	r1, #1
100019b0:	54a3      	strb	r3, [r4, r2]
100019b2:	7c63      	ldrb	r3, [r4, #17]
100019b4:	8960      	ldrh	r0, [r4, #10]
100019b6:	469b      	mov	fp, r3
100019b8:	f000 fa4e 	bl	10001e58 <_ZN4GPIO5writeEii>
100019bc:	2100      	movs	r1, #0
100019be:	6e60      	ldr	r0, [r4, #100]	; 0x64
100019c0:	f000 ff1e 	bl	10002800 <sleep_us>
100019c4:	f000 faaa 	bl	10001f1c <_ZN3SPI14endTransactionEv>
100019c8:	4b2a      	ldr	r3, [pc, #168]	; (10001a74 <_ZN4RF2415openReadingPipeEhPKh+0x21c>)
100019ca:	68e0      	ldr	r0, [r4, #12]
100019cc:	5d5b      	ldrb	r3, [r3, r5]
100019ce:	2501      	movs	r5, #1
100019d0:	409d      	lsls	r5, r3
100019d2:	465b      	mov	r3, fp
100019d4:	431d      	orrs	r5, r3
100019d6:	f000 fa8d 	bl	10001ef4 <_ZN3SPI16beginTransactionEm>
100019da:	8960      	ldrh	r0, [r4, #10]
100019dc:	2100      	movs	r1, #0
100019de:	f000 fa3b 	bl	10001e58 <_ZN4GPIO5writeEii>
100019e2:	6e60      	ldr	r0, [r4, #100]	; 0x64
100019e4:	2100      	movs	r1, #0
100019e6:	f000 ff0b 	bl	10002800 <sleep_us>
100019ea:	4652      	mov	r2, sl
100019ec:	2322      	movs	r3, #34	; 0x22
100019ee:	54a3      	strb	r3, [r4, r2]
100019f0:	464b      	mov	r3, r9
100019f2:	b2ed      	uxtb	r5, r5
100019f4:	0031      	movs	r1, r6
100019f6:	0038      	movs	r0, r7
100019f8:	54e5      	strb	r5, [r4, r3]
100019fa:	3a2f      	subs	r2, #47	; 0x2f
100019fc:	f000 fa6e 	bl	10001edc <_ZN3SPI10transfernbEPKhPhm>
10001a00:	4642      	mov	r2, r8
10001a02:	7c23      	ldrb	r3, [r4, #16]
10001a04:	2101      	movs	r1, #1
10001a06:	54a3      	strb	r3, [r4, r2]
10001a08:	8960      	ldrh	r0, [r4, #10]
10001a0a:	f000 fa25 	bl	10001e58 <_ZN4GPIO5writeEii>
10001a0e:	2100      	movs	r1, #0
10001a10:	6e60      	ldr	r0, [r4, #100]	; 0x64
10001a12:	f000 fef5 	bl	10002800 <sleep_us>
10001a16:	f000 fa81 	bl	10001f1c <_ZN3SPI14endTransactionEv>
10001a1a:	e72b      	b.n	10001874 <_ZN4RF2415openReadingPipeEhPKh+0x1c>
10001a1c:	2901      	cmp	r1, #1
10001a1e:	d100      	bne.n	10001a22 <_ZN4RF2415openReadingPipeEhPKh+0x1ca>
10001a20:	e737      	b.n	10001892 <_ZN4RF2415openReadingPipeEhPKh+0x3a>
10001a22:	4b13      	ldr	r3, [pc, #76]	; (10001a70 <_ZN4RF2415openReadingPipeEhPKh+0x218>)
10001a24:	68c0      	ldr	r0, [r0, #12]
10001a26:	5c5b      	ldrb	r3, [r3, r1]
10001a28:	0027      	movs	r7, r4
10001a2a:	4698      	mov	r8, r3
10001a2c:	f000 fa62 	bl	10001ef4 <_ZN3SPI16beginTransactionEm>
10001a30:	2100      	movs	r1, #0
10001a32:	8960      	ldrh	r0, [r4, #10]
10001a34:	f000 fa10 	bl	10001e58 <_ZN4GPIO5writeEii>
10001a38:	2100      	movs	r1, #0
10001a3a:	6e60      	ldr	r0, [r4, #100]	; 0x64
10001a3c:	f000 fee0 	bl	10002800 <sleep_us>
10001a40:	4642      	mov	r2, r8
10001a42:	231f      	movs	r3, #31
10001a44:	4013      	ands	r3, r2
10001a46:	2220      	movs	r2, #32
10001a48:	4313      	orrs	r3, r2
10001a4a:	2231      	movs	r2, #49	; 0x31
10001a4c:	54a3      	strb	r3, [r4, r2]
10001a4e:	7832      	ldrb	r2, [r6, #0]
10001a50:	2332      	movs	r3, #50	; 0x32
10001a52:	0026      	movs	r6, r4
10001a54:	54e2      	strb	r2, [r4, r3]
10001a56:	3731      	adds	r7, #49	; 0x31
10001a58:	2202      	movs	r2, #2
10001a5a:	3610      	adds	r6, #16
10001a5c:	e778      	b.n	10001950 <_ZN4RF2415openReadingPipeEhPKh+0xf8>
10001a5e:	2300      	movs	r3, #0
10001a60:	5cf2      	ldrb	r2, [r6, r3]
10001a62:	54c2      	strb	r2, [r0, r3]
10001a64:	3301      	adds	r3, #1
10001a66:	b2da      	uxtb	r2, r3
10001a68:	4590      	cmp	r8, r2
10001a6a:	d1f9      	bne.n	10001a60 <_ZN4RF2415openReadingPipeEhPKh+0x208>
10001a6c:	e76d      	b.n	1000194a <_ZN4RF2415openReadingPipeEhPKh+0xf2>
10001a6e:	46c0      	nop			; (mov r8, r8)
10001a70:	100099ac 	.word	0x100099ac
10001a74:	100099b4 	.word	0x100099b4

10001a78 <_ZN4RF2421enableDynamicPayloadsEv>:
10001a78:	b5f8      	push	{r3, r4, r5, r6, r7, lr}
10001a7a:	46de      	mov	lr, fp
10001a7c:	4657      	mov	r7, sl
10001a7e:	464e      	mov	r6, r9
10001a80:	4645      	mov	r5, r8
10001a82:	0004      	movs	r4, r0
10001a84:	b5e0      	push	{r5, r6, r7, lr}
10001a86:	68c0      	ldr	r0, [r0, #12]
10001a88:	f000 fa34 	bl	10001ef4 <_ZN3SPI16beginTransactionEm>
10001a8c:	2100      	movs	r1, #0
10001a8e:	8960      	ldrh	r0, [r4, #10]
10001a90:	f000 f9e2 	bl	10001e58 <_ZN4GPIO5writeEii>
10001a94:	2100      	movs	r1, #0
10001a96:	6e60      	ldr	r0, [r4, #100]	; 0x64
10001a98:	f000 feb2 	bl	10002800 <sleep_us>
10001a9c:	2331      	movs	r3, #49	; 0x31
10001a9e:	4699      	mov	r9, r3
10001aa0:	464a      	mov	r2, r9
10001aa2:	3b14      	subs	r3, #20
10001aa4:	54a3      	strb	r3, [r4, r2]
10001aa6:	3315      	adds	r3, #21
10001aa8:	4698      	mov	r8, r3
10001aaa:	33cd      	adds	r3, #205	; 0xcd
10001aac:	469b      	mov	fp, r3
10001aae:	0026      	movs	r6, r4
10001ab0:	0027      	movs	r7, r4
10001ab2:	4643      	mov	r3, r8
10001ab4:	465a      	mov	r2, fp
10001ab6:	2552      	movs	r5, #82	; 0x52
10001ab8:	3631      	adds	r6, #49	; 0x31
10001aba:	3710      	adds	r7, #16
10001abc:	0039      	movs	r1, r7
10001abe:	0030      	movs	r0, r6
10001ac0:	54e2      	strb	r2, [r4, r3]
10001ac2:	3afd      	subs	r2, #253	; 0xfd
10001ac4:	f000 fa0a 	bl	10001edc <_ZN3SPI10transfernbEPKhPhm>
10001ac8:	7c23      	ldrb	r3, [r4, #16]
10001aca:	2101      	movs	r1, #1
10001acc:	5563      	strb	r3, [r4, r5]
10001ace:	7c63      	ldrb	r3, [r4, #17]
10001ad0:	8960      	ldrh	r0, [r4, #10]
10001ad2:	469a      	mov	sl, r3
10001ad4:	f000 f9c0 	bl	10001e58 <_ZN4GPIO5writeEii>
10001ad8:	2100      	movs	r1, #0
10001ada:	6e60      	ldr	r0, [r4, #100]	; 0x64
10001adc:	f000 fe90 	bl	10002800 <sleep_us>
10001ae0:	f000 fa1c 	bl	10001f1c <_ZN3SPI14endTransactionEv>
10001ae4:	68e0      	ldr	r0, [r4, #12]
10001ae6:	f000 fa05 	bl	10001ef4 <_ZN3SPI16beginTransactionEm>
10001aea:	2100      	movs	r1, #0
10001aec:	8960      	ldrh	r0, [r4, #10]
10001aee:	f000 f9b3 	bl	10001e58 <_ZN4GPIO5writeEii>
10001af2:	2100      	movs	r1, #0
10001af4:	6e60      	ldr	r0, [r4, #100]	; 0x64
10001af6:	f000 fe83 	bl	10002800 <sleep_us>
10001afa:	464a      	mov	r2, r9
10001afc:	233d      	movs	r3, #61	; 0x3d
10001afe:	54a3      	strb	r3, [r4, r2]
10001b00:	4652      	mov	r2, sl
10001b02:	2304      	movs	r3, #4
10001b04:	4313      	orrs	r3, r2
10001b06:	4642      	mov	r2, r8
10001b08:	0039      	movs	r1, r7
10001b0a:	0030      	movs	r0, r6
10001b0c:	54a3      	strb	r3, [r4, r2]
10001b0e:	3a30      	subs	r2, #48	; 0x30
10001b10:	f000 f9e4 	bl	10001edc <_ZN3SPI10transfernbEPKhPhm>
10001b14:	7c23      	ldrb	r3, [r4, #16]
10001b16:	2101      	movs	r1, #1
10001b18:	5563      	strb	r3, [r4, r5]
10001b1a:	8960      	ldrh	r0, [r4, #10]
10001b1c:	f000 f99c 	bl	10001e58 <_ZN4GPIO5writeEii>
10001b20:	2100      	movs	r1, #0
10001b22:	6e60      	ldr	r0, [r4, #100]	; 0x64
10001b24:	f000 fe6c 	bl	10002800 <sleep_us>
10001b28:	f000 f9f8 	bl	10001f1c <_ZN3SPI14endTransactionEv>
10001b2c:	68e0      	ldr	r0, [r4, #12]
10001b2e:	f000 f9e1 	bl	10001ef4 <_ZN3SPI16beginTransactionEm>
10001b32:	2100      	movs	r1, #0
10001b34:	8960      	ldrh	r0, [r4, #10]
10001b36:	f000 f98f 	bl	10001e58 <_ZN4GPIO5writeEii>
10001b3a:	2100      	movs	r1, #0
10001b3c:	6e60      	ldr	r0, [r4, #100]	; 0x64
10001b3e:	f000 fe5f 	bl	10002800 <sleep_us>
10001b42:	464a      	mov	r2, r9
10001b44:	231c      	movs	r3, #28
10001b46:	54a3      	strb	r3, [r4, r2]
10001b48:	4643      	mov	r3, r8
10001b4a:	465a      	mov	r2, fp
10001b4c:	0039      	movs	r1, r7
10001b4e:	0030      	movs	r0, r6
10001b50:	54e2      	strb	r2, [r4, r3]
10001b52:	3afd      	subs	r2, #253	; 0xfd
10001b54:	f000 f9c2 	bl	10001edc <_ZN3SPI10transfernbEPKhPhm>
10001b58:	7c23      	ldrb	r3, [r4, #16]
10001b5a:	2101      	movs	r1, #1
10001b5c:	5563      	strb	r3, [r4, r5]
10001b5e:	7c63      	ldrb	r3, [r4, #17]
10001b60:	8960      	ldrh	r0, [r4, #10]
10001b62:	469a      	mov	sl, r3
10001b64:	f000 f978 	bl	10001e58 <_ZN4GPIO5writeEii>
10001b68:	2100      	movs	r1, #0
10001b6a:	6e60      	ldr	r0, [r4, #100]	; 0x64
10001b6c:	f000 fe48 	bl	10002800 <sleep_us>
10001b70:	f000 f9d4 	bl	10001f1c <_ZN3SPI14endTransactionEv>
10001b74:	68e0      	ldr	r0, [r4, #12]
10001b76:	f000 f9bd 	bl	10001ef4 <_ZN3SPI16beginTransactionEm>
10001b7a:	2100      	movs	r1, #0
10001b7c:	8960      	ldrh	r0, [r4, #10]
10001b7e:	f000 f96b 	bl	10001e58 <_ZN4GPIO5writeEii>
10001b82:	2100      	movs	r1, #0
10001b84:	6e60      	ldr	r0, [r4, #100]	; 0x64
10001b86:	f000 fe3b 	bl	10002800 <sleep_us>
10001b8a:	464a      	mov	r2, r9
10001b8c:	233c      	movs	r3, #60	; 0x3c
10001b8e:	54a3      	strb	r3, [r4, r2]
10001b90:	4652      	mov	r2, sl
10001b92:	233f      	movs	r3, #63	; 0x3f
10001b94:	4313      	orrs	r3, r2
10001b96:	4642      	mov	r2, r8
10001b98:	0039      	movs	r1, r7
10001b9a:	0030      	movs	r0, r6
10001b9c:	54a3      	strb	r3, [r4, r2]
10001b9e:	3a30      	subs	r2, #48	; 0x30
10001ba0:	f000 f99c 	bl	10001edc <_ZN3SPI10transfernbEPKhPhm>
10001ba4:	7c23      	ldrb	r3, [r4, #16]
10001ba6:	2101      	movs	r1, #1
10001ba8:	5563      	strb	r3, [r4, r5]
10001baa:	8960      	ldrh	r0, [r4, #10]
10001bac:	f000 f954 	bl	10001e58 <_ZN4GPIO5writeEii>
10001bb0:	2100      	movs	r1, #0
10001bb2:	6e60      	ldr	r0, [r4, #100]	; 0x64
10001bb4:	f000 fe24 	bl	10002800 <sleep_us>
10001bb8:	f000 f9b0 	bl	10001f1c <_ZN3SPI14endTransactionEv>
10001bbc:	235e      	movs	r3, #94	; 0x5e
10001bbe:	2201      	movs	r2, #1
10001bc0:	54e2      	strb	r2, [r4, r3]
10001bc2:	bc3c      	pop	{r2, r3, r4, r5}
10001bc4:	4690      	mov	r8, r2
10001bc6:	4699      	mov	r9, r3
10001bc8:	46a2      	mov	sl, r4
10001bca:	46ab      	mov	fp, r5
10001bcc:	bdf8      	pop	{r3, r4, r5, r6, r7, pc}
10001bce:	46c0      	nop			; (mov r8, r8)

10001bd0 <_ZN4RF2416enableAckPayloadEv>:
10001bd0:	b5f0      	push	{r4, r5, r6, r7, lr}
10001bd2:	4645      	mov	r5, r8
10001bd4:	46de      	mov	lr, fp
10001bd6:	4657      	mov	r7, sl
10001bd8:	464e      	mov	r6, r9
10001bda:	b5e0      	push	{r5, r6, r7, lr}
10001bdc:	255c      	movs	r5, #92	; 0x5c
10001bde:	5d43      	ldrb	r3, [r0, r5]
10001be0:	0004      	movs	r4, r0
10001be2:	b083      	sub	sp, #12
10001be4:	2b00      	cmp	r3, #0
10001be6:	d006      	beq.n	10001bf6 <_ZN4RF2416enableAckPayloadEv+0x26>
10001be8:	b003      	add	sp, #12
10001bea:	bc3c      	pop	{r2, r3, r4, r5}
10001bec:	4690      	mov	r8, r2
10001bee:	4699      	mov	r9, r3
10001bf0:	46a2      	mov	sl, r4
10001bf2:	46ab      	mov	fp, r5
10001bf4:	bdf0      	pop	{r4, r5, r6, r7, pc}
10001bf6:	68c0      	ldr	r0, [r0, #12]
10001bf8:	f000 f97c 	bl	10001ef4 <_ZN3SPI16beginTransactionEm>
10001bfc:	2100      	movs	r1, #0
10001bfe:	8960      	ldrh	r0, [r4, #10]
10001c00:	f000 f92a 	bl	10001e58 <_ZN4GPIO5writeEii>
10001c04:	2100      	movs	r1, #0
10001c06:	6e60      	ldr	r0, [r4, #100]	; 0x64
10001c08:	f000 fdfa 	bl	10002800 <sleep_us>
10001c0c:	2331      	movs	r3, #49	; 0x31
10001c0e:	469a      	mov	sl, r3
10001c10:	4652      	mov	r2, sl
10001c12:	3b14      	subs	r3, #20
10001c14:	54a3      	strb	r3, [r4, r2]
10001c16:	3315      	adds	r3, #21
10001c18:	4699      	mov	r9, r3
10001c1a:	33cd      	adds	r3, #205	; 0xcd
10001c1c:	469b      	mov	fp, r3
10001c1e:	464b      	mov	r3, r9
10001c20:	465a      	mov	r2, fp
10001c22:	54e2      	strb	r2, [r4, r3]
10001c24:	3b22      	subs	r3, #34	; 0x22
10001c26:	4698      	mov	r8, r3
10001c28:	0027      	movs	r7, r4
10001c2a:	2652      	movs	r6, #82	; 0x52
10001c2c:	3731      	adds	r7, #49	; 0x31
10001c2e:	44a0      	add	r8, r4
10001c30:	3afd      	subs	r2, #253	; 0xfd
10001c32:	4641      	mov	r1, r8
10001c34:	0038      	movs	r0, r7
10001c36:	f000 f951 	bl	10001edc <_ZN3SPI10transfernbEPKhPhm>
10001c3a:	7c23      	ldrb	r3, [r4, #16]
10001c3c:	2101      	movs	r1, #1
10001c3e:	55a3      	strb	r3, [r4, r6]
10001c40:	7c63      	ldrb	r3, [r4, #17]
10001c42:	8960      	ldrh	r0, [r4, #10]
10001c44:	9301      	str	r3, [sp, #4]
10001c46:	f000 f907 	bl	10001e58 <_ZN4GPIO5writeEii>
10001c4a:	2100      	movs	r1, #0
10001c4c:	6e60      	ldr	r0, [r4, #100]	; 0x64
10001c4e:	f000 fdd7 	bl	10002800 <sleep_us>
10001c52:	f000 f963 	bl	10001f1c <_ZN3SPI14endTransactionEv>
10001c56:	68e0      	ldr	r0, [r4, #12]
10001c58:	f000 f94c 	bl	10001ef4 <_ZN3SPI16beginTransactionEm>
10001c5c:	2100      	movs	r1, #0
10001c5e:	8960      	ldrh	r0, [r4, #10]
10001c60:	f000 f8fa 	bl	10001e58 <_ZN4GPIO5writeEii>
10001c64:	2100      	movs	r1, #0
10001c66:	6e60      	ldr	r0, [r4, #100]	; 0x64
10001c68:	f000 fdca 	bl	10002800 <sleep_us>
10001c6c:	233d      	movs	r3, #61	; 0x3d
10001c6e:	4651      	mov	r1, sl
10001c70:	5463      	strb	r3, [r4, r1]
10001c72:	2306      	movs	r3, #6
10001c74:	9a01      	ldr	r2, [sp, #4]
10001c76:	4641      	mov	r1, r8
10001c78:	4313      	orrs	r3, r2
10001c7a:	464a      	mov	r2, r9
10001c7c:	0038      	movs	r0, r7
10001c7e:	54a3      	strb	r3, [r4, r2]
10001c80:	3a30      	subs	r2, #48	; 0x30
10001c82:	f000 f92b 	bl	10001edc <_ZN3SPI10transfernbEPKhPhm>
10001c86:	7c23      	ldrb	r3, [r4, #16]
10001c88:	2101      	movs	r1, #1
10001c8a:	55a3      	strb	r3, [r4, r6]
10001c8c:	8960      	ldrh	r0, [r4, #10]
10001c8e:	f000 f8e3 	bl	10001e58 <_ZN4GPIO5writeEii>
10001c92:	2100      	movs	r1, #0
10001c94:	6e60      	ldr	r0, [r4, #100]	; 0x64
10001c96:	f000 fdb3 	bl	10002800 <sleep_us>
10001c9a:	f000 f93f 	bl	10001f1c <_ZN3SPI14endTransactionEv>
10001c9e:	68e0      	ldr	r0, [r4, #12]
10001ca0:	f000 f928 	bl	10001ef4 <_ZN3SPI16beginTransactionEm>
10001ca4:	2100      	movs	r1, #0
10001ca6:	8960      	ldrh	r0, [r4, #10]
10001ca8:	f000 f8d6 	bl	10001e58 <_ZN4GPIO5writeEii>
10001cac:	2100      	movs	r1, #0
10001cae:	6e60      	ldr	r0, [r4, #100]	; 0x64
10001cb0:	f000 fda6 	bl	10002800 <sleep_us>
10001cb4:	231c      	movs	r3, #28
10001cb6:	4652      	mov	r2, sl
10001cb8:	54a3      	strb	r3, [r4, r2]
10001cba:	464b      	mov	r3, r9
10001cbc:	465a      	mov	r2, fp
10001cbe:	4641      	mov	r1, r8
10001cc0:	54e2      	strb	r2, [r4, r3]
10001cc2:	0038      	movs	r0, r7
10001cc4:	3afd      	subs	r2, #253	; 0xfd
10001cc6:	f000 f909 	bl	10001edc <_ZN3SPI10transfernbEPKhPhm>
10001cca:	7c23      	ldrb	r3, [r4, #16]
10001ccc:	2101      	movs	r1, #1
10001cce:	55a3      	strb	r3, [r4, r6]
10001cd0:	7c63      	ldrb	r3, [r4, #17]
10001cd2:	8960      	ldrh	r0, [r4, #10]
10001cd4:	469b      	mov	fp, r3
10001cd6:	f000 f8bf 	bl	10001e58 <_ZN4GPIO5writeEii>
10001cda:	2100      	movs	r1, #0
10001cdc:	6e60      	ldr	r0, [r4, #100]	; 0x64
10001cde:	f000 fd8f 	bl	10002800 <sleep_us>
10001ce2:	f000 f91b 	bl	10001f1c <_ZN3SPI14endTransactionEv>
10001ce6:	68e0      	ldr	r0, [r4, #12]
10001ce8:	f000 f904 	bl	10001ef4 <_ZN3SPI16beginTransactionEm>
10001cec:	2100      	movs	r1, #0
10001cee:	8960      	ldrh	r0, [r4, #10]
10001cf0:	f000 f8b2 	bl	10001e58 <_ZN4GPIO5writeEii>
10001cf4:	2100      	movs	r1, #0
10001cf6:	6e60      	ldr	r0, [r4, #100]	; 0x64
10001cf8:	f000 fd82 	bl	10002800 <sleep_us>
10001cfc:	233c      	movs	r3, #60	; 0x3c
10001cfe:	4652      	mov	r2, sl
10001d00:	54a3      	strb	r3, [r4, r2]
10001d02:	465a      	mov	r2, fp
10001d04:	2303      	movs	r3, #3
10001d06:	4313      	orrs	r3, r2
10001d08:	464a      	mov	r2, r9
10001d0a:	4641      	mov	r1, r8
10001d0c:	54a3      	strb	r3, [r4, r2]
10001d0e:	0038      	movs	r0, r7
10001d10:	3a30      	subs	r2, #48	; 0x30
10001d12:	f000 f8e3 	bl	10001edc <_ZN3SPI10transfernbEPKhPhm>
10001d16:	7c23      	ldrb	r3, [r4, #16]
10001d18:	2101      	movs	r1, #1
10001d1a:	55a3      	strb	r3, [r4, r6]
10001d1c:	8960      	ldrh	r0, [r4, #10]
10001d1e:	f000 f89b 	bl	10001e58 <_ZN4GPIO5writeEii>
10001d22:	2100      	movs	r1, #0
10001d24:	6e60      	ldr	r0, [r4, #100]	; 0x64
10001d26:	f000 fd6b 	bl	10002800 <sleep_us>
10001d2a:	f000 f8f7 	bl	10001f1c <_ZN3SPI14endTransactionEv>
10001d2e:	2301      	movs	r3, #1
10001d30:	225e      	movs	r2, #94	; 0x5e
10001d32:	54a3      	strb	r3, [r4, r2]
10001d34:	5563      	strb	r3, [r4, r5]
10001d36:	e757      	b.n	10001be8 <_ZN4RF2416enableAckPayloadEv+0x18>

10001d38 <_ZN4RF2415writeAckPayloadEhPKvh>:
10001d38:	b570      	push	{r4, r5, r6, lr}
10001d3a:	000d      	movs	r5, r1
10001d3c:	0011      	movs	r1, r2
10001d3e:	001a      	movs	r2, r3
10001d40:	235c      	movs	r3, #92	; 0x5c
10001d42:	0004      	movs	r4, r0
10001d44:	5cc0      	ldrb	r0, [r0, r3]
10001d46:	2800      	cmp	r0, #0
10001d48:	d100      	bne.n	10001d4c <_ZN4RF2415writeAckPayloadEhPKvh+0x14>
10001d4a:	bd70      	pop	{r4, r5, r6, pc}
10001d4c:	3b55      	subs	r3, #85	; 0x55
10001d4e:	401d      	ands	r5, r3
10001d50:	33a1      	adds	r3, #161	; 0xa1
10001d52:	0020      	movs	r0, r4
10001d54:	432b      	orrs	r3, r5
10001d56:	f7fe fc87 	bl	10000668 <_ZN4RF2413write_payloadEPKvhh>
10001d5a:	2352      	movs	r3, #82	; 0x52
10001d5c:	2001      	movs	r0, #1
10001d5e:	5ce3      	ldrb	r3, [r4, r3]
10001d60:	4398      	bics	r0, r3
10001d62:	e7f2      	b.n	10001d4a <_ZN4RF2415writeAckPayloadEhPKvh+0x12>

10001d64 <_ZN4RF2410setPALevelEhb>:
10001d64:	b5f8      	push	{r3, r4, r5, r6, r7, lr}
10001d66:	46ce      	mov	lr, r9
10001d68:	4647      	mov	r7, r8
10001d6a:	0004      	movs	r4, r0
10001d6c:	b580      	push	{r7, lr}
10001d6e:	68c0      	ldr	r0, [r0, #12]
10001d70:	4689      	mov	r9, r1
10001d72:	0016      	movs	r6, r2
10001d74:	f000 f8be 	bl	10001ef4 <_ZN3SPI16beginTransactionEm>
10001d78:	2100      	movs	r1, #0
10001d7a:	8960      	ldrh	r0, [r4, #10]
10001d7c:	f000 f86c 	bl	10001e58 <_ZN4GPIO5writeEii>
10001d80:	2100      	movs	r1, #0
10001d82:	6e60      	ldr	r0, [r4, #100]	; 0x64
10001d84:	f000 fd3c 	bl	10002800 <sleep_us>
10001d88:	2331      	movs	r3, #49	; 0x31
10001d8a:	2206      	movs	r2, #6
10001d8c:	54e2      	strb	r2, [r4, r3]
10001d8e:	3301      	adds	r3, #1
10001d90:	32f9      	adds	r2, #249	; 0xf9
10001d92:	54e2      	strb	r2, [r4, r3]
10001d94:	3b22      	subs	r3, #34	; 0x22
10001d96:	4698      	mov	r8, r3
10001d98:	0027      	movs	r7, r4
10001d9a:	44a0      	add	r8, r4
10001d9c:	3731      	adds	r7, #49	; 0x31
10001d9e:	4641      	mov	r1, r8
10001da0:	0038      	movs	r0, r7
10001da2:	3afd      	subs	r2, #253	; 0xfd
10001da4:	f000 f89a 	bl	10001edc <_ZN3SPI10transfernbEPKhPhm>
10001da8:	2352      	movs	r3, #82	; 0x52
10001daa:	7c22      	ldrb	r2, [r4, #16]
10001dac:	2101      	movs	r1, #1
10001dae:	54e2      	strb	r2, [r4, r3]
10001db0:	8960      	ldrh	r0, [r4, #10]
10001db2:	7c65      	ldrb	r5, [r4, #17]
10001db4:	f000 f850 	bl	10001e58 <_ZN4GPIO5writeEii>
10001db8:	2100      	movs	r1, #0
10001dba:	6e60      	ldr	r0, [r4, #100]	; 0x64
10001dbc:	f000 fd20 	bl	10002800 <sleep_us>
10001dc0:	f000 f8ac 	bl	10001f1c <_ZN3SPI14endTransactionEv>
10001dc4:	2307      	movs	r3, #7
10001dc6:	439d      	bics	r5, r3
10001dc8:	464b      	mov	r3, r9
10001dca:	464a      	mov	r2, r9
10001dcc:	2b03      	cmp	r3, #3
10001dce:	d900      	bls.n	10001dd2 <_ZN4RF2410setPALevelEhb+0x6e>
10001dd0:	2203      	movs	r2, #3
10001dd2:	0052      	lsls	r2, r2, #1
10001dd4:	18b2      	adds	r2, r6, r2
10001dd6:	68e0      	ldr	r0, [r4, #12]
10001dd8:	4315      	orrs	r5, r2
10001dda:	f000 f88b 	bl	10001ef4 <_ZN3SPI16beginTransactionEm>
10001dde:	8960      	ldrh	r0, [r4, #10]
10001de0:	2100      	movs	r1, #0
10001de2:	f000 f839 	bl	10001e58 <_ZN4GPIO5writeEii>
10001de6:	6e60      	ldr	r0, [r4, #100]	; 0x64
10001de8:	2100      	movs	r1, #0
10001dea:	f000 fd09 	bl	10002800 <sleep_us>
10001dee:	2331      	movs	r3, #49	; 0x31
10001df0:	2226      	movs	r2, #38	; 0x26
10001df2:	b2ed      	uxtb	r5, r5
10001df4:	54e2      	strb	r2, [r4, r3]
10001df6:	3301      	adds	r3, #1
10001df8:	4641      	mov	r1, r8
10001dfa:	0038      	movs	r0, r7
10001dfc:	54e5      	strb	r5, [r4, r3]
10001dfe:	3a24      	subs	r2, #36	; 0x24
10001e00:	f000 f86c 	bl	10001edc <_ZN3SPI10transfernbEPKhPhm>
10001e04:	2352      	movs	r3, #82	; 0x52
10001e06:	7c22      	ldrb	r2, [r4, #16]
10001e08:	2101      	movs	r1, #1
10001e0a:	54e2      	strb	r2, [r4, r3]
10001e0c:	8960      	ldrh	r0, [r4, #10]
10001e0e:	f000 f823 	bl	10001e58 <_ZN4GPIO5writeEii>
10001e12:	2100      	movs	r1, #0
10001e14:	6e60      	ldr	r0, [r4, #100]	; 0x64
10001e16:	f000 fcf3 	bl	10002800 <sleep_us>
10001e1a:	f000 f87f 	bl	10001f1c <_ZN3SPI14endTransactionEv>
10001e1e:	bc0c      	pop	{r2, r3}
10001e20:	4690      	mov	r8, r2
10001e22:	4699      	mov	r9, r3
10001e24:	bdf8      	pop	{r3, r4, r5, r6, r7, pc}
10001e26:	46c0      	nop			; (mov r8, r8)

10001e28 <_GLOBAL__sub_I__ZN4RF243csnEb>:
10001e28:	b510      	push	{r4, lr}
10001e2a:	4802      	ldr	r0, [pc, #8]	; (10001e34 <_GLOBAL__sub_I__ZN4RF243csnEb+0xc>)
10001e2c:	f000 f828 	bl	10001e80 <_ZN3SPIC1Ev>
10001e30:	bd10      	pop	{r4, pc}
10001e32:	46c0      	nop			; (mov r8, r8)
10001e34:	20000e94 	.word	0x20000e94

10001e38 <_ZN4GPIO4openEii>:
10001e38:	b570      	push	{r4, r5, r6, lr}
10001e3a:	0004      	movs	r4, r0
10001e3c:	000d      	movs	r5, r1
10001e3e:	f000 f88d 	bl	10001f5c <gpio_init>
10001e42:	2301      	movs	r3, #1
10001e44:	22d0      	movs	r2, #208	; 0xd0
10001e46:	40a3      	lsls	r3, r4
10001e48:	0612      	lsls	r2, r2, #24
10001e4a:	2d00      	cmp	r5, #0
10001e4c:	d001      	beq.n	10001e52 <_ZN4GPIO4openEii+0x1a>
10001e4e:	6253      	str	r3, [r2, #36]	; 0x24
10001e50:	bd70      	pop	{r4, r5, r6, pc}
10001e52:	6293      	str	r3, [r2, #40]	; 0x28
10001e54:	e7fc      	b.n	10001e50 <_ZN4GPIO4openEii+0x18>
10001e56:	46c0      	nop			; (mov r8, r8)

10001e58 <_ZN4GPIO5writeEii>:
10001e58:	2301      	movs	r3, #1
10001e5a:	22d0      	movs	r2, #208	; 0xd0
10001e5c:	4083      	lsls	r3, r0
10001e5e:	0612      	lsls	r2, r2, #24
10001e60:	2900      	cmp	r1, #0
10001e62:	d001      	beq.n	10001e68 <_ZN4GPIO5writeEii+0x10>
10001e64:	6153      	str	r3, [r2, #20]
10001e66:	4770      	bx	lr
10001e68:	6193      	str	r3, [r2, #24]
10001e6a:	e7fc      	b.n	10001e66 <_ZN4GPIO5writeEii+0xe>

10001e6c <_ZN3SPID1Ev>:
10001e6c:	4770      	bx	lr
10001e6e:	46c0      	nop			; (mov r8, r8)

10001e70 <_ZN3SPID0Ev>:
10001e70:	b510      	push	{r4, lr}
10001e72:	0004      	movs	r4, r0
10001e74:	2104      	movs	r1, #4
10001e76:	f003 ffbd 	bl	10005df4 <_ZdlPvj>
10001e7a:	0020      	movs	r0, r4
10001e7c:	bd10      	pop	{r4, pc}
10001e7e:	46c0      	nop			; (mov r8, r8)

10001e80 <_ZN3SPIC1Ev>:
10001e80:	4b01      	ldr	r3, [pc, #4]	; (10001e88 <_ZN3SPIC1Ev+0x8>)
10001e82:	3308      	adds	r3, #8
10001e84:	6003      	str	r3, [r0, #0]
10001e86:	4770      	bx	lr
10001e88:	100099bc 	.word	0x100099bc

10001e8c <_ZN3SPI5beginEP8spi_inst>:
10001e8c:	b510      	push	{r4, lr}
10001e8e:	4b07      	ldr	r3, [pc, #28]	; (10001eac <_ZN3SPI5beginEP8spi_inst+0x20>)
10001e90:	2101      	movs	r1, #1
10001e92:	6018      	str	r0, [r3, #0]
10001e94:	2012      	movs	r0, #18
10001e96:	f000 f849 	bl	10001f2c <gpio_set_function>
10001e9a:	2101      	movs	r1, #1
10001e9c:	2013      	movs	r0, #19
10001e9e:	f000 f845 	bl	10001f2c <gpio_set_function>
10001ea2:	2101      	movs	r1, #1
10001ea4:	2010      	movs	r0, #16
10001ea6:	f000 f841 	bl	10001f2c <gpio_set_function>
10001eaa:	bd10      	pop	{r4, pc}
10001eac:	20000e98 	.word	0x20000e98

10001eb0 <_ZN3SPI8transferEh>:
10001eb0:	b500      	push	{lr}
10001eb2:	b085      	sub	sp, #20
10001eb4:	466b      	mov	r3, sp
10001eb6:	466a      	mov	r2, sp
10001eb8:	1dd9      	adds	r1, r3, #7
10001eba:	2300      	movs	r3, #0
10001ebc:	73d3      	strb	r3, [r2, #15]
10001ebe:	220f      	movs	r2, #15
10001ec0:	4b05      	ldr	r3, [pc, #20]	; (10001ed8 <_ZN3SPI8transferEh+0x28>)
10001ec2:	7008      	strb	r0, [r1, #0]
10001ec4:	446a      	add	r2, sp
10001ec6:	6818      	ldr	r0, [r3, #0]
10001ec8:	2301      	movs	r3, #1
10001eca:	f007 fc3d 	bl	10009748 <__spi_write_read_blocking_veneer>
10001ece:	466b      	mov	r3, sp
10001ed0:	7bd8      	ldrb	r0, [r3, #15]
10001ed2:	b005      	add	sp, #20
10001ed4:	bd00      	pop	{pc}
10001ed6:	46c0      	nop			; (mov r8, r8)
10001ed8:	20000e98 	.word	0x20000e98

10001edc <_ZN3SPI10transfernbEPKhPhm>:
10001edc:	b510      	push	{r4, lr}
10001ede:	0004      	movs	r4, r0
10001ee0:	0013      	movs	r3, r2
10001ee2:	4a03      	ldr	r2, [pc, #12]	; (10001ef0 <_ZN3SPI10transfernbEPKhPhm+0x14>)
10001ee4:	6810      	ldr	r0, [r2, #0]
10001ee6:	000a      	movs	r2, r1
10001ee8:	0021      	movs	r1, r4
10001eea:	f007 fc2d 	bl	10009748 <__spi_write_read_blocking_veneer>
10001eee:	bd10      	pop	{r4, pc}
10001ef0:	20000e98 	.word	0x20000e98

10001ef4 <_ZN3SPI16beginTransactionEm>:
10001ef4:	b510      	push	{r4, lr}
10001ef6:	4c08      	ldr	r4, [pc, #32]	; (10001f18 <_ZN3SPI16beginTransactionEm+0x24>)
10001ef8:	0001      	movs	r1, r0
10001efa:	6820      	ldr	r0, [r4, #0]
10001efc:	f006 fef6 	bl	10008cec <spi_init>
10001f00:	2107      	movs	r1, #7
10001f02:	6820      	ldr	r0, [r4, #0]
10001f04:	2380      	movs	r3, #128	; 0x80
10001f06:	6802      	ldr	r2, [r0, #0]
10001f08:	015b      	lsls	r3, r3, #5
10001f0a:	4051      	eors	r1, r2
10001f0c:	22cf      	movs	r2, #207	; 0xcf
10001f0e:	4303      	orrs	r3, r0
10001f10:	400a      	ands	r2, r1
10001f12:	601a      	str	r2, [r3, #0]
10001f14:	bd10      	pop	{r4, pc}
10001f16:	46c0      	nop			; (mov r8, r8)
10001f18:	20000e98 	.word	0x20000e98

10001f1c <_ZN3SPI14endTransactionEv>:
10001f1c:	b510      	push	{r4, lr}
10001f1e:	4b02      	ldr	r3, [pc, #8]	; (10001f28 <_ZN3SPI14endTransactionEv+0xc>)
10001f20:	6818      	ldr	r0, [r3, #0]
10001f22:	f006 ff5d 	bl	10008de0 <spi_deinit>
10001f26:	bd10      	pop	{r4, pc}
10001f28:	20000e98 	.word	0x20000e98

10001f2c <gpio_set_function>:
10001f2c:	4a09      	ldr	r2, [pc, #36]	; (10001f54 <gpio_set_function+0x28>)
10001f2e:	0083      	lsls	r3, r0, #2
10001f30:	4694      	mov	ip, r2
10001f32:	2240      	movs	r2, #64	; 0x40
10001f34:	4463      	add	r3, ip
10001f36:	b510      	push	{r4, lr}
10001f38:	681c      	ldr	r4, [r3, #0]
10001f3a:	00c0      	lsls	r0, r0, #3
10001f3c:	4062      	eors	r2, r4
10001f3e:	24c0      	movs	r4, #192	; 0xc0
10001f40:	4014      	ands	r4, r2
10001f42:	2280      	movs	r2, #128	; 0x80
10001f44:	0152      	lsls	r2, r2, #5
10001f46:	4313      	orrs	r3, r2
10001f48:	601c      	str	r4, [r3, #0]
10001f4a:	4b03      	ldr	r3, [pc, #12]	; (10001f58 <gpio_set_function+0x2c>)
10001f4c:	469c      	mov	ip, r3
10001f4e:	4460      	add	r0, ip
10001f50:	6041      	str	r1, [r0, #4]
10001f52:	bd10      	pop	{r4, pc}
10001f54:	4001c004 	.word	0x4001c004
10001f58:	40014000 	.word	0x40014000

10001f5c <gpio_init>:
10001f5c:	2301      	movs	r3, #1
10001f5e:	22d0      	movs	r2, #208	; 0xd0
10001f60:	4083      	lsls	r3, r0
10001f62:	0612      	lsls	r2, r2, #24
10001f64:	6293      	str	r3, [r2, #40]	; 0x28
10001f66:	6193      	str	r3, [r2, #24]
10001f68:	4a09      	ldr	r2, [pc, #36]	; (10001f90 <gpio_init+0x34>)
10001f6a:	0083      	lsls	r3, r0, #2
10001f6c:	4694      	mov	ip, r2
10001f6e:	2240      	movs	r2, #64	; 0x40
10001f70:	4463      	add	r3, ip
10001f72:	6819      	ldr	r1, [r3, #0]
10001f74:	00c0      	lsls	r0, r0, #3
10001f76:	404a      	eors	r2, r1
10001f78:	21c0      	movs	r1, #192	; 0xc0
10001f7a:	4011      	ands	r1, r2
10001f7c:	2280      	movs	r2, #128	; 0x80
10001f7e:	0152      	lsls	r2, r2, #5
10001f80:	4313      	orrs	r3, r2
10001f82:	6019      	str	r1, [r3, #0]
10001f84:	4b03      	ldr	r3, [pc, #12]	; (10001f94 <gpio_init+0x38>)
10001f86:	469c      	mov	ip, r3
10001f88:	2305      	movs	r3, #5
10001f8a:	4460      	add	r0, ip
10001f8c:	6043      	str	r3, [r0, #4]
10001f8e:	4770      	bx	lr
10001f90:	4001c004 	.word	0x4001c004
10001f94:	40014000 	.word	0x40014000

10001f98 <hw_claim_or_assert>:
10001f98:	b5f8      	push	{r3, r4, r5, r6, r7, lr}
10001f9a:	f3ef 8710 	mrs	r7, PRIMASK
10001f9e:	b672      	cpsid	i
10001fa0:	4e0e      	ldr	r6, [pc, #56]	; (10001fdc <hw_claim_or_assert+0x44>)
10001fa2:	6833      	ldr	r3, [r6, #0]
10001fa4:	2b00      	cmp	r3, #0
10001fa6:	d0fc      	beq.n	10001fa2 <hw_claim_or_assert+0xa>
10001fa8:	f3bf 8f5f 	dmb	sy
10001fac:	08cb      	lsrs	r3, r1, #3
10001fae:	18c4      	adds	r4, r0, r3
10001fb0:	2507      	movs	r5, #7
10001fb2:	46a4      	mov	ip, r4
10001fb4:	5cc4      	ldrb	r4, [r0, r3]
10001fb6:	2301      	movs	r3, #1
10001fb8:	400d      	ands	r5, r1
10001fba:	40ab      	lsls	r3, r5
10001fbc:	0018      	movs	r0, r3
10001fbe:	4020      	ands	r0, r4
10001fc0:	4223      	tst	r3, r4
10001fc2:	d108      	bne.n	10001fd6 <hw_claim_or_assert+0x3e>
10001fc4:	4662      	mov	r2, ip
10001fc6:	4323      	orrs	r3, r4
10001fc8:	7013      	strb	r3, [r2, #0]
10001fca:	f3bf 8f5f 	dmb	sy
10001fce:	6030      	str	r0, [r6, #0]
10001fd0:	f387 8810 	msr	PRIMASK, r7
10001fd4:	bdf8      	pop	{r3, r4, r5, r6, r7, pc}
10001fd6:	0010      	movs	r0, r2
10001fd8:	f001 f8ec 	bl	100031b4 <panic>
10001fdc:	d000012c 	.word	0xd000012c

10001fe0 <hw_claim_unused_from_range>:
10001fe0:	b5f8      	push	{r3, r4, r5, r6, r7, lr}
10001fe2:	46ce      	mov	lr, r9
10001fe4:	4647      	mov	r7, r8
10001fe6:	468c      	mov	ip, r1
10001fe8:	b580      	push	{r7, lr}
10001fea:	f3ef 8810 	mrs	r8, PRIMASK
10001fee:	b672      	cpsid	i
10001ff0:	4d21      	ldr	r5, [pc, #132]	; (10002078 <hw_claim_unused_from_range+0x98>)
10001ff2:	682c      	ldr	r4, [r5, #0]
10001ff4:	2c00      	cmp	r4, #0
10001ff6:	d0fc      	beq.n	10001ff2 <hw_claim_unused_from_range+0x12>
10001ff8:	f3bf 8f5f 	dmb	sy
10001ffc:	429a      	cmp	r2, r3
10001ffe:	d82c      	bhi.n	1000205a <hw_claim_unused_from_range+0x7a>
10002000:	08d4      	lsrs	r4, r2, #3
10002002:	2107      	movs	r1, #7
10002004:	5d05      	ldrb	r5, [r0, r4]
10002006:	1906      	adds	r6, r0, r4
10002008:	2401      	movs	r4, #1
1000200a:	4011      	ands	r1, r2
1000200c:	408c      	lsls	r4, r1
1000200e:	422c      	tst	r4, r5
10002010:	d01f      	beq.n	10002052 <hw_claim_unused_from_range+0x72>
10002012:	2107      	movs	r1, #7
10002014:	4689      	mov	r9, r1
10002016:	3906      	subs	r1, #6
10002018:	e009      	b.n	1000202e <hw_claim_unused_from_range+0x4e>
1000201a:	08d4      	lsrs	r4, r2, #3
1000201c:	5d05      	ldrb	r5, [r0, r4]
1000201e:	1906      	adds	r6, r0, r4
10002020:	464c      	mov	r4, r9
10002022:	000f      	movs	r7, r1
10002024:	4014      	ands	r4, r2
10002026:	40a7      	lsls	r7, r4
10002028:	003c      	movs	r4, r7
1000202a:	422f      	tst	r7, r5
1000202c:	d011      	beq.n	10002052 <hw_claim_unused_from_range+0x72>
1000202e:	3201      	adds	r2, #1
10002030:	4293      	cmp	r3, r2
10002032:	d2f2      	bcs.n	1000201a <hw_claim_unused_from_range+0x3a>
10002034:	2001      	movs	r0, #1
10002036:	4240      	negs	r0, r0
10002038:	f3bf 8f5f 	dmb	sy
1000203c:	2200      	movs	r2, #0
1000203e:	4b0e      	ldr	r3, [pc, #56]	; (10002078 <hw_claim_unused_from_range+0x98>)
10002040:	601a      	str	r2, [r3, #0]
10002042:	f388 8810 	msr	PRIMASK, r8
10002046:	2800      	cmp	r0, #0
10002048:	db0f      	blt.n	1000206a <hw_claim_unused_from_range+0x8a>
1000204a:	bc0c      	pop	{r2, r3}
1000204c:	4690      	mov	r8, r2
1000204e:	4699      	mov	r9, r3
10002050:	bdf8      	pop	{r3, r4, r5, r6, r7, pc}
10002052:	432c      	orrs	r4, r5
10002054:	0010      	movs	r0, r2
10002056:	7034      	strb	r4, [r6, #0]
10002058:	e7ee      	b.n	10002038 <hw_claim_unused_from_range+0x58>
1000205a:	f3bf 8f5f 	dmb	sy
1000205e:	2300      	movs	r3, #0
10002060:	602b      	str	r3, [r5, #0]
10002062:	f388 8810 	msr	PRIMASK, r8
10002066:	2001      	movs	r0, #1
10002068:	4240      	negs	r0, r0
1000206a:	4663      	mov	r3, ip
1000206c:	2b00      	cmp	r3, #0
1000206e:	d0ec      	beq.n	1000204a <hw_claim_unused_from_range+0x6a>
10002070:	9808      	ldr	r0, [sp, #32]
10002072:	f001 f89f 	bl	100031b4 <panic>
10002076:	46c0      	nop			; (mov r8, r8)
10002078:	d000012c 	.word	0xd000012c

1000207c <running_on_fpga>:
1000207c:	4b02      	ldr	r3, [pc, #8]	; (10002088 <running_on_fpga+0xc>)
1000207e:	6818      	ldr	r0, [r3, #0]
10002080:	0780      	lsls	r0, r0, #30
10002082:	0fc0      	lsrs	r0, r0, #31
10002084:	4770      	bx	lr
10002086:	46c0      	nop			; (mov r8, r8)
10002088:	4006c000 	.word	0x4006c000

1000208c <spin_locks_reset>:
1000208c:	2100      	movs	r1, #0
1000208e:	4b04      	ldr	r3, [pc, #16]	; (100020a0 <spin_locks_reset+0x14>)
10002090:	4a04      	ldr	r2, [pc, #16]	; (100020a4 <spin_locks_reset+0x18>)
10002092:	f3bf 8f5f 	dmb	sy
10002096:	c302      	stmia	r3!, {r1}
10002098:	4293      	cmp	r3, r2
1000209a:	d1fa      	bne.n	10002092 <spin_locks_reset+0x6>
1000209c:	4770      	bx	lr
1000209e:	46c0      	nop			; (mov r8, r8)
100020a0:	d0000100 	.word	0xd0000100
100020a4:	d0000180 	.word	0xd0000180

100020a8 <next_striped_spin_lock_num>:
100020a8:	4a04      	ldr	r2, [pc, #16]	; (100020bc <next_striped_spin_lock_num+0x14>)
100020aa:	7810      	ldrb	r0, [r2, #0]
100020ac:	1c43      	adds	r3, r0, #1
100020ae:	b2db      	uxtb	r3, r3
100020b0:	2b17      	cmp	r3, #23
100020b2:	d900      	bls.n	100020b6 <next_striped_spin_lock_num+0xe>
100020b4:	2310      	movs	r3, #16
100020b6:	7013      	strb	r3, [r2, #0]
100020b8:	4770      	bx	lr
100020ba:	46c0      	nop			; (mov r8, r8)
100020bc:	200003f8 	.word	0x200003f8

100020c0 <spin_lock_claim_unused>:
100020c0:	b500      	push	{lr}
100020c2:	4b05      	ldr	r3, [pc, #20]	; (100020d8 <spin_lock_claim_unused+0x18>)
100020c4:	b083      	sub	sp, #12
100020c6:	0001      	movs	r1, r0
100020c8:	9300      	str	r3, [sp, #0]
100020ca:	2218      	movs	r2, #24
100020cc:	231f      	movs	r3, #31
100020ce:	4803      	ldr	r0, [pc, #12]	; (100020dc <spin_lock_claim_unused+0x1c>)
100020d0:	f7ff ff86 	bl	10001fe0 <hw_claim_unused_from_range>
100020d4:	b003      	add	sp, #12
100020d6:	bd00      	pop	{pc}
100020d8:	100099cc 	.word	0x100099cc
100020dc:	20001340 	.word	0x20001340

100020e0 <timer_pool_entry_comparator>:
100020e0:	6883      	ldr	r3, [r0, #8]
100020e2:	480b      	ldr	r0, [pc, #44]	; (10002110 <timer_pool_entry_comparator+0x30>)
100020e4:	b510      	push	{r4, lr}
100020e6:	4684      	mov	ip, r0
100020e8:	4461      	add	r1, ip
100020ea:	4462      	add	r2, ip
100020ec:	0109      	lsls	r1, r1, #4
100020ee:	0112      	lsls	r2, r2, #4
100020f0:	189a      	adds	r2, r3, r2
100020f2:	1859      	adds	r1, r3, r1
100020f4:	6854      	ldr	r4, [r2, #4]
100020f6:	684b      	ldr	r3, [r1, #4]
100020f8:	2001      	movs	r0, #1
100020fa:	429c      	cmp	r4, r3
100020fc:	d801      	bhi.n	10002102 <timer_pool_entry_comparator+0x22>
100020fe:	d002      	beq.n	10002106 <timer_pool_entry_comparator+0x26>
10002100:	2000      	movs	r0, #0
10002102:	b2c0      	uxtb	r0, r0
10002104:	bd10      	pop	{r4, pc}
10002106:	6812      	ldr	r2, [r2, #0]
10002108:	680b      	ldr	r3, [r1, #0]
1000210a:	429a      	cmp	r2, r3
1000210c:	d8f9      	bhi.n	10002102 <timer_pool_entry_comparator+0x22>
1000210e:	e7f7      	b.n	10002100 <timer_pool_entry_comparator+0x20>
10002110:	0fffffff 	.word	0x0fffffff

10002114 <sleep_until_callback>:
10002114:	4b0a      	ldr	r3, [pc, #40]	; (10002140 <sleep_until_callback+0x2c>)
10002116:	6819      	ldr	r1, [r3, #0]
10002118:	f3ef 8010 	mrs	r0, PRIMASK
1000211c:	b672      	cpsid	i
1000211e:	680a      	ldr	r2, [r1, #0]
10002120:	2a00      	cmp	r2, #0
10002122:	d0fc      	beq.n	1000211e <sleep_until_callback+0xa>
10002124:	f3bf 8f5f 	dmb	sy
10002128:	681b      	ldr	r3, [r3, #0]
1000212a:	f3bf 8f5f 	dmb	sy
1000212e:	2200      	movs	r2, #0
10002130:	601a      	str	r2, [r3, #0]
10002132:	f380 8810 	msr	PRIMASK, r0
10002136:	bf40      	sev
10002138:	2000      	movs	r0, #0
1000213a:	2100      	movs	r1, #0
1000213c:	4770      	bx	lr
1000213e:	46c0      	nop			; (mov r8, r8)
10002140:	20001878 	.word	0x20001878

10002144 <alarm_pool_add_alarm_at.constprop.0>:
10002144:	b5f8      	push	{r3, r4, r5, r6, r7, lr}
10002146:	4657      	mov	r7, sl
10002148:	464e      	mov	r6, r9
1000214a:	4645      	mov	r5, r8
1000214c:	46de      	mov	lr, fp
1000214e:	b5e0      	push	{r5, r6, r7, lr}
10002150:	4d43      	ldr	r5, [pc, #268]	; (10002260 <alarm_pool_add_alarm_at.constprop.0+0x11c>)
10002152:	4681      	mov	r9, r0
10002154:	468a      	mov	sl, r1
10002156:	686a      	ldr	r2, [r5, #4]
10002158:	f3ef 8810 	mrs	r8, PRIMASK
1000215c:	b672      	cpsid	i
1000215e:	6813      	ldr	r3, [r2, #0]
10002160:	2b00      	cmp	r3, #0
10002162:	d0fc      	beq.n	1000215e <alarm_pool_add_alarm_at.constprop.0+0x1a>
10002164:	f3bf 8f5f 	dmb	sy
10002168:	682e      	ldr	r6, [r5, #0]
1000216a:	7bb4      	ldrb	r4, [r6, #14]
1000216c:	2c00      	cmp	r4, #0
1000216e:	d03e      	beq.n	100021ee <alarm_pool_add_alarm_at.constprop.0+0xaa>
10002170:	0067      	lsls	r7, r4, #1
10002172:	6833      	ldr	r3, [r6, #0]
10002174:	193f      	adds	r7, r7, r4
10002176:	3f03      	subs	r7, #3
10002178:	19da      	adds	r2, r3, r7
1000217a:	7853      	ldrb	r3, [r2, #1]
1000217c:	73b3      	strb	r3, [r6, #14]
1000217e:	2b00      	cmp	r3, #0
10002180:	d100      	bne.n	10002184 <alarm_pool_add_alarm_at.constprop.0+0x40>
10002182:	73f3      	strb	r3, [r6, #15]
10002184:	2300      	movs	r3, #0
10002186:	7093      	strb	r3, [r2, #2]
10002188:	7053      	strb	r3, [r2, #1]
1000218a:	7013      	strb	r3, [r2, #0]
1000218c:	68a9      	ldr	r1, [r5, #8]
1000218e:	4a35      	ldr	r2, [pc, #212]	; (10002264 <alarm_pool_add_alarm_at.constprop.0+0x120>)
10002190:	468c      	mov	ip, r1
10002192:	4649      	mov	r1, r9
10002194:	18a2      	adds	r2, r4, r2
10002196:	0112      	lsls	r2, r2, #4
10002198:	4462      	add	r2, ip
1000219a:	6011      	str	r1, [r2, #0]
1000219c:	4651      	mov	r1, sl
1000219e:	6051      	str	r1, [r2, #4]
100021a0:	4931      	ldr	r1, [pc, #196]	; (10002268 <alarm_pool_add_alarm_at.constprop.0+0x124>)
100021a2:	60d3      	str	r3, [r2, #12]
100021a4:	6091      	str	r1, [r2, #8]
100021a6:	6832      	ldr	r2, [r6, #0]
100021a8:	19d2      	adds	r2, r2, r7
100021aa:	7093      	strb	r3, [r2, #2]
100021ac:	7053      	strb	r3, [r2, #1]
100021ae:	7013      	strb	r3, [r2, #0]
100021b0:	7b73      	ldrb	r3, [r6, #13]
100021b2:	469b      	mov	fp, r3
100021b4:	2b00      	cmp	r3, #0
100021b6:	d035      	beq.n	10002224 <alarm_pool_add_alarm_at.constprop.0+0xe0>
100021b8:	0022      	movs	r2, r4
100021ba:	0019      	movs	r1, r3
100021bc:	68b0      	ldr	r0, [r6, #8]
100021be:	6873      	ldr	r3, [r6, #4]
100021c0:	4798      	blx	r3
100021c2:	6832      	ldr	r2, [r6, #0]
100021c4:	2800      	cmp	r0, #0
100021c6:	d020      	beq.n	1000220a <alarm_pool_add_alarm_at.constprop.0+0xc6>
100021c8:	465b      	mov	r3, fp
100021ca:	4658      	mov	r0, fp
100021cc:	005b      	lsls	r3, r3, #1
100021ce:	445b      	add	r3, fp
100021d0:	19d7      	adds	r7, r2, r7
100021d2:	3b03      	subs	r3, #3
100021d4:	70b8      	strb	r0, [r7, #2]
100021d6:	18d1      	adds	r1, r2, r3
100021d8:	5cd3      	ldrb	r3, [r2, r3]
100021da:	2b00      	cmp	r3, #0
100021dc:	d000      	beq.n	100021e0 <alarm_pool_add_alarm_at.constprop.0+0x9c>
100021de:	707b      	strb	r3, [r7, #1]
100021e0:	465b      	mov	r3, fp
100021e2:	700c      	strb	r4, [r1, #0]
100021e4:	7373      	strb	r3, [r6, #13]
100021e6:	455c      	cmp	r4, fp
100021e8:	d01d      	beq.n	10002226 <alarm_pool_add_alarm_at.constprop.0+0xe2>
100021ea:	2600      	movs	r6, #0
100021ec:	e026      	b.n	1000223c <alarm_pool_add_alarm_at.constprop.0+0xf8>
100021ee:	686b      	ldr	r3, [r5, #4]
100021f0:	f3bf 8f5f 	dmb	sy
100021f4:	601c      	str	r4, [r3, #0]
100021f6:	f388 8810 	msr	PRIMASK, r8
100021fa:	2001      	movs	r0, #1
100021fc:	4240      	negs	r0, r0
100021fe:	bc3c      	pop	{r2, r3, r4, r5}
10002200:	4690      	mov	r8, r2
10002202:	4699      	mov	r9, r3
10002204:	46a2      	mov	sl, r4
10002206:	46ab      	mov	fp, r5
10002208:	bdf8      	pop	{r3, r4, r5, r6, r7, pc}
1000220a:	465b      	mov	r3, fp
1000220c:	005b      	lsls	r3, r3, #1
1000220e:	445b      	add	r3, fp
10002210:	3b03      	subs	r3, #3
10002212:	18d3      	adds	r3, r2, r3
10002214:	709c      	strb	r4, [r3, #2]
10002216:	19d1      	adds	r1, r2, r7
10002218:	5dd2      	ldrb	r2, [r2, r7]
1000221a:	2a00      	cmp	r2, #0
1000221c:	d000      	beq.n	10002220 <alarm_pool_add_alarm_at.constprop.0+0xdc>
1000221e:	705a      	strb	r2, [r3, #1]
10002220:	465b      	mov	r3, fp
10002222:	700b      	strb	r3, [r1, #0]
10002224:	7374      	strb	r4, [r6, #13]
10002226:	464a      	mov	r2, r9
10002228:	4653      	mov	r3, sl
1000222a:	7d28      	ldrb	r0, [r5, #20]
1000222c:	f000 fc78 	bl	10002b20 <hardware_alarm_set_target>
10002230:	1e06      	subs	r6, r0, #0
10002232:	d0da      	beq.n	100021ea <alarm_pool_add_alarm_at.constprop.0+0xa6>
10002234:	0021      	movs	r1, r4
10002236:	6828      	ldr	r0, [r5, #0]
10002238:	f000 feea 	bl	10003010 <ph_remove_and_free_node>
1000223c:	68eb      	ldr	r3, [r5, #12]
1000223e:	686a      	ldr	r2, [r5, #4]
10002240:	191b      	adds	r3, r3, r4
10002242:	3b01      	subs	r3, #1
10002244:	781b      	ldrb	r3, [r3, #0]
10002246:	f3bf 8f5f 	dmb	sy
1000224a:	2100      	movs	r1, #0
1000224c:	6011      	str	r1, [r2, #0]
1000224e:	f388 8810 	msr	PRIMASK, r8
10002252:	2000      	movs	r0, #0
10002254:	2e00      	cmp	r6, #0
10002256:	d1d2      	bne.n	100021fe <alarm_pool_add_alarm_at.constprop.0+0xba>
10002258:	0218      	lsls	r0, r3, #8
1000225a:	4320      	orrs	r0, r4
1000225c:	e7cf      	b.n	100021fe <alarm_pool_add_alarm_at.constprop.0+0xba>
1000225e:	46c0      	nop			; (mov r8, r8)
10002260:	200003fc 	.word	0x200003fc
10002264:	0fffffff 	.word	0x0fffffff
10002268:	10002115 	.word	0x10002115

1000226c <add_alarm_under_lock>:
1000226c:	b5f8      	push	{r3, r4, r5, r6, r7, lr}
1000226e:	4657      	mov	r7, sl
10002270:	4645      	mov	r5, r8
10002272:	464e      	mov	r6, r9
10002274:	46de      	mov	lr, fp
10002276:	b5e0      	push	{r5, r6, r7, lr}
10002278:	4699      	mov	r9, r3
1000227a:	ab0c      	add	r3, sp, #48	; 0x30
1000227c:	7819      	ldrb	r1, [r3, #0]
1000227e:	ab0d      	add	r3, sp, #52	; 0x34
10002280:	781b      	ldrb	r3, [r3, #0]
10002282:	0005      	movs	r5, r0
10002284:	4690      	mov	r8, r2
10002286:	469a      	mov	sl, r3
10002288:	6807      	ldr	r7, [r0, #0]
1000228a:	2900      	cmp	r1, #0
1000228c:	d112      	bne.n	100022b4 <add_alarm_under_lock+0x48>
1000228e:	7bbe      	ldrb	r6, [r7, #14]
10002290:	2e00      	cmp	r6, #0
10002292:	d045      	beq.n	10002320 <add_alarm_under_lock+0xb4>
10002294:	0074      	lsls	r4, r6, #1
10002296:	683b      	ldr	r3, [r7, #0]
10002298:	19a4      	adds	r4, r4, r6
1000229a:	3c03      	subs	r4, #3
1000229c:	191b      	adds	r3, r3, r4
1000229e:	785a      	ldrb	r2, [r3, #1]
100022a0:	0031      	movs	r1, r6
100022a2:	73ba      	strb	r2, [r7, #14]
100022a4:	2a00      	cmp	r2, #0
100022a6:	d100      	bne.n	100022aa <add_alarm_under_lock+0x3e>
100022a8:	73fa      	strb	r2, [r7, #15]
100022aa:	2200      	movs	r2, #0
100022ac:	709a      	strb	r2, [r3, #2]
100022ae:	705a      	strb	r2, [r3, #1]
100022b0:	701a      	strb	r2, [r3, #0]
100022b2:	e003      	b.n	100022bc <add_alarm_under_lock+0x50>
100022b4:	000e      	movs	r6, r1
100022b6:	004c      	lsls	r4, r1, #1
100022b8:	1864      	adds	r4, r4, r1
100022ba:	3c03      	subs	r4, #3
100022bc:	4b2c      	ldr	r3, [pc, #176]	; (10002370 <add_alarm_under_lock+0x104>)
100022be:	2200      	movs	r2, #0
100022c0:	469c      	mov	ip, r3
100022c2:	68ab      	ldr	r3, [r5, #8]
100022c4:	4461      	add	r1, ip
100022c6:	469c      	mov	ip, r3
100022c8:	4643      	mov	r3, r8
100022ca:	0109      	lsls	r1, r1, #4
100022cc:	4461      	add	r1, ip
100022ce:	600b      	str	r3, [r1, #0]
100022d0:	464b      	mov	r3, r9
100022d2:	604b      	str	r3, [r1, #4]
100022d4:	9b0a      	ldr	r3, [sp, #40]	; 0x28
100022d6:	608b      	str	r3, [r1, #8]
100022d8:	9b0b      	ldr	r3, [sp, #44]	; 0x2c
100022da:	60cb      	str	r3, [r1, #12]
100022dc:	683b      	ldr	r3, [r7, #0]
100022de:	191b      	adds	r3, r3, r4
100022e0:	709a      	strb	r2, [r3, #2]
100022e2:	705a      	strb	r2, [r3, #1]
100022e4:	701a      	strb	r2, [r3, #0]
100022e6:	7b7b      	ldrb	r3, [r7, #13]
100022e8:	469b      	mov	fp, r3
100022ea:	2b00      	cmp	r3, #0
100022ec:	d02c      	beq.n	10002348 <add_alarm_under_lock+0xdc>
100022ee:	0032      	movs	r2, r6
100022f0:	4659      	mov	r1, fp
100022f2:	68b8      	ldr	r0, [r7, #8]
100022f4:	687b      	ldr	r3, [r7, #4]
100022f6:	4798      	blx	r3
100022f8:	683a      	ldr	r2, [r7, #0]
100022fa:	2800      	cmp	r0, #0
100022fc:	d017      	beq.n	1000232e <add_alarm_under_lock+0xc2>
100022fe:	465b      	mov	r3, fp
10002300:	4658      	mov	r0, fp
10002302:	005b      	lsls	r3, r3, #1
10002304:	445b      	add	r3, fp
10002306:	1914      	adds	r4, r2, r4
10002308:	3b03      	subs	r3, #3
1000230a:	70a0      	strb	r0, [r4, #2]
1000230c:	18d1      	adds	r1, r2, r3
1000230e:	5cd3      	ldrb	r3, [r2, r3]
10002310:	2b00      	cmp	r3, #0
10002312:	d000      	beq.n	10002316 <add_alarm_under_lock+0xaa>
10002314:	7063      	strb	r3, [r4, #1]
10002316:	465b      	mov	r3, fp
10002318:	700e      	strb	r6, [r1, #0]
1000231a:	737b      	strb	r3, [r7, #13]
1000231c:	45b3      	cmp	fp, r6
1000231e:	d014      	beq.n	1000234a <add_alarm_under_lock+0xde>
10002320:	0030      	movs	r0, r6
10002322:	bc3c      	pop	{r2, r3, r4, r5}
10002324:	4690      	mov	r8, r2
10002326:	4699      	mov	r9, r3
10002328:	46a2      	mov	sl, r4
1000232a:	46ab      	mov	fp, r5
1000232c:	bdf8      	pop	{r3, r4, r5, r6, r7, pc}
1000232e:	465b      	mov	r3, fp
10002330:	005b      	lsls	r3, r3, #1
10002332:	445b      	add	r3, fp
10002334:	3b03      	subs	r3, #3
10002336:	18d3      	adds	r3, r2, r3
10002338:	709e      	strb	r6, [r3, #2]
1000233a:	1911      	adds	r1, r2, r4
1000233c:	5d12      	ldrb	r2, [r2, r4]
1000233e:	2a00      	cmp	r2, #0
10002340:	d000      	beq.n	10002344 <add_alarm_under_lock+0xd8>
10002342:	705a      	strb	r2, [r3, #1]
10002344:	465b      	mov	r3, fp
10002346:	700b      	strb	r3, [r1, #0]
10002348:	737e      	strb	r6, [r7, #13]
1000234a:	4642      	mov	r2, r8
1000234c:	464b      	mov	r3, r9
1000234e:	7d28      	ldrb	r0, [r5, #20]
10002350:	f000 fbe6 	bl	10002b20 <hardware_alarm_set_target>
10002354:	1e04      	subs	r4, r0, #0
10002356:	d006      	beq.n	10002366 <add_alarm_under_lock+0xfa>
10002358:	4653      	mov	r3, sl
1000235a:	2b00      	cmp	r3, #0
1000235c:	d103      	bne.n	10002366 <add_alarm_under_lock+0xfa>
1000235e:	0031      	movs	r1, r6
10002360:	6828      	ldr	r0, [r5, #0]
10002362:	f000 fe55 	bl	10003010 <ph_remove_and_free_node>
10002366:	9b0e      	ldr	r3, [sp, #56]	; 0x38
10002368:	2b00      	cmp	r3, #0
1000236a:	d0d9      	beq.n	10002320 <add_alarm_under_lock+0xb4>
1000236c:	701c      	strb	r4, [r3, #0]
1000236e:	e7d7      	b.n	10002320 <add_alarm_under_lock+0xb4>
10002370:	0fffffff 	.word	0x0fffffff

10002374 <alarm_pool_alarm_callback>:
10002374:	b5f0      	push	{r4, r5, r6, r7, lr}
10002376:	46de      	mov	lr, fp
10002378:	464e      	mov	r6, r9
1000237a:	4657      	mov	r7, sl
1000237c:	4645      	mov	r5, r8
1000237e:	2300      	movs	r3, #0
10002380:	b5e0      	push	{r5, r6, r7, lr}
10002382:	b08d      	sub	sp, #52	; 0x34
10002384:	930a      	str	r3, [sp, #40]	; 0x28
10002386:	4b6b      	ldr	r3, [pc, #428]	; (10002534 <alarm_pool_alarm_callback+0x1c0>)
10002388:	0082      	lsls	r2, r0, #2
1000238a:	58d3      	ldr	r3, [r2, r3]
1000238c:	900b      	str	r0, [sp, #44]	; 0x2c
1000238e:	4699      	mov	r9, r3
10002390:	2300      	movs	r3, #0
10002392:	469b      	mov	fp, r3
10002394:	464b      	mov	r3, r9
10002396:	9307      	str	r3, [sp, #28]
10002398:	f000 fb38 	bl	10002a0c <time_us_64>
1000239c:	9c07      	ldr	r4, [sp, #28]
1000239e:	0006      	movs	r6, r0
100023a0:	000f      	movs	r7, r1
100023a2:	6862      	ldr	r2, [r4, #4]
100023a4:	f3ef 8510 	mrs	r5, PRIMASK
100023a8:	b672      	cpsid	i
100023aa:	6813      	ldr	r3, [r2, #0]
100023ac:	2b00      	cmp	r3, #0
100023ae:	d0fc      	beq.n	100023aa <alarm_pool_alarm_callback+0x36>
100023b0:	0022      	movs	r2, r4
100023b2:	9407      	str	r4, [sp, #28]
100023b4:	f3bf 8f5f 	dmb	sy
100023b8:	6824      	ldr	r4, [r4, #0]
100023ba:	7b63      	ldrb	r3, [r4, #13]
100023bc:	4699      	mov	r9, r3
100023be:	2b00      	cmp	r3, #0
100023c0:	d067      	beq.n	10002492 <alarm_pool_alarm_callback+0x11e>
100023c2:	6892      	ldr	r2, [r2, #8]
100023c4:	4b5c      	ldr	r3, [pc, #368]	; (10002538 <alarm_pool_alarm_callback+0x1c4>)
100023c6:	4690      	mov	r8, r2
100023c8:	444b      	add	r3, r9
100023ca:	011b      	lsls	r3, r3, #4
100023cc:	4498      	add	r8, r3
100023ce:	4643      	mov	r3, r8
100023d0:	681a      	ldr	r2, [r3, #0]
100023d2:	685b      	ldr	r3, [r3, #4]
100023d4:	0010      	movs	r0, r2
100023d6:	0019      	movs	r1, r3
100023d8:	1b80      	subs	r0, r0, r6
100023da:	41b9      	sbcs	r1, r7
100023dc:	2900      	cmp	r1, #0
100023de:	dd5f      	ble.n	100024a0 <alarm_pool_alarm_callback+0x12c>
100023e0:	980b      	ldr	r0, [sp, #44]	; 0x2c
100023e2:	f000 fb9d 	bl	10002b20 <hardware_alarm_set_target>
100023e6:	2300      	movs	r3, #0
100023e8:	2600      	movs	r6, #0
100023ea:	4698      	mov	r8, r3
100023ec:	2700      	movs	r7, #0
100023ee:	469a      	mov	sl, r3
100023f0:	9c07      	ldr	r4, [sp, #28]
100023f2:	6863      	ldr	r3, [r4, #4]
100023f4:	f3bf 8f5f 	dmb	sy
100023f8:	465a      	mov	r2, fp
100023fa:	601a      	str	r2, [r3, #0]
100023fc:	f385 8810 	msr	PRIMASK, r5
10002400:	4653      	mov	r3, sl
10002402:	2b00      	cmp	r3, #0
10002404:	d108      	bne.n	10002418 <alarm_pool_alarm_callback+0xa4>
10002406:	2800      	cmp	r0, #0
10002408:	d1c6      	bne.n	10002398 <alarm_pool_alarm_callback+0x24>
1000240a:	b00d      	add	sp, #52	; 0x34
1000240c:	bc3c      	pop	{r2, r3, r4, r5}
1000240e:	4690      	mov	r8, r2
10002410:	4699      	mov	r9, r3
10002412:	46a2      	mov	sl, r4
10002414:	46ab      	mov	fp, r5
10002416:	bdf0      	pop	{r4, r5, r6, r7, pc}
10002418:	9b0a      	ldr	r3, [sp, #40]	; 0x28
1000241a:	4641      	mov	r1, r8
1000241c:	0218      	lsls	r0, r3, #8
1000241e:	464b      	mov	r3, r9
10002420:	4318      	orrs	r0, r3
10002422:	47d0      	blx	sl
10002424:	9008      	str	r0, [sp, #32]
10002426:	9109      	str	r1, [sp, #36]	; 0x24
10002428:	6862      	ldr	r2, [r4, #4]
1000242a:	f3ef 8510 	mrs	r5, PRIMASK
1000242e:	b672      	cpsid	i
10002430:	6813      	ldr	r3, [r2, #0]
10002432:	2b00      	cmp	r3, #0
10002434:	d0fc      	beq.n	10002430 <alarm_pool_alarm_callback+0xbc>
10002436:	9407      	str	r4, [sp, #28]
10002438:	f3bf 8f5f 	dmb	sy
1000243c:	9908      	ldr	r1, [sp, #32]
1000243e:	9a09      	ldr	r2, [sp, #36]	; 0x24
10002440:	2a00      	cmp	r2, #0
10002442:	db48      	blt.n	100024d6 <alarm_pool_alarm_callback+0x162>
10002444:	4311      	orrs	r1, r2
10002446:	d003      	beq.n	10002450 <alarm_pool_alarm_callback+0xdc>
10002448:	9b07      	ldr	r3, [sp, #28]
1000244a:	691b      	ldr	r3, [r3, #16]
1000244c:	2b00      	cmp	r3, #0
1000244e:	d15d      	bne.n	1000250c <alarm_pool_alarm_callback+0x198>
10002450:	9b07      	ldr	r3, [sp, #28]
10002452:	681b      	ldr	r3, [r3, #0]
10002454:	7bda      	ldrb	r2, [r3, #15]
10002456:	2a00      	cmp	r2, #0
10002458:	d007      	beq.n	1000246a <alarm_pool_alarm_callback+0xf6>
1000245a:	0051      	lsls	r1, r2, #1
1000245c:	188a      	adds	r2, r1, r2
1000245e:	6819      	ldr	r1, [r3, #0]
10002460:	468c      	mov	ip, r1
10002462:	4649      	mov	r1, r9
10002464:	4462      	add	r2, ip
10002466:	3a03      	subs	r2, #3
10002468:	7051      	strb	r1, [r2, #1]
1000246a:	464a      	mov	r2, r9
1000246c:	73da      	strb	r2, [r3, #15]
1000246e:	464b      	mov	r3, r9
10002470:	9a07      	ldr	r2, [sp, #28]
10002472:	3b01      	subs	r3, #1
10002474:	68d1      	ldr	r1, [r2, #12]
10002476:	5cca      	ldrb	r2, [r1, r3]
10002478:	3201      	adds	r2, #1
1000247a:	54ca      	strb	r2, [r1, r3]
1000247c:	465b      	mov	r3, fp
1000247e:	9a07      	ldr	r2, [sp, #28]
10002480:	6113      	str	r3, [r2, #16]
10002482:	6853      	ldr	r3, [r2, #4]
10002484:	f3bf 8f5f 	dmb	sy
10002488:	465a      	mov	r2, fp
1000248a:	601a      	str	r2, [r3, #0]
1000248c:	f385 8810 	msr	PRIMASK, r5
10002490:	e782      	b.n	10002398 <alarm_pool_alarm_callback+0x24>
10002492:	2300      	movs	r3, #0
10002494:	2600      	movs	r6, #0
10002496:	4698      	mov	r8, r3
10002498:	2700      	movs	r7, #0
1000249a:	469a      	mov	sl, r3
1000249c:	2000      	movs	r0, #0
1000249e:	e7a7      	b.n	100023f0 <alarm_pool_alarm_callback+0x7c>
100024a0:	2900      	cmp	r1, #0
100024a2:	d101      	bne.n	100024a8 <alarm_pool_alarm_callback+0x134>
100024a4:	2800      	cmp	r0, #0
100024a6:	d19b      	bne.n	100023e0 <alarm_pool_alarm_callback+0x6c>
100024a8:	2100      	movs	r1, #0
100024aa:	0020      	movs	r0, r4
100024ac:	f000 fd12 	bl	10002ed4 <ph_remove_head>
100024b0:	4643      	mov	r3, r8
100024b2:	681e      	ldr	r6, [r3, #0]
100024b4:	685f      	ldr	r7, [r3, #4]
100024b6:	689b      	ldr	r3, [r3, #8]
100024b8:	9a07      	ldr	r2, [sp, #28]
100024ba:	469a      	mov	sl, r3
100024bc:	4643      	mov	r3, r8
100024be:	68db      	ldr	r3, [r3, #12]
100024c0:	4698      	mov	r8, r3
100024c2:	68d3      	ldr	r3, [r2, #12]
100024c4:	444b      	add	r3, r9
100024c6:	3b01      	subs	r3, #1
100024c8:	781b      	ldrb	r3, [r3, #0]
100024ca:	930a      	str	r3, [sp, #40]	; 0x28
100024cc:	021b      	lsls	r3, r3, #8
100024ce:	4303      	orrs	r3, r0
100024d0:	6113      	str	r3, [r2, #16]
100024d2:	2000      	movs	r0, #0
100024d4:	e78c      	b.n	100023f0 <alarm_pool_alarm_callback+0x7c>
100024d6:	6923      	ldr	r3, [r4, #16]
100024d8:	2b00      	cmp	r3, #0
100024da:	d0b9      	beq.n	10002450 <alarm_pool_alarm_callback+0xdc>
100024dc:	0033      	movs	r3, r6
100024de:	003c      	movs	r4, r7
100024e0:	1a5b      	subs	r3, r3, r1
100024e2:	4194      	sbcs	r4, r2
100024e4:	001a      	movs	r2, r3
100024e6:	0023      	movs	r3, r4
100024e8:	42a7      	cmp	r7, r4
100024ea:	d819      	bhi.n	10002520 <alarm_pool_alarm_callback+0x1ac>
100024ec:	429f      	cmp	r7, r3
100024ee:	d01b      	beq.n	10002528 <alarm_pool_alarm_callback+0x1b4>
100024f0:	4659      	mov	r1, fp
100024f2:	9104      	str	r1, [sp, #16]
100024f4:	2101      	movs	r1, #1
100024f6:	9103      	str	r1, [sp, #12]
100024f8:	4649      	mov	r1, r9
100024fa:	9102      	str	r1, [sp, #8]
100024fc:	4641      	mov	r1, r8
100024fe:	9101      	str	r1, [sp, #4]
10002500:	4651      	mov	r1, sl
10002502:	9807      	ldr	r0, [sp, #28]
10002504:	9100      	str	r1, [sp, #0]
10002506:	f7ff feb1 	bl	1000226c <add_alarm_under_lock>
1000250a:	e7b7      	b.n	1000247c <alarm_pool_alarm_callback+0x108>
1000250c:	f000 fa7e 	bl	10002a0c <time_us_64>
10002510:	9a08      	ldr	r2, [sp, #32]
10002512:	9b09      	ldr	r3, [sp, #36]	; 0x24
10002514:	0006      	movs	r6, r0
10002516:	000f      	movs	r7, r1
10002518:	1992      	adds	r2, r2, r6
1000251a:	417b      	adcs	r3, r7
1000251c:	4299      	cmp	r1, r3
1000251e:	d9e5      	bls.n	100024ec <alarm_pool_alarm_callback+0x178>
10002520:	2201      	movs	r2, #1
10002522:	4252      	negs	r2, r2
10002524:	17d3      	asrs	r3, r2, #31
10002526:	e7e3      	b.n	100024f0 <alarm_pool_alarm_callback+0x17c>
10002528:	4296      	cmp	r6, r2
1000252a:	d9e1      	bls.n	100024f0 <alarm_pool_alarm_callback+0x17c>
1000252c:	2201      	movs	r2, #1
1000252e:	4252      	negs	r2, r2
10002530:	17d3      	asrs	r3, r2, #31
10002532:	e7dd      	b.n	100024f0 <alarm_pool_alarm_callback+0x17c>
10002534:	200017f4 	.word	0x200017f4
10002538:	0fffffff 	.word	0x0fffffff

1000253c <alarm_pool_init_default>:
1000253c:	b510      	push	{r4, lr}
1000253e:	4c12      	ldr	r4, [pc, #72]	; (10002588 <alarm_pool_init_default+0x4c>)
10002540:	6863      	ldr	r3, [r4, #4]
10002542:	2b00      	cmp	r3, #0
10002544:	d004      	beq.n	10002550 <alarm_pool_init_default+0x14>
10002546:	210a      	movs	r1, #10
10002548:	4810      	ldr	r0, [pc, #64]	; (1000258c <alarm_pool_init_default+0x50>)
1000254a:	f000 fb7b 	bl	10002c44 <lock_init>
1000254e:	bd10      	pop	{r4, pc}
10002550:	0023      	movs	r3, r4
10002552:	4a0f      	ldr	r2, [pc, #60]	; (10002590 <alarm_pool_init_default+0x54>)
10002554:	2110      	movs	r1, #16
10002556:	6820      	ldr	r0, [r4, #0]
10002558:	f000 fbda 	bl	10002d10 <ph_post_alloc_init>
1000255c:	2003      	movs	r0, #3
1000255e:	f000 fa49 	bl	100029f4 <hardware_alarm_claim>
10002562:	2003      	movs	r0, #3
10002564:	f000 fb4e 	bl	10002c04 <hardware_alarm_cancel>
10002568:	2003      	movs	r0, #3
1000256a:	490a      	ldr	r1, [pc, #40]	; (10002594 <alarm_pool_init_default+0x58>)
1000256c:	f000 fa92 	bl	10002a94 <hardware_alarm_set_callback>
10002570:	f7ff fd9a 	bl	100020a8 <next_striped_spin_lock_num>
10002574:	4b08      	ldr	r3, [pc, #32]	; (10002598 <alarm_pool_init_default+0x5c>)
10002576:	469c      	mov	ip, r3
10002578:	2303      	movs	r3, #3
1000257a:	4460      	add	r0, ip
1000257c:	7523      	strb	r3, [r4, #20]
1000257e:	4b07      	ldr	r3, [pc, #28]	; (1000259c <alarm_pool_init_default+0x60>)
10002580:	0080      	lsls	r0, r0, #2
10002582:	6060      	str	r0, [r4, #4]
10002584:	60dc      	str	r4, [r3, #12]
10002586:	e7de      	b.n	10002546 <alarm_pool_init_default+0xa>
10002588:	200003fc 	.word	0x200003fc
1000258c:	20001878 	.word	0x20001878
10002590:	100020e1 	.word	0x100020e1
10002594:	10002375 	.word	0x10002375
10002598:	34000040 	.word	0x34000040
1000259c:	200017f4 	.word	0x200017f4

100025a0 <alarm_pool_get_default>:
100025a0:	4800      	ldr	r0, [pc, #0]	; (100025a4 <alarm_pool_get_default+0x4>)
100025a2:	4770      	bx	lr
100025a4:	200003fc 	.word	0x200003fc

100025a8 <alarm_pool_add_alarm_at>:
100025a8:	b5f0      	push	{r4, r5, r6, r7, lr}
100025aa:	4657      	mov	r7, sl
100025ac:	4645      	mov	r5, r8
100025ae:	46de      	mov	lr, fp
100025b0:	464e      	mov	r6, r9
100025b2:	b5e0      	push	{r5, r6, r7, lr}
100025b4:	b085      	sub	sp, #20
100025b6:	9301      	str	r3, [sp, #4]
100025b8:	ab10      	add	r3, sp, #64	; 0x40
100025ba:	781b      	ldrb	r3, [r3, #0]
100025bc:	2700      	movs	r7, #0
100025be:	9303      	str	r3, [sp, #12]
100025c0:	2300      	movs	r3, #0
100025c2:	4680      	mov	r8, r0
100025c4:	469a      	mov	sl, r3
100025c6:	9200      	str	r2, [sp, #0]
100025c8:	4643      	mov	r3, r8
100025ca:	685a      	ldr	r2, [r3, #4]
100025cc:	f3ef 8910 	mrs	r9, PRIMASK
100025d0:	b672      	cpsid	i
100025d2:	6813      	ldr	r3, [r2, #0]
100025d4:	2b00      	cmp	r3, #0
100025d6:	d0fc      	beq.n	100025d2 <alarm_pool_add_alarm_at+0x2a>
100025d8:	f3bf 8f5f 	dmb	sy
100025dc:	4643      	mov	r3, r8
100025de:	681d      	ldr	r5, [r3, #0]
100025e0:	7bac      	ldrb	r4, [r5, #14]
100025e2:	2c00      	cmp	r4, #0
100025e4:	d04f      	beq.n	10002686 <alarm_pool_add_alarm_at+0xde>
100025e6:	0066      	lsls	r6, r4, #1
100025e8:	682b      	ldr	r3, [r5, #0]
100025ea:	1936      	adds	r6, r6, r4
100025ec:	3e03      	subs	r6, #3
100025ee:	199b      	adds	r3, r3, r6
100025f0:	785a      	ldrb	r2, [r3, #1]
100025f2:	73aa      	strb	r2, [r5, #14]
100025f4:	2a00      	cmp	r2, #0
100025f6:	d100      	bne.n	100025fa <alarm_pool_add_alarm_at+0x52>
100025f8:	73ea      	strb	r2, [r5, #15]
100025fa:	4642      	mov	r2, r8
100025fc:	709f      	strb	r7, [r3, #2]
100025fe:	705f      	strb	r7, [r3, #1]
10002600:	701f      	strb	r7, [r3, #0]
10002602:	6892      	ldr	r2, [r2, #8]
10002604:	4b52      	ldr	r3, [pc, #328]	; (10002750 <alarm_pool_add_alarm_at+0x1a8>)
10002606:	4694      	mov	ip, r2
10002608:	9900      	ldr	r1, [sp, #0]
1000260a:	9a01      	ldr	r2, [sp, #4]
1000260c:	18e3      	adds	r3, r4, r3
1000260e:	011b      	lsls	r3, r3, #4
10002610:	4463      	add	r3, ip
10002612:	6019      	str	r1, [r3, #0]
10002614:	605a      	str	r2, [r3, #4]
10002616:	9a0e      	ldr	r2, [sp, #56]	; 0x38
10002618:	609a      	str	r2, [r3, #8]
1000261a:	9a0f      	ldr	r2, [sp, #60]	; 0x3c
1000261c:	60da      	str	r2, [r3, #12]
1000261e:	682b      	ldr	r3, [r5, #0]
10002620:	199b      	adds	r3, r3, r6
10002622:	709f      	strb	r7, [r3, #2]
10002624:	705f      	strb	r7, [r3, #1]
10002626:	701f      	strb	r7, [r3, #0]
10002628:	7b6b      	ldrb	r3, [r5, #13]
1000262a:	469b      	mov	fp, r3
1000262c:	2b00      	cmp	r3, #0
1000262e:	d046      	beq.n	100026be <alarm_pool_add_alarm_at+0x116>
10002630:	0022      	movs	r2, r4
10002632:	0019      	movs	r1, r3
10002634:	68a8      	ldr	r0, [r5, #8]
10002636:	686b      	ldr	r3, [r5, #4]
10002638:	4798      	blx	r3
1000263a:	682a      	ldr	r2, [r5, #0]
1000263c:	2800      	cmp	r0, #0
1000263e:	d031      	beq.n	100026a4 <alarm_pool_add_alarm_at+0xfc>
10002640:	465b      	mov	r3, fp
10002642:	4658      	mov	r0, fp
10002644:	005b      	lsls	r3, r3, #1
10002646:	445b      	add	r3, fp
10002648:	1996      	adds	r6, r2, r6
1000264a:	3b03      	subs	r3, #3
1000264c:	70b0      	strb	r0, [r6, #2]
1000264e:	18d1      	adds	r1, r2, r3
10002650:	5cd3      	ldrb	r3, [r2, r3]
10002652:	2b00      	cmp	r3, #0
10002654:	d000      	beq.n	10002658 <alarm_pool_add_alarm_at+0xb0>
10002656:	7073      	strb	r3, [r6, #1]
10002658:	465b      	mov	r3, fp
1000265a:	700c      	strb	r4, [r1, #0]
1000265c:	736b      	strb	r3, [r5, #13]
1000265e:	455c      	cmp	r4, fp
10002660:	d02e      	beq.n	100026c0 <alarm_pool_add_alarm_at+0x118>
10002662:	4643      	mov	r3, r8
10002664:	68db      	ldr	r3, [r3, #12]
10002666:	191b      	adds	r3, r3, r4
10002668:	3b01      	subs	r3, #1
1000266a:	7818      	ldrb	r0, [r3, #0]
1000266c:	4643      	mov	r3, r8
1000266e:	685b      	ldr	r3, [r3, #4]
10002670:	f3bf 8f5f 	dmb	sy
10002674:	601f      	str	r7, [r3, #0]
10002676:	f389 8810 	msr	PRIMASK, r9
1000267a:	4653      	mov	r3, sl
1000267c:	2b00      	cmp	r3, #0
1000267e:	d12e      	bne.n	100026de <alarm_pool_add_alarm_at+0x136>
10002680:	0200      	lsls	r0, r0, #8
10002682:	4320      	orrs	r0, r4
10002684:	e007      	b.n	10002696 <alarm_pool_add_alarm_at+0xee>
10002686:	685b      	ldr	r3, [r3, #4]
10002688:	f3bf 8f5f 	dmb	sy
1000268c:	601c      	str	r4, [r3, #0]
1000268e:	f389 8810 	msr	PRIMASK, r9
10002692:	2001      	movs	r0, #1
10002694:	4240      	negs	r0, r0
10002696:	b005      	add	sp, #20
10002698:	bc3c      	pop	{r2, r3, r4, r5}
1000269a:	4690      	mov	r8, r2
1000269c:	4699      	mov	r9, r3
1000269e:	46a2      	mov	sl, r4
100026a0:	46ab      	mov	fp, r5
100026a2:	bdf0      	pop	{r4, r5, r6, r7, pc}
100026a4:	465b      	mov	r3, fp
100026a6:	005b      	lsls	r3, r3, #1
100026a8:	445b      	add	r3, fp
100026aa:	3b03      	subs	r3, #3
100026ac:	18d3      	adds	r3, r2, r3
100026ae:	709c      	strb	r4, [r3, #2]
100026b0:	1991      	adds	r1, r2, r6
100026b2:	5d92      	ldrb	r2, [r2, r6]
100026b4:	2a00      	cmp	r2, #0
100026b6:	d000      	beq.n	100026ba <alarm_pool_add_alarm_at+0x112>
100026b8:	705a      	strb	r2, [r3, #1]
100026ba:	465b      	mov	r3, fp
100026bc:	700b      	strb	r3, [r1, #0]
100026be:	736c      	strb	r4, [r5, #13]
100026c0:	4643      	mov	r3, r8
100026c2:	7d18      	ldrb	r0, [r3, #20]
100026c4:	9a00      	ldr	r2, [sp, #0]
100026c6:	9b01      	ldr	r3, [sp, #4]
100026c8:	f000 fa2a 	bl	10002b20 <hardware_alarm_set_target>
100026cc:	4682      	mov	sl, r0
100026ce:	2800      	cmp	r0, #0
100026d0:	d0c7      	beq.n	10002662 <alarm_pool_add_alarm_at+0xba>
100026d2:	4643      	mov	r3, r8
100026d4:	0021      	movs	r1, r4
100026d6:	6818      	ldr	r0, [r3, #0]
100026d8:	f000 fc9a 	bl	10003010 <ph_remove_and_free_node>
100026dc:	e7c1      	b.n	10002662 <alarm_pool_add_alarm_at+0xba>
100026de:	9b03      	ldr	r3, [sp, #12]
100026e0:	2b00      	cmp	r3, #0
100026e2:	d032      	beq.n	1000274a <alarm_pool_add_alarm_at+0x1a2>
100026e4:	9b0e      	ldr	r3, [sp, #56]	; 0x38
100026e6:	2000      	movs	r0, #0
100026e8:	990f      	ldr	r1, [sp, #60]	; 0x3c
100026ea:	4798      	blx	r3
100026ec:	0003      	movs	r3, r0
100026ee:	0004      	movs	r4, r0
100026f0:	000d      	movs	r5, r1
100026f2:	430b      	orrs	r3, r1
100026f4:	d029      	beq.n	1000274a <alarm_pool_add_alarm_at+0x1a2>
100026f6:	2900      	cmp	r1, #0
100026f8:	da0d      	bge.n	10002716 <alarm_pool_add_alarm_at+0x16e>
100026fa:	9800      	ldr	r0, [sp, #0]
100026fc:	9901      	ldr	r1, [sp, #4]
100026fe:	0002      	movs	r2, r0
10002700:	000b      	movs	r3, r1
10002702:	1b12      	subs	r2, r2, r4
10002704:	41ab      	sbcs	r3, r5
10002706:	4299      	cmp	r1, r3
10002708:	d815      	bhi.n	10002736 <alarm_pool_add_alarm_at+0x18e>
1000270a:	d01a      	beq.n	10002742 <alarm_pool_add_alarm_at+0x19a>
1000270c:	9200      	str	r2, [sp, #0]
1000270e:	9301      	str	r3, [sp, #4]
10002710:	9b03      	ldr	r3, [sp, #12]
10002712:	469a      	mov	sl, r3
10002714:	e758      	b.n	100025c8 <alarm_pool_add_alarm_at+0x20>
10002716:	f000 f979 	bl	10002a0c <time_us_64>
1000271a:	0002      	movs	r2, r0
1000271c:	000b      	movs	r3, r1
1000271e:	18a4      	adds	r4, r4, r2
10002720:	415d      	adcs	r5, r3
10002722:	0020      	movs	r0, r4
10002724:	0029      	movs	r1, r5
10002726:	9000      	str	r0, [sp, #0]
10002728:	9101      	str	r1, [sp, #4]
1000272a:	42ab      	cmp	r3, r5
1000272c:	d803      	bhi.n	10002736 <alarm_pool_add_alarm_at+0x18e>
1000272e:	d1ef      	bne.n	10002710 <alarm_pool_add_alarm_at+0x168>
10002730:	9900      	ldr	r1, [sp, #0]
10002732:	428a      	cmp	r2, r1
10002734:	d9ec      	bls.n	10002710 <alarm_pool_add_alarm_at+0x168>
10002736:	2301      	movs	r3, #1
10002738:	425b      	negs	r3, r3
1000273a:	17dc      	asrs	r4, r3, #31
1000273c:	9300      	str	r3, [sp, #0]
1000273e:	9401      	str	r4, [sp, #4]
10002740:	e7e6      	b.n	10002710 <alarm_pool_add_alarm_at+0x168>
10002742:	9900      	ldr	r1, [sp, #0]
10002744:	4291      	cmp	r1, r2
10002746:	d9e1      	bls.n	1000270c <alarm_pool_add_alarm_at+0x164>
10002748:	e7f5      	b.n	10002736 <alarm_pool_add_alarm_at+0x18e>
1000274a:	2000      	movs	r0, #0
1000274c:	e7a3      	b.n	10002696 <alarm_pool_add_alarm_at+0xee>
1000274e:	46c0      	nop			; (mov r8, r8)
10002750:	0fffffff 	.word	0x0fffffff

10002754 <sleep_until>:
10002754:	b5f0      	push	{r4, r5, r6, r7, lr}
10002756:	0004      	movs	r4, r0
10002758:	000d      	movs	r5, r1
1000275a:	2606      	movs	r6, #6
1000275c:	4276      	negs	r6, r6
1000275e:	17f7      	asrs	r7, r6, #31
10002760:	46c6      	mov	lr, r8
10002762:	1936      	adds	r6, r6, r4
10002764:	416f      	adcs	r7, r5
10002766:	b500      	push	{lr}
10002768:	428f      	cmp	r7, r1
1000276a:	d813      	bhi.n	10002794 <sleep_until+0x40>
1000276c:	d010      	beq.n	10002790 <sleep_until+0x3c>
1000276e:	f000 f94d 	bl	10002a0c <time_us_64>
10002772:	0032      	movs	r2, r6
10002774:	003b      	movs	r3, r7
10002776:	1a12      	subs	r2, r2, r0
10002778:	418b      	sbcs	r3, r1
1000277a:	2b00      	cmp	r3, #0
1000277c:	dc14      	bgt.n	100027a8 <sleep_until+0x54>
1000277e:	2b00      	cmp	r3, #0
10002780:	d037      	beq.n	100027f2 <sleep_until+0x9e>
10002782:	0029      	movs	r1, r5
10002784:	0020      	movs	r0, r4
10002786:	f000 f975 	bl	10002a74 <busy_wait_until>
1000278a:	bc04      	pop	{r2}
1000278c:	4690      	mov	r8, r2
1000278e:	bdf0      	pop	{r4, r5, r6, r7, pc}
10002790:	4286      	cmp	r6, r0
10002792:	d9ec      	bls.n	1000276e <sleep_until+0x1a>
10002794:	2600      	movs	r6, #0
10002796:	2700      	movs	r7, #0
10002798:	f000 f938 	bl	10002a0c <time_us_64>
1000279c:	0032      	movs	r2, r6
1000279e:	003b      	movs	r3, r7
100027a0:	1a12      	subs	r2, r2, r0
100027a2:	418b      	sbcs	r3, r1
100027a4:	2b00      	cmp	r3, #0
100027a6:	ddea      	ble.n	1000277e <sleep_until+0x2a>
100027a8:	0030      	movs	r0, r6
100027aa:	0039      	movs	r1, r7
100027ac:	f7ff fcca 	bl	10002144 <alarm_pool_add_alarm_at.constprop.0>
100027b0:	2800      	cmp	r0, #0
100027b2:	dbe6      	blt.n	10002782 <sleep_until+0x2e>
100027b4:	2300      	movs	r3, #0
100027b6:	4698      	mov	r8, r3
100027b8:	46bc      	mov	ip, r7
100027ba:	4a0f      	ldr	r2, [pc, #60]	; (100027f8 <sleep_until+0xa4>)
100027bc:	4f0f      	ldr	r7, [pc, #60]	; (100027fc <sleep_until+0xa8>)
100027be:	6a7b      	ldr	r3, [r7, #36]	; 0x24
100027c0:	459c      	cmp	ip, r3
100027c2:	d804      	bhi.n	100027ce <sleep_until+0x7a>
100027c4:	6ab9      	ldr	r1, [r7, #40]	; 0x28
100027c6:	428e      	cmp	r6, r1
100027c8:	d9db      	bls.n	10002782 <sleep_until+0x2e>
100027ca:	459c      	cmp	ip, r3
100027cc:	d1d9      	bne.n	10002782 <sleep_until+0x2e>
100027ce:	6811      	ldr	r1, [r2, #0]
100027d0:	f3ef 8010 	mrs	r0, PRIMASK
100027d4:	b672      	cpsid	i
100027d6:	680b      	ldr	r3, [r1, #0]
100027d8:	2b00      	cmp	r3, #0
100027da:	d0fc      	beq.n	100027d6 <sleep_until+0x82>
100027dc:	f3bf 8f5f 	dmb	sy
100027e0:	6813      	ldr	r3, [r2, #0]
100027e2:	f3bf 8f5f 	dmb	sy
100027e6:	4641      	mov	r1, r8
100027e8:	6019      	str	r1, [r3, #0]
100027ea:	f380 8810 	msr	PRIMASK, r0
100027ee:	bf20      	wfe
100027f0:	e7e5      	b.n	100027be <sleep_until+0x6a>
100027f2:	2a00      	cmp	r2, #0
100027f4:	d0c5      	beq.n	10002782 <sleep_until+0x2e>
100027f6:	e7d7      	b.n	100027a8 <sleep_until+0x54>
100027f8:	20001878 	.word	0x20001878
100027fc:	40054000 	.word	0x40054000

10002800 <sleep_us>:
10002800:	b570      	push	{r4, r5, r6, lr}
10002802:	0004      	movs	r4, r0
10002804:	000d      	movs	r5, r1
10002806:	f000 f901 	bl	10002a0c <time_us_64>
1000280a:	0002      	movs	r2, r0
1000280c:	000b      	movs	r3, r1
1000280e:	0020      	movs	r0, r4
10002810:	0029      	movs	r1, r5
10002812:	1880      	adds	r0, r0, r2
10002814:	4159      	adcs	r1, r3
10002816:	428b      	cmp	r3, r1
10002818:	d805      	bhi.n	10002826 <sleep_us+0x26>
1000281a:	d002      	beq.n	10002822 <sleep_us+0x22>
1000281c:	f7ff ff9a 	bl	10002754 <sleep_until>
10002820:	bd70      	pop	{r4, r5, r6, pc}
10002822:	4282      	cmp	r2, r0
10002824:	d9fa      	bls.n	1000281c <sleep_us+0x1c>
10002826:	2001      	movs	r0, #1
10002828:	4240      	negs	r0, r0
1000282a:	17c1      	asrs	r1, r0, #31
1000282c:	e7f6      	b.n	1000281c <sleep_us+0x1c>
1000282e:	46c0      	nop			; (mov r8, r8)

10002830 <sleep_ms>:
10002830:	b570      	push	{r4, r5, r6, lr}
10002832:	0006      	movs	r6, r0
10002834:	f000 f8ea 	bl	10002a0c <time_us_64>
10002838:	22fa      	movs	r2, #250	; 0xfa
1000283a:	0004      	movs	r4, r0
1000283c:	000d      	movs	r5, r1
1000283e:	2300      	movs	r3, #0
10002840:	0030      	movs	r0, r6
10002842:	2100      	movs	r1, #0
10002844:	0092      	lsls	r2, r2, #2
10002846:	f003 fa5b 	bl	10005d00 <__wrap___aeabi_lmul>
1000284a:	1900      	adds	r0, r0, r4
1000284c:	4169      	adcs	r1, r5
1000284e:	428d      	cmp	r5, r1
10002850:	d805      	bhi.n	1000285e <sleep_ms+0x2e>
10002852:	d002      	beq.n	1000285a <sleep_ms+0x2a>
10002854:	f7ff ff7e 	bl	10002754 <sleep_until>
10002858:	bd70      	pop	{r4, r5, r6, pc}
1000285a:	4284      	cmp	r4, r0
1000285c:	d9fa      	bls.n	10002854 <sleep_ms+0x24>
1000285e:	2001      	movs	r0, #1
10002860:	4240      	negs	r0, r0
10002862:	17c1      	asrs	r1, r0, #31
10002864:	e7f6      	b.n	10002854 <sleep_ms+0x24>
10002866:	46c0      	nop			; (mov r8, r8)

10002868 <best_effort_wfe_or_timeout>:
10002868:	b5f8      	push	{r3, r4, r5, r6, r7, lr}
1000286a:	46ce      	mov	lr, r9
1000286c:	4647      	mov	r7, r8
1000286e:	b580      	push	{r7, lr}
10002870:	0006      	movs	r6, r0
10002872:	000c      	movs	r4, r1
10002874:	f7ff fc66 	bl	10002144 <alarm_pool_add_alarm_at.constprop.0>
10002878:	2800      	cmp	r0, #0
1000287a:	dc0c      	bgt.n	10002896 <best_effort_wfe_or_timeout+0x2e>
1000287c:	4b2d      	ldr	r3, [pc, #180]	; (10002934 <best_effort_wfe_or_timeout+0xcc>)
1000287e:	2000      	movs	r0, #0
10002880:	6a59      	ldr	r1, [r3, #36]	; 0x24
10002882:	428c      	cmp	r4, r1
10002884:	d803      	bhi.n	1000288e <best_effort_wfe_or_timeout+0x26>
10002886:	6a9b      	ldr	r3, [r3, #40]	; 0x28
10002888:	3001      	adds	r0, #1
1000288a:	42b3      	cmp	r3, r6
1000288c:	d345      	bcc.n	1000291a <best_effort_wfe_or_timeout+0xb2>
1000288e:	bc0c      	pop	{r2, r3}
10002890:	4690      	mov	r8, r2
10002892:	4699      	mov	r9, r3
10002894:	bdf8      	pop	{r3, r4, r5, r6, r7, pc}
10002896:	bf20      	wfe
10002898:	4d27      	ldr	r5, [pc, #156]	; (10002938 <best_effort_wfe_or_timeout+0xd0>)
1000289a:	686a      	ldr	r2, [r5, #4]
1000289c:	f3ef 8710 	mrs	r7, PRIMASK
100028a0:	b672      	cpsid	i
100028a2:	6813      	ldr	r3, [r2, #0]
100028a4:	2b00      	cmp	r3, #0
100028a6:	d0fc      	beq.n	100028a2 <best_effort_wfe_or_timeout+0x3a>
100028a8:	f3bf 8f5f 	dmb	sy
100028ac:	682b      	ldr	r3, [r5, #0]
100028ae:	b2c1      	uxtb	r1, r0
100028b0:	469c      	mov	ip, r3
100028b2:	7b5b      	ldrb	r3, [r3, #13]
100028b4:	428b      	cmp	r3, r1
100028b6:	d035      	beq.n	10002924 <best_effort_wfe_or_timeout+0xbc>
100028b8:	23ff      	movs	r3, #255	; 0xff
100028ba:	4003      	ands	r3, r0
100028bc:	005a      	lsls	r2, r3, #1
100028be:	4691      	mov	r9, r2
100028c0:	4662      	mov	r2, ip
100028c2:	6812      	ldr	r2, [r2, #0]
100028c4:	4499      	add	r9, r3
100028c6:	4690      	mov	r8, r2
100028c8:	464a      	mov	r2, r9
100028ca:	4442      	add	r2, r8
100028cc:	3a03      	subs	r2, #3
100028ce:	7892      	ldrb	r2, [r2, #2]
100028d0:	2a00      	cmp	r2, #0
100028d2:	d01d      	beq.n	10002910 <best_effort_wfe_or_timeout+0xa8>
100028d4:	68ea      	ldr	r2, [r5, #12]
100028d6:	0a00      	lsrs	r0, r0, #8
100028d8:	4690      	mov	r8, r2
100028da:	4443      	add	r3, r8
100028dc:	3b01      	subs	r3, #1
100028de:	781b      	ldrb	r3, [r3, #0]
100028e0:	b2c0      	uxtb	r0, r0
100028e2:	4283      	cmp	r3, r0
100028e4:	d021      	beq.n	1000292a <best_effort_wfe_or_timeout+0xc2>
100028e6:	686b      	ldr	r3, [r5, #4]
100028e8:	f3bf 8f5f 	dmb	sy
100028ec:	2200      	movs	r2, #0
100028ee:	601a      	str	r2, [r3, #0]
100028f0:	f387 8810 	msr	PRIMASK, r7
100028f4:	4a0f      	ldr	r2, [pc, #60]	; (10002934 <best_effort_wfe_or_timeout+0xcc>)
100028f6:	2000      	movs	r0, #0
100028f8:	6a53      	ldr	r3, [r2, #36]	; 0x24
100028fa:	429c      	cmp	r4, r3
100028fc:	d8c7      	bhi.n	1000288e <best_effort_wfe_or_timeout+0x26>
100028fe:	6a92      	ldr	r2, [r2, #40]	; 0x28
10002900:	3001      	adds	r0, #1
10002902:	42b2      	cmp	r2, r6
10002904:	d2c3      	bcs.n	1000288e <best_effort_wfe_or_timeout+0x26>
10002906:	1ae4      	subs	r4, r4, r3
10002908:	1e60      	subs	r0, r4, #1
1000290a:	4184      	sbcs	r4, r0
1000290c:	b2e0      	uxtb	r0, r4
1000290e:	e7be      	b.n	1000288e <best_effort_wfe_or_timeout+0x26>
10002910:	692b      	ldr	r3, [r5, #16]
10002912:	4298      	cmp	r0, r3
10002914:	d1e7      	bne.n	100028e6 <best_effort_wfe_or_timeout+0x7e>
10002916:	612a      	str	r2, [r5, #16]
10002918:	e7e5      	b.n	100028e6 <best_effort_wfe_or_timeout+0x7e>
1000291a:	1a64      	subs	r4, r4, r1
1000291c:	1e60      	subs	r0, r4, #1
1000291e:	4184      	sbcs	r4, r0
10002920:	b2e0      	uxtb	r0, r4
10002922:	e7b4      	b.n	1000288e <best_effort_wfe_or_timeout+0x26>
10002924:	23ff      	movs	r3, #255	; 0xff
10002926:	4003      	ands	r3, r0
10002928:	e7d4      	b.n	100028d4 <best_effort_wfe_or_timeout+0x6c>
1000292a:	4660      	mov	r0, ip
1000292c:	f000 fb70 	bl	10003010 <ph_remove_and_free_node>
10002930:	e7d9      	b.n	100028e6 <best_effort_wfe_or_timeout+0x7e>
10002932:	46c0      	nop			; (mov r8, r8)
10002934:	40054000 	.word	0x40054000
10002938:	200003fc 	.word	0x200003fc

1000293c <hardware_alarm_irq_handler>:
1000293c:	b5f0      	push	{r4, r5, r6, r7, lr}
1000293e:	46d6      	mov	lr, sl
10002940:	464f      	mov	r7, r9
10002942:	4646      	mov	r6, r8
10002944:	b5c0      	push	{r6, r7, lr}
10002946:	f3ef 8305 	mrs	r3, IPSR
1000294a:	223f      	movs	r2, #63	; 0x3f
1000294c:	4013      	ands	r3, r2
1000294e:	0018      	movs	r0, r3
10002950:	3810      	subs	r0, #16
10002952:	f3ef 8c10 	mrs	ip, PRIMASK
10002956:	b672      	cpsid	i
10002958:	4d20      	ldr	r5, [pc, #128]	; (100029dc <hardware_alarm_irq_handler+0xa0>)
1000295a:	682a      	ldr	r2, [r5, #0]
1000295c:	2a00      	cmp	r2, #0
1000295e:	d0fc      	beq.n	1000295a <hardware_alarm_irq_handler+0x1e>
10002960:	f3bf 8f5f 	dmb	sy
10002964:	2201      	movs	r2, #1
10002966:	0011      	movs	r1, r2
10002968:	4081      	lsls	r1, r0
1000296a:	4c1d      	ldr	r4, [pc, #116]	; (100029e0 <hardware_alarm_irq_handler+0xa4>)
1000296c:	4688      	mov	r8, r1
1000296e:	6361      	str	r1, [r4, #52]	; 0x34
10002970:	491c      	ldr	r1, [pc, #112]	; (100029e4 <hardware_alarm_irq_handler+0xa8>)
10002972:	0017      	movs	r7, r2
10002974:	780e      	ldrb	r6, [r1, #0]
10002976:	468a      	mov	sl, r1
10002978:	0031      	movs	r1, r6
1000297a:	40c1      	lsrs	r1, r0
1000297c:	400f      	ands	r7, r1
1000297e:	420a      	tst	r2, r1
10002980:	d015      	beq.n	100029ae <hardware_alarm_irq_handler+0x72>
10002982:	4919      	ldr	r1, [pc, #100]	; (100029e8 <hardware_alarm_irq_handler+0xac>)
10002984:	0082      	lsls	r2, r0, #2
10002986:	6a64      	ldr	r4, [r4, #36]	; 0x24
10002988:	5851      	ldr	r1, [r2, r1]
1000298a:	428c      	cmp	r4, r1
1000298c:	d319      	bcc.n	100029c2 <hardware_alarm_irq_handler+0x86>
1000298e:	4b17      	ldr	r3, [pc, #92]	; (100029ec <hardware_alarm_irq_handler+0xb0>)
10002990:	58d2      	ldr	r2, [r2, r3]
10002992:	4643      	mov	r3, r8
10002994:	439e      	bics	r6, r3
10002996:	4653      	mov	r3, sl
10002998:	701e      	strb	r6, [r3, #0]
1000299a:	f3bf 8f5f 	dmb	sy
1000299e:	2300      	movs	r3, #0
100029a0:	602b      	str	r3, [r5, #0]
100029a2:	f38c 8810 	msr	PRIMASK, ip
100029a6:	2a00      	cmp	r2, #0
100029a8:	d006      	beq.n	100029b8 <hardware_alarm_irq_handler+0x7c>
100029aa:	4790      	blx	r2
100029ac:	e004      	b.n	100029b8 <hardware_alarm_irq_handler+0x7c>
100029ae:	f3bf 8f5f 	dmb	sy
100029b2:	602f      	str	r7, [r5, #0]
100029b4:	f38c 8810 	msr	PRIMASK, ip
100029b8:	bc1c      	pop	{r2, r3, r4}
100029ba:	4690      	mov	r8, r2
100029bc:	4699      	mov	r9, r3
100029be:	46a2      	mov	sl, r4
100029c0:	bdf0      	pop	{r4, r5, r6, r7, pc}
100029c2:	4a0b      	ldr	r2, [pc, #44]	; (100029f0 <hardware_alarm_irq_handler+0xb4>)
100029c4:	009b      	lsls	r3, r3, #2
100029c6:	4690      	mov	r8, r2
100029c8:	4443      	add	r3, r8
100029ca:	681a      	ldr	r2, [r3, #0]
100029cc:	601a      	str	r2, [r3, #0]
100029ce:	f3bf 8f5f 	dmb	sy
100029d2:	2300      	movs	r3, #0
100029d4:	602b      	str	r3, [r5, #0]
100029d6:	f38c 8810 	msr	PRIMASK, ip
100029da:	e7ed      	b.n	100029b8 <hardware_alarm_irq_handler+0x7c>
100029dc:	d0000128 	.word	0xd0000128
100029e0:	40054000 	.word	0x40054000
100029e4:	200018ac 	.word	0x200018ac
100029e8:	20001884 	.word	0x20001884
100029ec:	20001230 	.word	0x20001230
100029f0:	40053fd0 	.word	0x40053fd0

100029f4 <hardware_alarm_claim>:
100029f4:	b510      	push	{r4, lr}
100029f6:	0001      	movs	r1, r0
100029f8:	4a02      	ldr	r2, [pc, #8]	; (10002a04 <hardware_alarm_claim+0x10>)
100029fa:	4803      	ldr	r0, [pc, #12]	; (10002a08 <hardware_alarm_claim+0x14>)
100029fc:	f7ff facc 	bl	10001f98 <hw_claim_or_assert>
10002a00:	bd10      	pop	{r4, pc}
10002a02:	46c0      	nop			; (mov r8, r8)
10002a04:	100099f0 	.word	0x100099f0
10002a08:	200018a8 	.word	0x200018a8

10002a0c <time_us_64>:
10002a0c:	4b03      	ldr	r3, [pc, #12]	; (10002a1c <time_us_64+0x10>)
10002a0e:	6a59      	ldr	r1, [r3, #36]	; 0x24
10002a10:	000a      	movs	r2, r1
10002a12:	6a98      	ldr	r0, [r3, #40]	; 0x28
10002a14:	6a59      	ldr	r1, [r3, #36]	; 0x24
10002a16:	428a      	cmp	r2, r1
10002a18:	d1fa      	bne.n	10002a10 <time_us_64+0x4>
10002a1a:	4770      	bx	lr
10002a1c:	40054000 	.word	0x40054000

10002a20 <busy_wait_us>:
10002a20:	b570      	push	{r4, r5, r6, lr}
10002a22:	0004      	movs	r4, r0
10002a24:	000d      	movs	r5, r1
10002a26:	4a12      	ldr	r2, [pc, #72]	; (10002a70 <busy_wait_us+0x50>)
10002a28:	6a53      	ldr	r3, [r2, #36]	; 0x24
10002a2a:	0019      	movs	r1, r3
10002a2c:	6a96      	ldr	r6, [r2, #40]	; 0x28
10002a2e:	6a53      	ldr	r3, [r2, #36]	; 0x24
10002a30:	428b      	cmp	r3, r1
10002a32:	d1fa      	bne.n	10002a2a <busy_wait_us+0xa>
10002a34:	0030      	movs	r0, r6
10002a36:	0019      	movs	r1, r3
10002a38:	1824      	adds	r4, r4, r0
10002a3a:	414d      	adcs	r5, r1
10002a3c:	42ab      	cmp	r3, r5
10002a3e:	d811      	bhi.n	10002a64 <busy_wait_us+0x44>
10002a40:	d00e      	beq.n	10002a60 <busy_wait_us+0x40>
10002a42:	002b      	movs	r3, r5
10002a44:	490a      	ldr	r1, [pc, #40]	; (10002a70 <busy_wait_us+0x50>)
10002a46:	6a4a      	ldr	r2, [r1, #36]	; 0x24
10002a48:	429a      	cmp	r2, r3
10002a4a:	d3fc      	bcc.n	10002a46 <busy_wait_us+0x26>
10002a4c:	d107      	bne.n	10002a5e <busy_wait_us+0x3e>
10002a4e:	4a08      	ldr	r2, [pc, #32]	; (10002a70 <busy_wait_us+0x50>)
10002a50:	e002      	b.n	10002a58 <busy_wait_us+0x38>
10002a52:	6a51      	ldr	r1, [r2, #36]	; 0x24
10002a54:	4299      	cmp	r1, r3
10002a56:	d102      	bne.n	10002a5e <busy_wait_us+0x3e>
10002a58:	6a91      	ldr	r1, [r2, #40]	; 0x28
10002a5a:	42a1      	cmp	r1, r4
10002a5c:	d3f9      	bcc.n	10002a52 <busy_wait_us+0x32>
10002a5e:	bd70      	pop	{r4, r5, r6, pc}
10002a60:	42a6      	cmp	r6, r4
10002a62:	d9ee      	bls.n	10002a42 <busy_wait_us+0x22>
10002a64:	2301      	movs	r3, #1
10002a66:	2401      	movs	r4, #1
10002a68:	4264      	negs	r4, r4
10002a6a:	17e5      	asrs	r5, r4, #31
10002a6c:	425b      	negs	r3, r3
10002a6e:	e7e9      	b.n	10002a44 <busy_wait_us+0x24>
10002a70:	40054000 	.word	0x40054000

10002a74 <busy_wait_until>:
10002a74:	4a06      	ldr	r2, [pc, #24]	; (10002a90 <busy_wait_until+0x1c>)
10002a76:	6a53      	ldr	r3, [r2, #36]	; 0x24
10002a78:	4299      	cmp	r1, r3
10002a7a:	d8fc      	bhi.n	10002a76 <busy_wait_until+0x2>
10002a7c:	d107      	bne.n	10002a8e <busy_wait_until+0x1a>
10002a7e:	4b04      	ldr	r3, [pc, #16]	; (10002a90 <busy_wait_until+0x1c>)
10002a80:	e002      	b.n	10002a88 <busy_wait_until+0x14>
10002a82:	6a5a      	ldr	r2, [r3, #36]	; 0x24
10002a84:	4291      	cmp	r1, r2
10002a86:	d102      	bne.n	10002a8e <busy_wait_until+0x1a>
10002a88:	6a9a      	ldr	r2, [r3, #40]	; 0x28
10002a8a:	4282      	cmp	r2, r0
10002a8c:	d3f9      	bcc.n	10002a82 <busy_wait_until+0xe>
10002a8e:	4770      	bx	lr
10002a90:	40054000 	.word	0x40054000

10002a94 <hardware_alarm_set_callback>:
10002a94:	b570      	push	{r4, r5, r6, lr}
10002a96:	0004      	movs	r4, r0
10002a98:	000d      	movs	r5, r1
10002a9a:	f3ef 8610 	mrs	r6, PRIMASK
10002a9e:	b672      	cpsid	i
10002aa0:	4a1a      	ldr	r2, [pc, #104]	; (10002b0c <hardware_alarm_set_callback+0x78>)
10002aa2:	6813      	ldr	r3, [r2, #0]
10002aa4:	2b00      	cmp	r3, #0
10002aa6:	d0fc      	beq.n	10002aa2 <hardware_alarm_set_callback+0xe>
10002aa8:	f3bf 8f5f 	dmb	sy
10002aac:	2d00      	cmp	r5, #0
10002aae:	d01b      	beq.n	10002ae8 <hardware_alarm_set_callback+0x54>
10002ab0:	0020      	movs	r0, r4
10002ab2:	f000 fd1b 	bl	100034ec <irq_get_vtable_handler>
10002ab6:	4916      	ldr	r1, [pc, #88]	; (10002b10 <hardware_alarm_set_callback+0x7c>)
10002ab8:	4281      	cmp	r1, r0
10002aba:	d00a      	beq.n	10002ad2 <hardware_alarm_set_callback+0x3e>
10002abc:	0020      	movs	r0, r4
10002abe:	f000 fd1d 	bl	100034fc <irq_set_exclusive_handler>
10002ac2:	2101      	movs	r1, #1
10002ac4:	0020      	movs	r0, r4
10002ac6:	f000 fcf7 	bl	100034b8 <irq_set_enabled>
10002aca:	2301      	movs	r3, #1
10002acc:	40a3      	lsls	r3, r4
10002ace:	4a11      	ldr	r2, [pc, #68]	; (10002b14 <hardware_alarm_set_callback+0x80>)
10002ad0:	6013      	str	r3, [r2, #0]
10002ad2:	4b11      	ldr	r3, [pc, #68]	; (10002b18 <hardware_alarm_set_callback+0x84>)
10002ad4:	00a4      	lsls	r4, r4, #2
10002ad6:	50e5      	str	r5, [r4, r3]
10002ad8:	f3bf 8f5f 	dmb	sy
10002adc:	2200      	movs	r2, #0
10002ade:	4b0b      	ldr	r3, [pc, #44]	; (10002b0c <hardware_alarm_set_callback+0x78>)
10002ae0:	601a      	str	r2, [r3, #0]
10002ae2:	f386 8810 	msr	PRIMASK, r6
10002ae6:	bd70      	pop	{r4, r5, r6, pc}
10002ae8:	4b0b      	ldr	r3, [pc, #44]	; (10002b18 <hardware_alarm_set_callback+0x84>)
10002aea:	00a2      	lsls	r2, r4, #2
10002aec:	50d5      	str	r5, [r2, r3]
10002aee:	2201      	movs	r2, #1
10002af0:	40a2      	lsls	r2, r4
10002af2:	490a      	ldr	r1, [pc, #40]	; (10002b1c <hardware_alarm_set_callback+0x88>)
10002af4:	0020      	movs	r0, r4
10002af6:	780b      	ldrb	r3, [r1, #0]
10002af8:	4393      	bics	r3, r2
10002afa:	700b      	strb	r3, [r1, #0]
10002afc:	4904      	ldr	r1, [pc, #16]	; (10002b10 <hardware_alarm_set_callback+0x7c>)
10002afe:	f000 fd27 	bl	10003550 <irq_remove_handler>
10002b02:	2100      	movs	r1, #0
10002b04:	0020      	movs	r0, r4
10002b06:	f000 fcd7 	bl	100034b8 <irq_set_enabled>
10002b0a:	e7e5      	b.n	10002ad8 <hardware_alarm_set_callback+0x44>
10002b0c:	d0000128 	.word	0xd0000128
10002b10:	1000293d 	.word	0x1000293d
10002b14:	40056038 	.word	0x40056038
10002b18:	20001230 	.word	0x20001230
10002b1c:	200018ac 	.word	0x200018ac

10002b20 <hardware_alarm_set_target>:
10002b20:	b5f0      	push	{r4, r5, r6, r7, lr}
10002b22:	464f      	mov	r7, r9
10002b24:	46d6      	mov	lr, sl
10002b26:	4646      	mov	r6, r8
10002b28:	b5c0      	push	{r6, r7, lr}
10002b2a:	0007      	movs	r7, r0
10002b2c:	4c30      	ldr	r4, [pc, #192]	; (10002bf0 <hardware_alarm_set_target+0xd0>)
10002b2e:	6a61      	ldr	r1, [r4, #36]	; 0x24
10002b30:	000d      	movs	r5, r1
10002b32:	6aa6      	ldr	r6, [r4, #40]	; 0x28
10002b34:	6a61      	ldr	r1, [r4, #36]	; 0x24
10002b36:	42a9      	cmp	r1, r5
10002b38:	d1fa      	bne.n	10002b30 <hardware_alarm_set_target+0x10>
10002b3a:	428b      	cmp	r3, r1
10002b3c:	d808      	bhi.n	10002b50 <hardware_alarm_set_target+0x30>
10002b3e:	d005      	beq.n	10002b4c <hardware_alarm_set_target+0x2c>
10002b40:	2001      	movs	r0, #1
10002b42:	bc1c      	pop	{r2, r3, r4}
10002b44:	4690      	mov	r8, r2
10002b46:	4699      	mov	r9, r3
10002b48:	46a2      	mov	sl, r4
10002b4a:	bdf0      	pop	{r4, r5, r6, r7, pc}
10002b4c:	42b2      	cmp	r2, r6
10002b4e:	d9f7      	bls.n	10002b40 <hardware_alarm_set_target+0x20>
10002b50:	f3ef 8910 	mrs	r9, PRIMASK
10002b54:	b672      	cpsid	i
10002b56:	4827      	ldr	r0, [pc, #156]	; (10002bf4 <hardware_alarm_set_target+0xd4>)
10002b58:	6801      	ldr	r1, [r0, #0]
10002b5a:	2900      	cmp	r1, #0
10002b5c:	d0fc      	beq.n	10002b58 <hardware_alarm_set_target+0x38>
10002b5e:	f3bf 8f5f 	dmb	sy
10002b62:	2501      	movs	r5, #1
10002b64:	4924      	ldr	r1, [pc, #144]	; (10002bf8 <hardware_alarm_set_target+0xd8>)
10002b66:	40bd      	lsls	r5, r7
10002b68:	468c      	mov	ip, r1
10002b6a:	7809      	ldrb	r1, [r1, #0]
10002b6c:	4c20      	ldr	r4, [pc, #128]	; (10002bf0 <hardware_alarm_set_target+0xd0>)
10002b6e:	000e      	movs	r6, r1
10002b70:	432e      	orrs	r6, r5
10002b72:	4688      	mov	r8, r1
10002b74:	b2f1      	uxtb	r1, r6
10002b76:	468a      	mov	sl, r1
10002b78:	4661      	mov	r1, ip
10002b7a:	4650      	mov	r0, sl
10002b7c:	7008      	strb	r0, [r1, #0]
10002b7e:	1d39      	adds	r1, r7, #4
10002b80:	481e      	ldr	r0, [pc, #120]	; (10002bfc <hardware_alarm_set_target+0xdc>)
10002b82:	0089      	lsls	r1, r1, #2
10002b84:	6365      	str	r5, [r4, #52]	; 0x34
10002b86:	510a      	str	r2, [r1, r4]
10002b88:	00b9      	lsls	r1, r7, #2
10002b8a:	500b      	str	r3, [r1, r0]
10002b8c:	6a21      	ldr	r1, [r4, #32]
10002b8e:	2000      	movs	r0, #0
10002b90:	4229      	tst	r1, r5
10002b92:	d019      	beq.n	10002bc8 <hardware_alarm_set_target+0xa8>
10002b94:	6a61      	ldr	r1, [r4, #36]	; 0x24
10002b96:	0008      	movs	r0, r1
10002b98:	6aa6      	ldr	r6, [r4, #40]	; 0x28
10002b9a:	6a61      	ldr	r1, [r4, #36]	; 0x24
10002b9c:	4281      	cmp	r1, r0
10002b9e:	d1fa      	bne.n	10002b96 <hardware_alarm_set_target+0x76>
10002ba0:	428b      	cmp	r3, r1
10002ba2:	d819      	bhi.n	10002bd8 <hardware_alarm_set_target+0xb8>
10002ba4:	d101      	bne.n	10002baa <hardware_alarm_set_target+0x8a>
10002ba6:	42b2      	cmp	r2, r6
10002ba8:	d816      	bhi.n	10002bd8 <hardware_alarm_set_target+0xb8>
10002baa:	45c2      	cmp	sl, r8
10002bac:	d01d      	beq.n	10002bea <hardware_alarm_set_target+0xca>
10002bae:	4b10      	ldr	r3, [pc, #64]	; (10002bf0 <hardware_alarm_set_target+0xd0>)
10002bb0:	201f      	movs	r0, #31
10002bb2:	621d      	str	r5, [r3, #32]
10002bb4:	635d      	str	r5, [r3, #52]	; 0x34
10002bb6:	2301      	movs	r3, #1
10002bb8:	4007      	ands	r7, r0
10002bba:	40bb      	lsls	r3, r7
10002bbc:	4a10      	ldr	r2, [pc, #64]	; (10002c00 <hardware_alarm_set_target+0xe0>)
10002bbe:	381e      	subs	r0, #30
10002bc0:	6013      	str	r3, [r2, #0]
10002bc2:	4663      	mov	r3, ip
10002bc4:	4642      	mov	r2, r8
10002bc6:	701a      	strb	r2, [r3, #0]
10002bc8:	f3bf 8f5f 	dmb	sy
10002bcc:	2200      	movs	r2, #0
10002bce:	4b09      	ldr	r3, [pc, #36]	; (10002bf4 <hardware_alarm_set_target+0xd4>)
10002bd0:	601a      	str	r2, [r3, #0]
10002bd2:	f389 8810 	msr	PRIMASK, r9
10002bd6:	e7b4      	b.n	10002b42 <hardware_alarm_set_target+0x22>
10002bd8:	2000      	movs	r0, #0
10002bda:	f3bf 8f5f 	dmb	sy
10002bde:	2200      	movs	r2, #0
10002be0:	4b04      	ldr	r3, [pc, #16]	; (10002bf4 <hardware_alarm_set_target+0xd4>)
10002be2:	601a      	str	r2, [r3, #0]
10002be4:	f389 8810 	msr	PRIMASK, r9
10002be8:	e7ab      	b.n	10002b42 <hardware_alarm_set_target+0x22>
10002bea:	2001      	movs	r0, #1
10002bec:	e7ec      	b.n	10002bc8 <hardware_alarm_set_target+0xa8>
10002bee:	46c0      	nop			; (mov r8, r8)
10002bf0:	40054000 	.word	0x40054000
10002bf4:	d0000128 	.word	0xd0000128
10002bf8:	200018ac 	.word	0x200018ac
10002bfc:	20001884 	.word	0x20001884
10002c00:	e000e280 	.word	0xe000e280

10002c04 <hardware_alarm_cancel>:
10002c04:	b510      	push	{r4, lr}
10002c06:	f3ef 8410 	mrs	r4, PRIMASK
10002c0a:	b672      	cpsid	i
10002c0c:	490a      	ldr	r1, [pc, #40]	; (10002c38 <hardware_alarm_cancel+0x34>)
10002c0e:	680b      	ldr	r3, [r1, #0]
10002c10:	2b00      	cmp	r3, #0
10002c12:	d0fc      	beq.n	10002c0e <hardware_alarm_cancel+0xa>
10002c14:	f3bf 8f5f 	dmb	sy
10002c18:	2301      	movs	r3, #1
10002c1a:	4083      	lsls	r3, r0
10002c1c:	4a07      	ldr	r2, [pc, #28]	; (10002c3c <hardware_alarm_cancel+0x38>)
10002c1e:	4808      	ldr	r0, [pc, #32]	; (10002c40 <hardware_alarm_cancel+0x3c>)
10002c20:	6213      	str	r3, [r2, #32]
10002c22:	7802      	ldrb	r2, [r0, #0]
10002c24:	439a      	bics	r2, r3
10002c26:	7002      	strb	r2, [r0, #0]
10002c28:	f3bf 8f5f 	dmb	sy
10002c2c:	2300      	movs	r3, #0
10002c2e:	600b      	str	r3, [r1, #0]
10002c30:	f384 8810 	msr	PRIMASK, r4
10002c34:	bd10      	pop	{r4, pc}
10002c36:	46c0      	nop			; (mov r8, r8)
10002c38:	d0000128 	.word	0xd0000128
10002c3c:	40054000 	.word	0x40054000
10002c40:	200018ac 	.word	0x200018ac

10002c44 <lock_init>:
10002c44:	4b02      	ldr	r3, [pc, #8]	; (10002c50 <lock_init+0xc>)
10002c46:	469c      	mov	ip, r3
10002c48:	4461      	add	r1, ip
10002c4a:	0089      	lsls	r1, r1, #2
10002c4c:	6001      	str	r1, [r0, #0]
10002c4e:	4770      	bx	lr
10002c50:	34000040 	.word	0x34000040

10002c54 <mutex_init>:
10002c54:	b510      	push	{r4, lr}
10002c56:	0004      	movs	r4, r0
10002c58:	f7ff fa26 	bl	100020a8 <next_striped_spin_lock_num>
10002c5c:	0001      	movs	r1, r0
10002c5e:	0020      	movs	r0, r4
10002c60:	f7ff fff0 	bl	10002c44 <lock_init>
10002c64:	23ff      	movs	r3, #255	; 0xff
10002c66:	7123      	strb	r3, [r4, #4]
10002c68:	f3bf 8f5f 	dmb	sy
10002c6c:	bd10      	pop	{r4, pc}
10002c6e:	46c0      	nop			; (mov r8, r8)

10002c70 <recursive_mutex_init>:
10002c70:	b510      	push	{r4, lr}
10002c72:	0004      	movs	r4, r0
10002c74:	f7ff fa18 	bl	100020a8 <next_striped_spin_lock_num>
10002c78:	0001      	movs	r1, r0
10002c7a:	0020      	movs	r0, r4
10002c7c:	f7ff ffe2 	bl	10002c44 <lock_init>
10002c80:	23ff      	movs	r3, #255	; 0xff
10002c82:	80a3      	strh	r3, [r4, #4]
10002c84:	f3bf 8f5f 	dmb	sy
10002c88:	bd10      	pop	{r4, pc}
10002c8a:	46c0      	nop			; (mov r8, r8)

10002c8c <critical_section_init>:
10002c8c:	b510      	push	{r4, lr}
10002c8e:	0004      	movs	r4, r0
10002c90:	2001      	movs	r0, #1
10002c92:	f7ff fa15 	bl	100020c0 <spin_lock_claim_unused>
10002c96:	4b03      	ldr	r3, [pc, #12]	; (10002ca4 <critical_section_init+0x18>)
10002c98:	18c3      	adds	r3, r0, r3
10002c9a:	009b      	lsls	r3, r3, #2
10002c9c:	6023      	str	r3, [r4, #0]
10002c9e:	f3bf 8f5f 	dmb	sy
10002ca2:	bd10      	pop	{r4, pc}
10002ca4:	34000040 	.word	0x34000040

10002ca8 <ph_merge_nodes>:
10002ca8:	b570      	push	{r4, r5, r6, lr}
10002caa:	0005      	movs	r5, r0
10002cac:	000e      	movs	r6, r1
10002cae:	0014      	movs	r4, r2
10002cb0:	2900      	cmp	r1, #0
10002cb2:	d024      	beq.n	10002cfe <ph_merge_nodes+0x56>
10002cb4:	2a00      	cmp	r2, #0
10002cb6:	d024      	beq.n	10002d02 <ph_merge_nodes+0x5a>
10002cb8:	6880      	ldr	r0, [r0, #8]
10002cba:	686b      	ldr	r3, [r5, #4]
10002cbc:	4798      	blx	r3
10002cbe:	6829      	ldr	r1, [r5, #0]
10002cc0:	2800      	cmp	r0, #0
10002cc2:	d00e      	beq.n	10002ce2 <ph_merge_nodes+0x3a>
10002cc4:	0063      	lsls	r3, r4, #1
10002cc6:	191b      	adds	r3, r3, r4
10002cc8:	0072      	lsls	r2, r6, #1
10002cca:	3b03      	subs	r3, #3
10002ccc:	1992      	adds	r2, r2, r6
10002cce:	18cb      	adds	r3, r1, r3
10002cd0:	3a03      	subs	r2, #3
10002cd2:	709e      	strb	r6, [r3, #2]
10002cd4:	1888      	adds	r0, r1, r2
10002cd6:	5c8a      	ldrb	r2, [r1, r2]
10002cd8:	2a00      	cmp	r2, #0
10002cda:	d114      	bne.n	10002d06 <ph_merge_nodes+0x5e>
10002cdc:	7004      	strb	r4, [r0, #0]
10002cde:	0030      	movs	r0, r6
10002ce0:	e00e      	b.n	10002d00 <ph_merge_nodes+0x58>
10002ce2:	0073      	lsls	r3, r6, #1
10002ce4:	199b      	adds	r3, r3, r6
10002ce6:	0062      	lsls	r2, r4, #1
10002ce8:	3b03      	subs	r3, #3
10002cea:	1912      	adds	r2, r2, r4
10002cec:	18cb      	adds	r3, r1, r3
10002cee:	3a03      	subs	r2, #3
10002cf0:	709c      	strb	r4, [r3, #2]
10002cf2:	1888      	adds	r0, r1, r2
10002cf4:	5c8a      	ldrb	r2, [r1, r2]
10002cf6:	2a00      	cmp	r2, #0
10002cf8:	d000      	beq.n	10002cfc <ph_merge_nodes+0x54>
10002cfa:	705a      	strb	r2, [r3, #1]
10002cfc:	7006      	strb	r6, [r0, #0]
10002cfe:	0020      	movs	r0, r4
10002d00:	bd70      	pop	{r4, r5, r6, pc}
10002d02:	0008      	movs	r0, r1
10002d04:	e7fc      	b.n	10002d00 <ph_merge_nodes+0x58>
10002d06:	705a      	strb	r2, [r3, #1]
10002d08:	7004      	strb	r4, [r0, #0]
10002d0a:	0030      	movs	r0, r6
10002d0c:	e7f8      	b.n	10002d00 <ph_merge_nodes+0x58>
10002d0e:	46c0      	nop			; (mov r8, r8)

10002d10 <ph_post_alloc_init>:
10002d10:	b530      	push	{r4, r5, lr}
10002d12:	6083      	str	r3, [r0, #8]
10002d14:	2300      	movs	r3, #0
10002d16:	b2cc      	uxtb	r4, r1
10002d18:	7343      	strb	r3, [r0, #13]
10002d1a:	3301      	adds	r3, #1
10002d1c:	7304      	strb	r4, [r0, #12]
10002d1e:	6042      	str	r2, [r0, #4]
10002d20:	7383      	strb	r3, [r0, #14]
10002d22:	73c4      	strb	r4, [r0, #15]
10002d24:	000d      	movs	r5, r1
10002d26:	6800      	ldr	r0, [r0, #0]
10002d28:	2c01      	cmp	r4, #1
10002d2a:	d906      	bls.n	10002d3a <ph_post_alloc_init+0x2a>
10002d2c:	1c42      	adds	r2, r0, #1
10002d2e:	3301      	adds	r3, #1
10002d30:	b2db      	uxtb	r3, r3
10002d32:	7013      	strb	r3, [r2, #0]
10002d34:	3203      	adds	r2, #3
10002d36:	429c      	cmp	r4, r3
10002d38:	d1f9      	bne.n	10002d2e <ph_post_alloc_init+0x1e>
10002d3a:	21ff      	movs	r1, #255	; 0xff
10002d3c:	4029      	ands	r1, r5
10002d3e:	004b      	lsls	r3, r1, #1
10002d40:	1859      	adds	r1, r3, r1
10002d42:	2300      	movs	r3, #0
10002d44:	1840      	adds	r0, r0, r1
10002d46:	3803      	subs	r0, #3
10002d48:	7043      	strb	r3, [r0, #1]
10002d4a:	bd30      	pop	{r4, r5, pc}

10002d4c <ph_merge_two_pass>:
10002d4c:	b5f8      	push	{r3, r4, r5, r6, r7, lr}
10002d4e:	46ce      	mov	lr, r9
10002d50:	4647      	mov	r7, r8
10002d52:	0006      	movs	r6, r0
10002d54:	000c      	movs	r4, r1
10002d56:	b580      	push	{r7, lr}
10002d58:	2900      	cmp	r1, #0
10002d5a:	d007      	beq.n	10002d6c <ph_merge_two_pass+0x20>
10002d5c:	004d      	lsls	r5, r1, #1
10002d5e:	6803      	ldr	r3, [r0, #0]
10002d60:	186d      	adds	r5, r5, r1
10002d62:	3d03      	subs	r5, #3
10002d64:	195a      	adds	r2, r3, r5
10002d66:	7857      	ldrb	r7, [r2, #1]
10002d68:	2f00      	cmp	r7, #0
10002d6a:	d104      	bne.n	10002d76 <ph_merge_two_pass+0x2a>
10002d6c:	0020      	movs	r0, r4
10002d6e:	bc0c      	pop	{r2, r3}
10002d70:	4690      	mov	r8, r2
10002d72:	4699      	mov	r9, r3
10002d74:	bdf8      	pop	{r3, r4, r5, r6, r7, pc}
10002d76:	0079      	lsls	r1, r7, #1
10002d78:	19c9      	adds	r1, r1, r7
10002d7a:	3903      	subs	r1, #3
10002d7c:	4688      	mov	r8, r1
10002d7e:	4443      	add	r3, r8
10002d80:	7859      	ldrb	r1, [r3, #1]
10002d82:	4689      	mov	r9, r1
10002d84:	2100      	movs	r1, #0
10002d86:	7059      	strb	r1, [r3, #1]
10002d88:	7051      	strb	r1, [r2, #1]
10002d8a:	6873      	ldr	r3, [r6, #4]
10002d8c:	003a      	movs	r2, r7
10002d8e:	0021      	movs	r1, r4
10002d90:	6880      	ldr	r0, [r0, #8]
10002d92:	4798      	blx	r3
10002d94:	6833      	ldr	r3, [r6, #0]
10002d96:	2800      	cmp	r0, #0
10002d98:	d014      	beq.n	10002dc4 <ph_merge_two_pass+0x78>
10002d9a:	4642      	mov	r2, r8
10002d9c:	189a      	adds	r2, r3, r2
10002d9e:	7094      	strb	r4, [r2, #2]
10002da0:	1959      	adds	r1, r3, r5
10002da2:	5d5b      	ldrb	r3, [r3, r5]
10002da4:	2b00      	cmp	r3, #0
10002da6:	d000      	beq.n	10002daa <ph_merge_two_pass+0x5e>
10002da8:	7053      	strb	r3, [r2, #1]
10002daa:	700f      	strb	r7, [r1, #0]
10002dac:	0027      	movs	r7, r4
10002dae:	4649      	mov	r1, r9
10002db0:	0030      	movs	r0, r6
10002db2:	f7ff ffcb 	bl	10002d4c <ph_merge_two_pass>
10002db6:	0039      	movs	r1, r7
10002db8:	0002      	movs	r2, r0
10002dba:	0030      	movs	r0, r6
10002dbc:	f7ff ff74 	bl	10002ca8 <ph_merge_nodes>
10002dc0:	0004      	movs	r4, r0
10002dc2:	e7d3      	b.n	10002d6c <ph_merge_two_pass+0x20>
10002dc4:	4642      	mov	r2, r8
10002dc6:	4641      	mov	r1, r8
10002dc8:	195d      	adds	r5, r3, r5
10002dca:	70af      	strb	r7, [r5, #2]
10002dcc:	189a      	adds	r2, r3, r2
10002dce:	5c5b      	ldrb	r3, [r3, r1]
10002dd0:	2b00      	cmp	r3, #0
10002dd2:	d000      	beq.n	10002dd6 <ph_merge_two_pass+0x8a>
10002dd4:	706b      	strb	r3, [r5, #1]
10002dd6:	7014      	strb	r4, [r2, #0]
10002dd8:	e7e9      	b.n	10002dae <ph_merge_two_pass+0x62>
10002dda:	46c0      	nop			; (mov r8, r8)

10002ddc <ph_remove_any_head>:
10002ddc:	b5f0      	push	{r4, r5, r6, r7, lr}
10002dde:	4657      	mov	r7, sl
10002de0:	4645      	mov	r5, r8
10002de2:	46de      	mov	lr, fp
10002de4:	464e      	mov	r6, r9
10002de6:	b5e0      	push	{r5, r6, r7, lr}
10002de8:	000d      	movs	r5, r1
10002dea:	006b      	lsls	r3, r5, #1
10002dec:	6801      	ldr	r1, [r0, #0]
10002dee:	195b      	adds	r3, r3, r5
10002df0:	1edf      	subs	r7, r3, #3
10002df2:	0004      	movs	r4, r0
10002df4:	5dc8      	ldrb	r0, [r1, r7]
10002df6:	b083      	sub	sp, #12
10002df8:	9201      	str	r2, [sp, #4]
10002dfa:	19ca      	adds	r2, r1, r7
10002dfc:	2800      	cmp	r0, #0
10002dfe:	d04c      	beq.n	10002e9a <ph_remove_any_head+0xbe>
10002e00:	0043      	lsls	r3, r0, #1
10002e02:	181b      	adds	r3, r3, r0
10002e04:	3b03      	subs	r3, #3
10002e06:	18cb      	adds	r3, r1, r3
10002e08:	785e      	ldrb	r6, [r3, #1]
10002e0a:	46b4      	mov	ip, r6
10002e0c:	2e00      	cmp	r6, #0
10002e0e:	d116      	bne.n	10002e3e <ph_remove_any_head+0x62>
10002e10:	9e01      	ldr	r6, [sp, #4]
10002e12:	2e00      	cmp	r6, #0
10002e14:	d03e      	beq.n	10002e94 <ph_remove_any_head+0xb8>
10002e16:	7be6      	ldrb	r6, [r4, #15]
10002e18:	2e00      	cmp	r6, #0
10002e1a:	d004      	beq.n	10002e26 <ph_remove_any_head+0x4a>
10002e1c:	0073      	lsls	r3, r6, #1
10002e1e:	199b      	adds	r3, r3, r6
10002e20:	18cb      	adds	r3, r1, r3
10002e22:	3b03      	subs	r3, #3
10002e24:	705d      	strb	r5, [r3, #1]
10002e26:	73e5      	strb	r5, [r4, #15]
10002e28:	2800      	cmp	r0, #0
10002e2a:	d12f      	bne.n	10002e8c <ph_remove_any_head+0xb0>
10002e2c:	2300      	movs	r3, #0
10002e2e:	7053      	strb	r3, [r2, #1]
10002e30:	b003      	add	sp, #12
10002e32:	bc3c      	pop	{r2, r3, r4, r5}
10002e34:	4690      	mov	r8, r2
10002e36:	4699      	mov	r9, r3
10002e38:	46a2      	mov	sl, r4
10002e3a:	46ab      	mov	fp, r5
10002e3c:	bdf0      	pop	{r4, r5, r6, r7, pc}
10002e3e:	0072      	lsls	r2, r6, #1
10002e40:	4462      	add	r2, ip
10002e42:	3a03      	subs	r2, #3
10002e44:	1889      	adds	r1, r1, r2
10002e46:	784a      	ldrb	r2, [r1, #1]
10002e48:	4690      	mov	r8, r2
10002e4a:	2200      	movs	r2, #0
10002e4c:	704a      	strb	r2, [r1, #1]
10002e4e:	4691      	mov	r9, r2
10002e50:	705a      	strb	r2, [r3, #1]
10002e52:	0001      	movs	r1, r0
10002e54:	0032      	movs	r2, r6
10002e56:	0020      	movs	r0, r4
10002e58:	f7ff ff26 	bl	10002ca8 <ph_merge_nodes>
10002e5c:	4643      	mov	r3, r8
10002e5e:	4682      	mov	sl, r0
10002e60:	2b00      	cmp	r3, #0
10002e62:	d007      	beq.n	10002e74 <ph_remove_any_head+0x98>
10002e64:	005b      	lsls	r3, r3, #1
10002e66:	6821      	ldr	r1, [r4, #0]
10002e68:	4443      	add	r3, r8
10002e6a:	3b03      	subs	r3, #3
10002e6c:	18cb      	adds	r3, r1, r3
10002e6e:	785a      	ldrb	r2, [r3, #1]
10002e70:	2a00      	cmp	r2, #0
10002e72:	d116      	bne.n	10002ea2 <ph_remove_any_head+0xc6>
10002e74:	4642      	mov	r2, r8
10002e76:	4651      	mov	r1, sl
10002e78:	0020      	movs	r0, r4
10002e7a:	f7ff ff15 	bl	10002ca8 <ph_merge_nodes>
10002e7e:	6821      	ldr	r1, [r4, #0]
10002e80:	9b01      	ldr	r3, [sp, #4]
10002e82:	19ca      	adds	r2, r1, r7
10002e84:	2b00      	cmp	r3, #0
10002e86:	d1c6      	bne.n	10002e16 <ph_remove_any_head+0x3a>
10002e88:	2800      	cmp	r0, #0
10002e8a:	d0cf      	beq.n	10002e2c <ph_remove_any_head+0x50>
10002e8c:	0043      	lsls	r3, r0, #1
10002e8e:	181b      	adds	r3, r3, r0
10002e90:	3b03      	subs	r3, #3
10002e92:	18cb      	adds	r3, r1, r3
10002e94:	2100      	movs	r1, #0
10002e96:	7099      	strb	r1, [r3, #2]
10002e98:	e7c8      	b.n	10002e2c <ph_remove_any_head+0x50>
10002e9a:	9b01      	ldr	r3, [sp, #4]
10002e9c:	2b00      	cmp	r3, #0
10002e9e:	d1ba      	bne.n	10002e16 <ph_remove_any_head+0x3a>
10002ea0:	e7c4      	b.n	10002e2c <ph_remove_any_head+0x50>
10002ea2:	0050      	lsls	r0, r2, #1
10002ea4:	1880      	adds	r0, r0, r2
10002ea6:	3803      	subs	r0, #3
10002ea8:	1809      	adds	r1, r1, r0
10002eaa:	7848      	ldrb	r0, [r1, #1]
10002eac:	4683      	mov	fp, r0
10002eae:	4648      	mov	r0, r9
10002eb0:	7048      	strb	r0, [r1, #1]
10002eb2:	7058      	strb	r0, [r3, #1]
10002eb4:	4641      	mov	r1, r8
10002eb6:	0020      	movs	r0, r4
10002eb8:	f7ff fef6 	bl	10002ca8 <ph_merge_nodes>
10002ebc:	4659      	mov	r1, fp
10002ebe:	4680      	mov	r8, r0
10002ec0:	0020      	movs	r0, r4
10002ec2:	f7ff ff43 	bl	10002d4c <ph_merge_two_pass>
10002ec6:	4641      	mov	r1, r8
10002ec8:	0002      	movs	r2, r0
10002eca:	0020      	movs	r0, r4
10002ecc:	f7ff feec 	bl	10002ca8 <ph_merge_nodes>
10002ed0:	4680      	mov	r8, r0
10002ed2:	e7cf      	b.n	10002e74 <ph_remove_any_head+0x98>

10002ed4 <ph_remove_head>:
10002ed4:	b5f0      	push	{r4, r5, r6, r7, lr}
10002ed6:	464e      	mov	r6, r9
10002ed8:	4645      	mov	r5, r8
10002eda:	46de      	mov	lr, fp
10002edc:	4657      	mov	r7, sl
10002ede:	b5e0      	push	{r5, r6, r7, lr}
10002ee0:	7b46      	ldrb	r6, [r0, #13]
10002ee2:	0004      	movs	r4, r0
10002ee4:	0075      	lsls	r5, r6, #1
10002ee6:	6800      	ldr	r0, [r0, #0]
10002ee8:	19ad      	adds	r5, r5, r6
10002eea:	3d03      	subs	r5, #3
10002eec:	b083      	sub	sp, #12
10002eee:	9101      	str	r1, [sp, #4]
10002ef0:	5d41      	ldrb	r1, [r0, r5]
10002ef2:	1942      	adds	r2, r0, r5
10002ef4:	2900      	cmp	r1, #0
10002ef6:	d04e      	beq.n	10002f96 <ph_remove_head+0xc2>
10002ef8:	004b      	lsls	r3, r1, #1
10002efa:	185b      	adds	r3, r3, r1
10002efc:	3b03      	subs	r3, #3
10002efe:	18c3      	adds	r3, r0, r3
10002f00:	785f      	ldrb	r7, [r3, #1]
10002f02:	46bc      	mov	ip, r7
10002f04:	2f00      	cmp	r7, #0
10002f06:	d118      	bne.n	10002f3a <ph_remove_head+0x66>
10002f08:	9d01      	ldr	r5, [sp, #4]
10002f0a:	2d00      	cmp	r5, #0
10002f0c:	d040      	beq.n	10002f90 <ph_remove_head+0xbc>
10002f0e:	7be5      	ldrb	r5, [r4, #15]
10002f10:	2d00      	cmp	r5, #0
10002f12:	d004      	beq.n	10002f1e <ph_remove_head+0x4a>
10002f14:	006b      	lsls	r3, r5, #1
10002f16:	195b      	adds	r3, r3, r5
10002f18:	18c3      	adds	r3, r0, r3
10002f1a:	3b03      	subs	r3, #3
10002f1c:	705e      	strb	r6, [r3, #1]
10002f1e:	73e6      	strb	r6, [r4, #15]
10002f20:	2900      	cmp	r1, #0
10002f22:	d131      	bne.n	10002f88 <ph_remove_head+0xb4>
10002f24:	2300      	movs	r3, #0
10002f26:	0030      	movs	r0, r6
10002f28:	7053      	strb	r3, [r2, #1]
10002f2a:	7361      	strb	r1, [r4, #13]
10002f2c:	b003      	add	sp, #12
10002f2e:	bc3c      	pop	{r2, r3, r4, r5}
10002f30:	4690      	mov	r8, r2
10002f32:	4699      	mov	r9, r3
10002f34:	46a2      	mov	sl, r4
10002f36:	46ab      	mov	fp, r5
10002f38:	bdf0      	pop	{r4, r5, r6, r7, pc}
10002f3a:	007a      	lsls	r2, r7, #1
10002f3c:	4462      	add	r2, ip
10002f3e:	3a03      	subs	r2, #3
10002f40:	1880      	adds	r0, r0, r2
10002f42:	7842      	ldrb	r2, [r0, #1]
10002f44:	4693      	mov	fp, r2
10002f46:	2200      	movs	r2, #0
10002f48:	7042      	strb	r2, [r0, #1]
10002f4a:	4691      	mov	r9, r2
10002f4c:	705a      	strb	r2, [r3, #1]
10002f4e:	0020      	movs	r0, r4
10002f50:	003a      	movs	r2, r7
10002f52:	f7ff fea9 	bl	10002ca8 <ph_merge_nodes>
10002f56:	465b      	mov	r3, fp
10002f58:	4680      	mov	r8, r0
10002f5a:	2b00      	cmp	r3, #0
10002f5c:	d007      	beq.n	10002f6e <ph_remove_head+0x9a>
10002f5e:	005b      	lsls	r3, r3, #1
10002f60:	6821      	ldr	r1, [r4, #0]
10002f62:	445b      	add	r3, fp
10002f64:	3b03      	subs	r3, #3
10002f66:	18cb      	adds	r3, r1, r3
10002f68:	785a      	ldrb	r2, [r3, #1]
10002f6a:	2a00      	cmp	r2, #0
10002f6c:	d117      	bne.n	10002f9e <ph_remove_head+0xca>
10002f6e:	465a      	mov	r2, fp
10002f70:	4641      	mov	r1, r8
10002f72:	0020      	movs	r0, r4
10002f74:	f7ff fe98 	bl	10002ca8 <ph_merge_nodes>
10002f78:	9b01      	ldr	r3, [sp, #4]
10002f7a:	0001      	movs	r1, r0
10002f7c:	6820      	ldr	r0, [r4, #0]
10002f7e:	1942      	adds	r2, r0, r5
10002f80:	2b00      	cmp	r3, #0
10002f82:	d1c4      	bne.n	10002f0e <ph_remove_head+0x3a>
10002f84:	2900      	cmp	r1, #0
10002f86:	d0cd      	beq.n	10002f24 <ph_remove_head+0x50>
10002f88:	004b      	lsls	r3, r1, #1
10002f8a:	185b      	adds	r3, r3, r1
10002f8c:	3b03      	subs	r3, #3
10002f8e:	18c3      	adds	r3, r0, r3
10002f90:	2000      	movs	r0, #0
10002f92:	7098      	strb	r0, [r3, #2]
10002f94:	e7c6      	b.n	10002f24 <ph_remove_head+0x50>
10002f96:	9b01      	ldr	r3, [sp, #4]
10002f98:	2b00      	cmp	r3, #0
10002f9a:	d1b8      	bne.n	10002f0e <ph_remove_head+0x3a>
10002f9c:	e7c2      	b.n	10002f24 <ph_remove_head+0x50>
10002f9e:	0050      	lsls	r0, r2, #1
10002fa0:	1880      	adds	r0, r0, r2
10002fa2:	3803      	subs	r0, #3
10002fa4:	1809      	adds	r1, r1, r0
10002fa6:	7848      	ldrb	r0, [r1, #1]
10002fa8:	4682      	mov	sl, r0
10002faa:	4648      	mov	r0, r9
10002fac:	7048      	strb	r0, [r1, #1]
10002fae:	7058      	strb	r0, [r3, #1]
10002fb0:	4659      	mov	r1, fp
10002fb2:	0020      	movs	r0, r4
10002fb4:	f7ff fe78 	bl	10002ca8 <ph_merge_nodes>
10002fb8:	4653      	mov	r3, sl
10002fba:	4683      	mov	fp, r0
10002fbc:	2b00      	cmp	r3, #0
10002fbe:	d007      	beq.n	10002fd0 <ph_remove_head+0xfc>
10002fc0:	005b      	lsls	r3, r3, #1
10002fc2:	6821      	ldr	r1, [r4, #0]
10002fc4:	4453      	add	r3, sl
10002fc6:	3b03      	subs	r3, #3
10002fc8:	18cb      	adds	r3, r1, r3
10002fca:	785a      	ldrb	r2, [r3, #1]
10002fcc:	2a00      	cmp	r2, #0
10002fce:	d106      	bne.n	10002fde <ph_remove_head+0x10a>
10002fd0:	4659      	mov	r1, fp
10002fd2:	4652      	mov	r2, sl
10002fd4:	0020      	movs	r0, r4
10002fd6:	f7ff fe67 	bl	10002ca8 <ph_merge_nodes>
10002fda:	4683      	mov	fp, r0
10002fdc:	e7c7      	b.n	10002f6e <ph_remove_head+0x9a>
10002fde:	0050      	lsls	r0, r2, #1
10002fe0:	1880      	adds	r0, r0, r2
10002fe2:	3803      	subs	r0, #3
10002fe4:	1809      	adds	r1, r1, r0
10002fe6:	4648      	mov	r0, r9
10002fe8:	784f      	ldrb	r7, [r1, #1]
10002fea:	7048      	strb	r0, [r1, #1]
10002fec:	7058      	strb	r0, [r3, #1]
10002fee:	4651      	mov	r1, sl
10002ff0:	0020      	movs	r0, r4
10002ff2:	f7ff fe59 	bl	10002ca8 <ph_merge_nodes>
10002ff6:	0039      	movs	r1, r7
10002ff8:	4681      	mov	r9, r0
10002ffa:	0020      	movs	r0, r4
10002ffc:	f7ff fea6 	bl	10002d4c <ph_merge_two_pass>
10003000:	4649      	mov	r1, r9
10003002:	0002      	movs	r2, r0
10003004:	0020      	movs	r0, r4
10003006:	f7ff fe4f 	bl	10002ca8 <ph_merge_nodes>
1000300a:	4682      	mov	sl, r0
1000300c:	e7e0      	b.n	10002fd0 <ph_remove_head+0xfc>
1000300e:	46c0      	nop			; (mov r8, r8)

10003010 <ph_remove_and_free_node>:
10003010:	b570      	push	{r4, r5, r6, lr}
10003012:	0004      	movs	r4, r0
10003014:	2900      	cmp	r1, #0
10003016:	d02c      	beq.n	10003072 <ph_remove_and_free_node+0x62>
10003018:	7b43      	ldrb	r3, [r0, #13]
1000301a:	428b      	cmp	r3, r1
1000301c:	d02e      	beq.n	1000307c <ph_remove_and_free_node+0x6c>
1000301e:	6805      	ldr	r5, [r0, #0]
10003020:	0048      	lsls	r0, r1, #1
10003022:	1840      	adds	r0, r0, r1
10003024:	3803      	subs	r0, #3
10003026:	1828      	adds	r0, r5, r0
10003028:	7882      	ldrb	r2, [r0, #2]
1000302a:	2a00      	cmp	r2, #0
1000302c:	d021      	beq.n	10003072 <ph_remove_and_free_node+0x62>
1000302e:	0053      	lsls	r3, r2, #1
10003030:	189b      	adds	r3, r3, r2
10003032:	3b03      	subs	r3, #3
10003034:	5cea      	ldrb	r2, [r5, r3]
10003036:	18ee      	adds	r6, r5, r3
10003038:	428a      	cmp	r2, r1
1000303a:	d102      	bne.n	10003042 <ph_remove_and_free_node+0x32>
1000303c:	e01b      	b.n	10003076 <ph_remove_and_free_node+0x66>
1000303e:	2a00      	cmp	r2, #0
10003040:	d008      	beq.n	10003054 <ph_remove_and_free_node+0x44>
10003042:	0053      	lsls	r3, r2, #1
10003044:	189b      	adds	r3, r3, r2
10003046:	3b03      	subs	r3, #3
10003048:	18eb      	adds	r3, r5, r3
1000304a:	785a      	ldrb	r2, [r3, #1]
1000304c:	428a      	cmp	r2, r1
1000304e:	d1f6      	bne.n	1000303e <ph_remove_and_free_node+0x2e>
10003050:	7842      	ldrb	r2, [r0, #1]
10003052:	705a      	strb	r2, [r3, #1]
10003054:	2300      	movs	r3, #0
10003056:	2201      	movs	r2, #1
10003058:	7083      	strb	r3, [r0, #2]
1000305a:	7043      	strb	r3, [r0, #1]
1000305c:	0020      	movs	r0, r4
1000305e:	f7ff febd 	bl	10002ddc <ph_remove_any_head>
10003062:	7b61      	ldrb	r1, [r4, #13]
10003064:	0002      	movs	r2, r0
10003066:	0020      	movs	r0, r4
10003068:	f7ff fe1e 	bl	10002ca8 <ph_merge_nodes>
1000306c:	7360      	strb	r0, [r4, #13]
1000306e:	2001      	movs	r0, #1
10003070:	e000      	b.n	10003074 <ph_remove_and_free_node+0x64>
10003072:	2000      	movs	r0, #0
10003074:	bd70      	pop	{r4, r5, r6, pc}
10003076:	7843      	ldrb	r3, [r0, #1]
10003078:	7033      	strb	r3, [r6, #0]
1000307a:	e7eb      	b.n	10003054 <ph_remove_and_free_node+0x44>
1000307c:	2201      	movs	r2, #1
1000307e:	0019      	movs	r1, r3
10003080:	f7ff feac 	bl	10002ddc <ph_remove_any_head>
10003084:	7360      	strb	r0, [r4, #13]
10003086:	2001      	movs	r0, #1
10003088:	e7f4      	b.n	10003074 <ph_remove_and_free_node+0x64>
1000308a:	46c0      	nop			; (mov r8, r8)

1000308c <runtime_init>:
1000308c:	4b2c      	ldr	r3, [pc, #176]	; (10003140 <runtime_init+0xb4>)
1000308e:	4a2d      	ldr	r2, [pc, #180]	; (10003144 <runtime_init+0xb8>)
10003090:	b570      	push	{r4, r5, r6, lr}
10003092:	601a      	str	r2, [r3, #0]
10003094:	4a2c      	ldr	r2, [pc, #176]	; (10003148 <runtime_init+0xbc>)
10003096:	4b2d      	ldr	r3, [pc, #180]	; (1000314c <runtime_init+0xc0>)
10003098:	492d      	ldr	r1, [pc, #180]	; (10003150 <runtime_init+0xc4>)
1000309a:	601a      	str	r2, [r3, #0]
1000309c:	0010      	movs	r0, r2
1000309e:	688b      	ldr	r3, [r1, #8]
100030a0:	4398      	bics	r0, r3
100030a2:	d1fb      	bne.n	1000309c <runtime_init+0x10>
100030a4:	4c2b      	ldr	r4, [pc, #172]	; (10003154 <runtime_init+0xc8>)
100030a6:	4b2c      	ldr	r3, [pc, #176]	; (10003158 <runtime_init+0xcc>)
100030a8:	429c      	cmp	r4, r3
100030aa:	d209      	bcs.n	100030c0 <runtime_init+0x34>
100030ac:	3b01      	subs	r3, #1
100030ae:	1b1d      	subs	r5, r3, r4
100030b0:	08ad      	lsrs	r5, r5, #2
100030b2:	3501      	adds	r5, #1
100030b4:	00ad      	lsls	r5, r5, #2
100030b6:	192d      	adds	r5, r5, r4
100030b8:	cc08      	ldmia	r4!, {r3}
100030ba:	4798      	blx	r3
100030bc:	42ac      	cmp	r4, r5
100030be:	d1fb      	bne.n	100030b8 <runtime_init+0x2c>
100030c0:	f000 f896 	bl	100031f0 <clocks_init>
100030c4:	4a25      	ldr	r2, [pc, #148]	; (1000315c <runtime_init+0xd0>)
100030c6:	4b21      	ldr	r3, [pc, #132]	; (1000314c <runtime_init+0xc0>)
100030c8:	601a      	str	r2, [r3, #0]
100030ca:	4a21      	ldr	r2, [pc, #132]	; (10003150 <runtime_init+0xc4>)
100030cc:	6893      	ldr	r3, [r2, #8]
100030ce:	01db      	lsls	r3, r3, #7
100030d0:	3380      	adds	r3, #128	; 0x80
100030d2:	d1fb      	bne.n	100030cc <runtime_init+0x40>
100030d4:	2240      	movs	r2, #64	; 0x40
100030d6:	4b22      	ldr	r3, [pc, #136]	; (10003160 <runtime_init+0xd4>)
100030d8:	4c22      	ldr	r4, [pc, #136]	; (10003164 <runtime_init+0xd8>)
100030da:	4d23      	ldr	r5, [pc, #140]	; (10003168 <runtime_init+0xdc>)
100030dc:	679a      	str	r2, [r3, #120]	; 0x78
100030de:	675a      	str	r2, [r3, #116]	; 0x74
100030e0:	671a      	str	r2, [r3, #112]	; 0x70
100030e2:	66da      	str	r2, [r3, #108]	; 0x6c
100030e4:	42ac      	cmp	r4, r5
100030e6:	d208      	bcs.n	100030fa <runtime_init+0x6e>
100030e8:	6823      	ldr	r3, [r4, #0]
100030ea:	0020      	movs	r0, r4
100030ec:	2b00      	cmp	r3, #0
100030ee:	d021      	beq.n	10003134 <runtime_init+0xa8>
100030f0:	3408      	adds	r4, #8
100030f2:	f7ff fdbd 	bl	10002c70 <recursive_mutex_init>
100030f6:	42ac      	cmp	r4, r5
100030f8:	d3f6      	bcc.n	100030e8 <runtime_init+0x5c>
100030fa:	4c1c      	ldr	r4, [pc, #112]	; (1000316c <runtime_init+0xe0>)
100030fc:	4d1c      	ldr	r5, [pc, #112]	; (10003170 <runtime_init+0xe4>)
100030fe:	68a1      	ldr	r1, [r4, #8]
10003100:	22c0      	movs	r2, #192	; 0xc0
10003102:	0028      	movs	r0, r5
10003104:	f002 fe70 	bl	10005de8 <__wrap___aeabi_memcpy>
10003108:	60a5      	str	r5, [r4, #8]
1000310a:	f7fe ffbf 	bl	1000208c <spin_locks_reset>
1000310e:	f000 fb57 	bl	100037c0 <irq_init_priorities>
10003112:	f7ff fa13 	bl	1000253c <alarm_pool_init_default>
10003116:	4c17      	ldr	r4, [pc, #92]	; (10003174 <runtime_init+0xe8>)
10003118:	4b17      	ldr	r3, [pc, #92]	; (10003178 <runtime_init+0xec>)
1000311a:	429c      	cmp	r4, r3
1000311c:	d209      	bcs.n	10003132 <runtime_init+0xa6>
1000311e:	3b01      	subs	r3, #1
10003120:	1b1d      	subs	r5, r3, r4
10003122:	08ad      	lsrs	r5, r5, #2
10003124:	3501      	adds	r5, #1
10003126:	00ad      	lsls	r5, r5, #2
10003128:	192d      	adds	r5, r5, r4
1000312a:	cc08      	ldmia	r4!, {r3}
1000312c:	4798      	blx	r3
1000312e:	42a5      	cmp	r5, r4
10003130:	d1fb      	bne.n	1000312a <runtime_init+0x9e>
10003132:	bd70      	pop	{r4, r5, r6, pc}
10003134:	3408      	adds	r4, #8
10003136:	f7ff fd8d 	bl	10002c54 <mutex_init>
1000313a:	42ac      	cmp	r4, r5
1000313c:	d3d4      	bcc.n	100030e8 <runtime_init+0x5c>
1000313e:	e7dc      	b.n	100030fa <runtime_init+0x6e>
10003140:	4000e000 	.word	0x4000e000
10003144:	fefbcdbf 	.word	0xfefbcdbf
10003148:	003c7ffe 	.word	0x003c7ffe
1000314c:	4000f000 	.word	0x4000f000
10003150:	4000c000 	.word	0x4000c000
10003154:	20000d18 	.word	0x20000d18
10003158:	20000d28 	.word	0x20000d28
1000315c:	01ffffff 	.word	0x01ffffff
10003160:	4001f000 	.word	0x4001f000
10003164:	20000d10 	.word	0x20000d10
10003168:	20000d18 	.word	0x20000d18
1000316c:	e000ed00 	.word	0xe000ed00
10003170:	20000000 	.word	0x20000000
10003174:	20000d28 	.word	0x20000d28
10003178:	20000d38 	.word	0x20000d38

1000317c <_sbrk>:
1000317c:	4a09      	ldr	r2, [pc, #36]	; (100031a4 <_sbrk+0x28>)
1000317e:	0003      	movs	r3, r0
10003180:	6810      	ldr	r0, [r2, #0]
10003182:	2800      	cmp	r0, #0
10003184:	d005      	beq.n	10003192 <_sbrk+0x16>
10003186:	4908      	ldr	r1, [pc, #32]	; (100031a8 <_sbrk+0x2c>)
10003188:	18c3      	adds	r3, r0, r3
1000318a:	428b      	cmp	r3, r1
1000318c:	d807      	bhi.n	1000319e <_sbrk+0x22>
1000318e:	6013      	str	r3, [r2, #0]
10003190:	4770      	bx	lr
10003192:	4806      	ldr	r0, [pc, #24]	; (100031ac <_sbrk+0x30>)
10003194:	4904      	ldr	r1, [pc, #16]	; (100031a8 <_sbrk+0x2c>)
10003196:	18c3      	adds	r3, r0, r3
10003198:	6010      	str	r0, [r2, #0]
1000319a:	428b      	cmp	r3, r1
1000319c:	d9f7      	bls.n	1000318e <_sbrk+0x12>
1000319e:	2001      	movs	r0, #1
100031a0:	4240      	negs	r0, r0
100031a2:	e7f5      	b.n	10003190 <_sbrk+0x14>
100031a4:	200013dc 	.word	0x200013dc
100031a8:	20040000 	.word	0x20040000
100031ac:	20001b74 	.word	0x20001b74

100031b0 <exit>:
100031b0:	be00      	bkpt	0x0000
100031b2:	e7fd      	b.n	100031b0 <exit>

100031b4 <panic>:
100031b4:	b40f      	push	{r0, r1, r2, r3}
100031b6:	b500      	push	{lr}
100031b8:	4808      	ldr	r0, [pc, #32]	; (100031dc <panic+0x28>)
100031ba:	b083      	sub	sp, #12
100031bc:	f002 ff74 	bl	100060a8 <__wrap_puts>
100031c0:	9b04      	ldr	r3, [sp, #16]
100031c2:	2b00      	cmp	r3, #0
100031c4:	d007      	beq.n	100031d6 <panic+0x22>
100031c6:	a905      	add	r1, sp, #20
100031c8:	0018      	movs	r0, r3
100031ca:	9101      	str	r1, [sp, #4]
100031cc:	f001 fee6 	bl	10004f9c <weak_raw_vprintf>
100031d0:	4803      	ldr	r0, [pc, #12]	; (100031e0 <panic+0x2c>)
100031d2:	f002 ff69 	bl	100060a8 <__wrap_puts>
100031d6:	be00      	bkpt	0x0000
100031d8:	e7fd      	b.n	100031d6 <panic+0x22>
100031da:	46c0      	nop			; (mov r8, r8)
100031dc:	10009a14 	.word	0x10009a14
100031e0:	10009800 	.word	0x10009800

100031e4 <hard_assertion_failure>:
100031e4:	b510      	push	{r4, lr}
100031e6:	4801      	ldr	r0, [pc, #4]	; (100031ec <hard_assertion_failure+0x8>)
100031e8:	f7ff ffe4 	bl	100031b4 <panic>
100031ec:	10009a24 	.word	0x10009a24

100031f0 <clocks_init>:
100031f0:	b530      	push	{r4, r5, lr}
100031f2:	200c      	movs	r0, #12
100031f4:	b083      	sub	sp, #12
100031f6:	f000 fb47 	bl	10003888 <watchdog_start_tick>
100031fa:	f7fe ff3f 	bl	1000207c <running_on_fpga>
100031fe:	2800      	cmp	r0, #0
10003200:	d00e      	beq.n	10003220 <clocks_init+0x30>
10003202:	4b94      	ldr	r3, [pc, #592]	; (10003454 <clocks_init+0x264>)
10003204:	4a94      	ldr	r2, [pc, #592]	; (10003458 <clocks_init+0x268>)
10003206:	601a      	str	r2, [r3, #0]
10003208:	605a      	str	r2, [r3, #4]
1000320a:	609a      	str	r2, [r3, #8]
1000320c:	60da      	str	r2, [r3, #12]
1000320e:	611a      	str	r2, [r3, #16]
10003210:	615a      	str	r2, [r3, #20]
10003212:	619a      	str	r2, [r3, #24]
10003214:	61da      	str	r2, [r3, #28]
10003216:	621a      	str	r2, [r3, #32]
10003218:	4a90      	ldr	r2, [pc, #576]	; (1000345c <clocks_init+0x26c>)
1000321a:	625a      	str	r2, [r3, #36]	; 0x24
1000321c:	b003      	add	sp, #12
1000321e:	bd30      	pop	{r4, r5, pc}
10003220:	4c8f      	ldr	r4, [pc, #572]	; (10003460 <clocks_init+0x270>)
10003222:	67a0      	str	r0, [r4, #120]	; 0x78
10003224:	f000 fb84 	bl	10003930 <xosc_init>
10003228:	2201      	movs	r2, #1
1000322a:	4b8e      	ldr	r3, [pc, #568]	; (10003464 <clocks_init+0x274>)
1000322c:	601a      	str	r2, [r3, #0]
1000322e:	6c63      	ldr	r3, [r4, #68]	; 0x44
10003230:	2b01      	cmp	r3, #1
10003232:	d1fc      	bne.n	1000322e <clocks_init+0x3e>
10003234:	2203      	movs	r2, #3
10003236:	4b8c      	ldr	r3, [pc, #560]	; (10003468 <clocks_init+0x278>)
10003238:	601a      	str	r2, [r3, #0]
1000323a:	4a89      	ldr	r2, [pc, #548]	; (10003460 <clocks_init+0x270>)
1000323c:	6b93      	ldr	r3, [r2, #56]	; 0x38
1000323e:	2b01      	cmp	r3, #1
10003240:	d1fc      	bne.n	1000323c <clocks_init+0x4c>
10003242:	2402      	movs	r4, #2
10003244:	2101      	movs	r1, #1
10003246:	4a89      	ldr	r2, [pc, #548]	; (1000346c <clocks_init+0x27c>)
10003248:	4889      	ldr	r0, [pc, #548]	; (10003470 <clocks_init+0x280>)
1000324a:	3305      	adds	r3, #5
1000324c:	9400      	str	r4, [sp, #0]
1000324e:	f000 fac9 	bl	100037e4 <pll_init>
10003252:	2305      	movs	r3, #5
10003254:	4a87      	ldr	r2, [pc, #540]	; (10003474 <clocks_init+0x284>)
10003256:	2101      	movs	r1, #1
10003258:	4887      	ldr	r0, [pc, #540]	; (10003478 <clocks_init+0x288>)
1000325a:	9400      	str	r4, [sp, #0]
1000325c:	f000 fac2 	bl	100037e4 <pll_init>
10003260:	4b86      	ldr	r3, [pc, #536]	; (1000347c <clocks_init+0x28c>)
10003262:	685a      	ldr	r2, [r3, #4]
10003264:	2aff      	cmp	r2, #255	; 0xff
10003266:	d802      	bhi.n	1000326e <clocks_init+0x7e>
10003268:	2280      	movs	r2, #128	; 0x80
1000326a:	0052      	lsls	r2, r2, #1
1000326c:	605a      	str	r2, [r3, #4]
1000326e:	2280      	movs	r2, #128	; 0x80
10003270:	4c78      	ldr	r4, [pc, #480]	; (10003454 <clocks_init+0x264>)
10003272:	4b7d      	ldr	r3, [pc, #500]	; (10003468 <clocks_init+0x278>)
10003274:	6921      	ldr	r1, [r4, #16]
10003276:	0112      	lsls	r2, r2, #4
10003278:	4d80      	ldr	r5, [pc, #512]	; (1000347c <clocks_init+0x28c>)
1000327a:	601a      	str	r2, [r3, #0]
1000327c:	2900      	cmp	r1, #0
1000327e:	d005      	beq.n	1000328c <clocks_init+0x9c>
10003280:	6960      	ldr	r0, [r4, #20]
10003282:	f001 ff01 	bl	10005088 <__wrap___aeabi_uidiv>
10003286:	3001      	adds	r0, #1
10003288:	3801      	subs	r0, #1
1000328a:	d1fd      	bne.n	10003288 <clocks_init+0x98>
1000328c:	21e0      	movs	r1, #224	; 0xe0
1000328e:	4b7b      	ldr	r3, [pc, #492]	; (1000347c <clocks_init+0x28c>)
10003290:	2002      	movs	r0, #2
10003292:	681a      	ldr	r2, [r3, #0]
10003294:	4011      	ands	r1, r2
10003296:	2280      	movs	r2, #128	; 0x80
10003298:	0152      	lsls	r2, r2, #5
1000329a:	432a      	orrs	r2, r5
1000329c:	6011      	str	r1, [r2, #0]
1000329e:	6819      	ldr	r1, [r3, #0]
100032a0:	4048      	eors	r0, r1
100032a2:	2103      	movs	r1, #3
100032a4:	4001      	ands	r1, r0
100032a6:	6011      	str	r1, [r2, #0]
100032a8:	2104      	movs	r1, #4
100032aa:	689a      	ldr	r2, [r3, #8]
100032ac:	4211      	tst	r1, r2
100032ae:	d0fc      	beq.n	100032aa <clocks_init+0xba>
100032b0:	2280      	movs	r2, #128	; 0x80
100032b2:	2180      	movs	r1, #128	; 0x80
100032b4:	0192      	lsls	r2, r2, #6
100032b6:	432a      	orrs	r2, r5
100032b8:	0109      	lsls	r1, r1, #4
100032ba:	6011      	str	r1, [r2, #0]
100032bc:	2280      	movs	r2, #128	; 0x80
100032be:	0052      	lsls	r2, r2, #1
100032c0:	605a      	str	r2, [r3, #4]
100032c2:	4b6f      	ldr	r3, [pc, #444]	; (10003480 <clocks_init+0x290>)
100032c4:	6123      	str	r3, [r4, #16]
100032c6:	4b6f      	ldr	r3, [pc, #444]	; (10003484 <clocks_init+0x294>)
100032c8:	6859      	ldr	r1, [r3, #4]
100032ca:	29ff      	cmp	r1, #255	; 0xff
100032cc:	d800      	bhi.n	100032d0 <clocks_init+0xe0>
100032ce:	605a      	str	r2, [r3, #4]
100032d0:	2203      	movs	r2, #3
100032d2:	486c      	ldr	r0, [pc, #432]	; (10003484 <clocks_init+0x294>)
100032d4:	4b63      	ldr	r3, [pc, #396]	; (10003464 <clocks_init+0x274>)
100032d6:	2101      	movs	r1, #1
100032d8:	601a      	str	r2, [r3, #0]
100032da:	0002      	movs	r2, r0
100032dc:	6893      	ldr	r3, [r2, #8]
100032de:	4219      	tst	r1, r3
100032e0:	d0fc      	beq.n	100032dc <clocks_init+0xec>
100032e2:	25e0      	movs	r5, #224	; 0xe0
100032e4:	6813      	ldr	r3, [r2, #0]
100032e6:	401d      	ands	r5, r3
100032e8:	2380      	movs	r3, #128	; 0x80
100032ea:	015b      	lsls	r3, r3, #5
100032ec:	4303      	orrs	r3, r0
100032ee:	601d      	str	r5, [r3, #0]
100032f0:	6812      	ldr	r2, [r2, #0]
100032f2:	404a      	eors	r2, r1
100032f4:	2103      	movs	r1, #3
100032f6:	4011      	ands	r1, r2
100032f8:	6019      	str	r1, [r3, #0]
100032fa:	2102      	movs	r1, #2
100032fc:	4a61      	ldr	r2, [pc, #388]	; (10003484 <clocks_init+0x294>)
100032fe:	6893      	ldr	r3, [r2, #8]
10003300:	4219      	tst	r1, r3
10003302:	d0fc      	beq.n	100032fe <clocks_init+0x10e>
10003304:	2380      	movs	r3, #128	; 0x80
10003306:	2180      	movs	r1, #128	; 0x80
10003308:	019b      	lsls	r3, r3, #6
1000330a:	4303      	orrs	r3, r0
1000330c:	0109      	lsls	r1, r1, #4
1000330e:	6019      	str	r1, [r3, #0]
10003310:	2180      	movs	r1, #128	; 0x80
10003312:	4b5d      	ldr	r3, [pc, #372]	; (10003488 <clocks_init+0x298>)
10003314:	0049      	lsls	r1, r1, #1
10003316:	6051      	str	r1, [r2, #4]
10003318:	6163      	str	r3, [r4, #20]
1000331a:	4b5c      	ldr	r3, [pc, #368]	; (1000348c <clocks_init+0x29c>)
1000331c:	685a      	ldr	r2, [r3, #4]
1000331e:	2aff      	cmp	r2, #255	; 0xff
10003320:	d800      	bhi.n	10003324 <clocks_init+0x134>
10003322:	6059      	str	r1, [r3, #4]
10003324:	2280      	movs	r2, #128	; 0x80
10003326:	4b5a      	ldr	r3, [pc, #360]	; (10003490 <clocks_init+0x2a0>)
10003328:	69e1      	ldr	r1, [r4, #28]
1000332a:	0112      	lsls	r2, r2, #4
1000332c:	4d57      	ldr	r5, [pc, #348]	; (1000348c <clocks_init+0x29c>)
1000332e:	601a      	str	r2, [r3, #0]
10003330:	2900      	cmp	r1, #0
10003332:	d005      	beq.n	10003340 <clocks_init+0x150>
10003334:	6960      	ldr	r0, [r4, #20]
10003336:	f001 fea7 	bl	10005088 <__wrap___aeabi_uidiv>
1000333a:	3001      	adds	r0, #1
1000333c:	3801      	subs	r0, #1
1000333e:	d1fd      	bne.n	1000333c <clocks_init+0x14c>
10003340:	22e0      	movs	r2, #224	; 0xe0
10003342:	4952      	ldr	r1, [pc, #328]	; (1000348c <clocks_init+0x29c>)
10003344:	680b      	ldr	r3, [r1, #0]
10003346:	401a      	ands	r2, r3
10003348:	2380      	movs	r3, #128	; 0x80
1000334a:	015b      	lsls	r3, r3, #5
1000334c:	432b      	orrs	r3, r5
1000334e:	601a      	str	r2, [r3, #0]
10003350:	2380      	movs	r3, #128	; 0x80
10003352:	2280      	movs	r2, #128	; 0x80
10003354:	019b      	lsls	r3, r3, #6
10003356:	432b      	orrs	r3, r5
10003358:	0112      	lsls	r2, r2, #4
1000335a:	601a      	str	r2, [r3, #0]
1000335c:	2280      	movs	r2, #128	; 0x80
1000335e:	4b3e      	ldr	r3, [pc, #248]	; (10003458 <clocks_init+0x268>)
10003360:	0052      	lsls	r2, r2, #1
10003362:	604a      	str	r2, [r1, #4]
10003364:	61e3      	str	r3, [r4, #28]
10003366:	4b4b      	ldr	r3, [pc, #300]	; (10003494 <clocks_init+0x2a4>)
10003368:	6859      	ldr	r1, [r3, #4]
1000336a:	29ff      	cmp	r1, #255	; 0xff
1000336c:	d800      	bhi.n	10003370 <clocks_init+0x180>
1000336e:	605a      	str	r2, [r3, #4]
10003370:	2280      	movs	r2, #128	; 0x80
10003372:	4b49      	ldr	r3, [pc, #292]	; (10003498 <clocks_init+0x2a8>)
10003374:	6a21      	ldr	r1, [r4, #32]
10003376:	0112      	lsls	r2, r2, #4
10003378:	4d46      	ldr	r5, [pc, #280]	; (10003494 <clocks_init+0x2a4>)
1000337a:	601a      	str	r2, [r3, #0]
1000337c:	2900      	cmp	r1, #0
1000337e:	d005      	beq.n	1000338c <clocks_init+0x19c>
10003380:	6960      	ldr	r0, [r4, #20]
10003382:	f001 fe81 	bl	10005088 <__wrap___aeabi_uidiv>
10003386:	3001      	adds	r0, #1
10003388:	3801      	subs	r0, #1
1000338a:	d1fd      	bne.n	10003388 <clocks_init+0x198>
1000338c:	22e0      	movs	r2, #224	; 0xe0
1000338e:	4941      	ldr	r1, [pc, #260]	; (10003494 <clocks_init+0x2a4>)
10003390:	680b      	ldr	r3, [r1, #0]
10003392:	401a      	ands	r2, r3
10003394:	2380      	movs	r3, #128	; 0x80
10003396:	015b      	lsls	r3, r3, #5
10003398:	432b      	orrs	r3, r5
1000339a:	601a      	str	r2, [r3, #0]
1000339c:	2380      	movs	r3, #128	; 0x80
1000339e:	2280      	movs	r2, #128	; 0x80
100033a0:	019b      	lsls	r3, r3, #6
100033a2:	432b      	orrs	r3, r5
100033a4:	0112      	lsls	r2, r2, #4
100033a6:	601a      	str	r2, [r3, #0]
100033a8:	2380      	movs	r3, #128	; 0x80
100033aa:	2280      	movs	r2, #128	; 0x80
100033ac:	005b      	lsls	r3, r3, #1
100033ae:	604b      	str	r3, [r1, #4]
100033b0:	4b29      	ldr	r3, [pc, #164]	; (10003458 <clocks_init+0x268>)
100033b2:	02d2      	lsls	r2, r2, #11
100033b4:	6223      	str	r3, [r4, #32]
100033b6:	4b39      	ldr	r3, [pc, #228]	; (1000349c <clocks_init+0x2ac>)
100033b8:	6859      	ldr	r1, [r3, #4]
100033ba:	4291      	cmp	r1, r2
100033bc:	d200      	bcs.n	100033c0 <clocks_init+0x1d0>
100033be:	605a      	str	r2, [r3, #4]
100033c0:	2280      	movs	r2, #128	; 0x80
100033c2:	4b37      	ldr	r3, [pc, #220]	; (100034a0 <clocks_init+0x2b0>)
100033c4:	6a61      	ldr	r1, [r4, #36]	; 0x24
100033c6:	0112      	lsls	r2, r2, #4
100033c8:	4d34      	ldr	r5, [pc, #208]	; (1000349c <clocks_init+0x2ac>)
100033ca:	601a      	str	r2, [r3, #0]
100033cc:	2900      	cmp	r1, #0
100033ce:	d005      	beq.n	100033dc <clocks_init+0x1ec>
100033d0:	6960      	ldr	r0, [r4, #20]
100033d2:	f001 fe59 	bl	10005088 <__wrap___aeabi_uidiv>
100033d6:	3001      	adds	r0, #1
100033d8:	3801      	subs	r0, #1
100033da:	d1fd      	bne.n	100033d8 <clocks_init+0x1e8>
100033dc:	22e0      	movs	r2, #224	; 0xe0
100033de:	492f      	ldr	r1, [pc, #188]	; (1000349c <clocks_init+0x2ac>)
100033e0:	680b      	ldr	r3, [r1, #0]
100033e2:	401a      	ands	r2, r3
100033e4:	2380      	movs	r3, #128	; 0x80
100033e6:	015b      	lsls	r3, r3, #5
100033e8:	432b      	orrs	r3, r5
100033ea:	601a      	str	r2, [r3, #0]
100033ec:	2380      	movs	r3, #128	; 0x80
100033ee:	2280      	movs	r2, #128	; 0x80
100033f0:	019b      	lsls	r3, r3, #6
100033f2:	432b      	orrs	r3, r5
100033f4:	0112      	lsls	r2, r2, #4
100033f6:	601a      	str	r2, [r3, #0]
100033f8:	2380      	movs	r3, #128	; 0x80
100033fa:	02db      	lsls	r3, r3, #11
100033fc:	604b      	str	r3, [r1, #4]
100033fe:	4b17      	ldr	r3, [pc, #92]	; (1000345c <clocks_init+0x26c>)
10003400:	6263      	str	r3, [r4, #36]	; 0x24
10003402:	4b28      	ldr	r3, [pc, #160]	; (100034a4 <clocks_init+0x2b4>)
10003404:	685a      	ldr	r2, [r3, #4]
10003406:	2aff      	cmp	r2, #255	; 0xff
10003408:	d802      	bhi.n	10003410 <clocks_init+0x220>
1000340a:	2280      	movs	r2, #128	; 0x80
1000340c:	0052      	lsls	r2, r2, #1
1000340e:	605a      	str	r2, [r3, #4]
10003410:	2280      	movs	r2, #128	; 0x80
10003412:	4b25      	ldr	r3, [pc, #148]	; (100034a8 <clocks_init+0x2b8>)
10003414:	69a1      	ldr	r1, [r4, #24]
10003416:	0112      	lsls	r2, r2, #4
10003418:	4d22      	ldr	r5, [pc, #136]	; (100034a4 <clocks_init+0x2b4>)
1000341a:	601a      	str	r2, [r3, #0]
1000341c:	2900      	cmp	r1, #0
1000341e:	d005      	beq.n	1000342c <clocks_init+0x23c>
10003420:	6960      	ldr	r0, [r4, #20]
10003422:	f001 fe31 	bl	10005088 <__wrap___aeabi_uidiv>
10003426:	3001      	adds	r0, #1
10003428:	3801      	subs	r0, #1
1000342a:	d1fd      	bne.n	10003428 <clocks_init+0x238>
1000342c:	22e0      	movs	r2, #224	; 0xe0
1000342e:	491d      	ldr	r1, [pc, #116]	; (100034a4 <clocks_init+0x2b4>)
10003430:	680b      	ldr	r3, [r1, #0]
10003432:	401a      	ands	r2, r3
10003434:	2380      	movs	r3, #128	; 0x80
10003436:	015b      	lsls	r3, r3, #5
10003438:	432b      	orrs	r3, r5
1000343a:	601a      	str	r2, [r3, #0]
1000343c:	2380      	movs	r3, #128	; 0x80
1000343e:	2280      	movs	r2, #128	; 0x80
10003440:	019b      	lsls	r3, r3, #6
10003442:	432b      	orrs	r3, r5
10003444:	0112      	lsls	r2, r2, #4
10003446:	601a      	str	r2, [r3, #0]
10003448:	2380      	movs	r3, #128	; 0x80
1000344a:	005b      	lsls	r3, r3, #1
1000344c:	604b      	str	r3, [r1, #4]
1000344e:	4b0e      	ldr	r3, [pc, #56]	; (10003488 <clocks_init+0x298>)
10003450:	61a3      	str	r3, [r4, #24]
10003452:	e6e3      	b.n	1000321c <clocks_init+0x2c>
10003454:	20001344 	.word	0x20001344
10003458:	02dc6c00 	.word	0x02dc6c00
1000345c:	0000b71b 	.word	0x0000b71b
10003460:	40008000 	.word	0x40008000
10003464:	4000b03c 	.word	0x4000b03c
10003468:	4000b030 	.word	0x4000b030
1000346c:	59682f00 	.word	0x59682f00
10003470:	40028000 	.word	0x40028000
10003474:	1c9c3800 	.word	0x1c9c3800
10003478:	4002c000 	.word	0x4002c000
1000347c:	40008030 	.word	0x40008030
10003480:	00b71b00 	.word	0x00b71b00
10003484:	4000803c 	.word	0x4000803c
10003488:	07735940 	.word	0x07735940
1000348c:	40008054 	.word	0x40008054
10003490:	4000b054 	.word	0x4000b054
10003494:	40008060 	.word	0x40008060
10003498:	4000b060 	.word	0x4000b060
1000349c:	4000806c 	.word	0x4000806c
100034a0:	4000b06c 	.word	0x4000b06c
100034a4:	40008048 	.word	0x40008048
100034a8:	4000b048 	.word	0x4000b048

100034ac <clock_get_hz>:
100034ac:	4b01      	ldr	r3, [pc, #4]	; (100034b4 <clock_get_hz+0x8>)
100034ae:	0080      	lsls	r0, r0, #2
100034b0:	58c0      	ldr	r0, [r0, r3]
100034b2:	4770      	bx	lr
100034b4:	20001344 	.word	0x20001344

100034b8 <irq_set_enabled>:
100034b8:	2301      	movs	r3, #1
100034ba:	4083      	lsls	r3, r0
100034bc:	2900      	cmp	r1, #0
100034be:	d004      	beq.n	100034ca <irq_set_enabled+0x12>
100034c0:	4a03      	ldr	r2, [pc, #12]	; (100034d0 <irq_set_enabled+0x18>)
100034c2:	6013      	str	r3, [r2, #0]
100034c4:	4a03      	ldr	r2, [pc, #12]	; (100034d4 <irq_set_enabled+0x1c>)
100034c6:	6013      	str	r3, [r2, #0]
100034c8:	4770      	bx	lr
100034ca:	4a03      	ldr	r2, [pc, #12]	; (100034d8 <irq_set_enabled+0x20>)
100034cc:	6013      	str	r3, [r2, #0]
100034ce:	e7fb      	b.n	100034c8 <irq_set_enabled+0x10>
100034d0:	e000e280 	.word	0xe000e280
100034d4:	e000e100 	.word	0xe000e100
100034d8:	e000e180 	.word	0xe000e180

100034dc <irq_set_pending>:
100034dc:	2301      	movs	r3, #1
100034de:	4083      	lsls	r3, r0
100034e0:	4a01      	ldr	r2, [pc, #4]	; (100034e8 <irq_set_pending+0xc>)
100034e2:	6013      	str	r3, [r2, #0]
100034e4:	4770      	bx	lr
100034e6:	46c0      	nop			; (mov r8, r8)
100034e8:	e000e200 	.word	0xe000e200

100034ec <irq_get_vtable_handler>:
100034ec:	4b02      	ldr	r3, [pc, #8]	; (100034f8 <irq_get_vtable_handler+0xc>)
100034ee:	3010      	adds	r0, #16
100034f0:	689b      	ldr	r3, [r3, #8]
100034f2:	0080      	lsls	r0, r0, #2
100034f4:	58c0      	ldr	r0, [r0, r3]
100034f6:	4770      	bx	lr
100034f8:	e000ed00 	.word	0xe000ed00

100034fc <irq_set_exclusive_handler>:
100034fc:	b570      	push	{r4, r5, r6, lr}
100034fe:	000d      	movs	r5, r1
10003500:	f3ef 8610 	mrs	r6, PRIMASK
10003504:	b672      	cpsid	i
10003506:	4a0f      	ldr	r2, [pc, #60]	; (10003544 <irq_set_exclusive_handler+0x48>)
10003508:	6813      	ldr	r3, [r2, #0]
1000350a:	2b00      	cmp	r3, #0
1000350c:	d0fc      	beq.n	10003508 <irq_set_exclusive_handler+0xc>
1000350e:	f3bf 8f5f 	dmb	sy
10003512:	4b0d      	ldr	r3, [pc, #52]	; (10003548 <irq_set_exclusive_handler+0x4c>)
10003514:	3010      	adds	r0, #16
10003516:	689b      	ldr	r3, [r3, #8]
10003518:	0084      	lsls	r4, r0, #2
1000351a:	591b      	ldr	r3, [r3, r4]
1000351c:	4a0b      	ldr	r2, [pc, #44]	; (1000354c <irq_set_exclusive_handler+0x50>)
1000351e:	4293      	cmp	r3, r2
10003520:	d003      	beq.n	1000352a <irq_set_exclusive_handler+0x2e>
10003522:	429d      	cmp	r5, r3
10003524:	d001      	beq.n	1000352a <irq_set_exclusive_handler+0x2e>
10003526:	f7ff fe5d 	bl	100031e4 <hard_assertion_failure>
1000352a:	4b07      	ldr	r3, [pc, #28]	; (10003548 <irq_set_exclusive_handler+0x4c>)
1000352c:	689b      	ldr	r3, [r3, #8]
1000352e:	511d      	str	r5, [r3, r4]
10003530:	f3bf 8f5f 	dmb	sy
10003534:	f3bf 8f5f 	dmb	sy
10003538:	2200      	movs	r2, #0
1000353a:	4b02      	ldr	r3, [pc, #8]	; (10003544 <irq_set_exclusive_handler+0x48>)
1000353c:	601a      	str	r2, [r3, #0]
1000353e:	f386 8810 	msr	PRIMASK, r6
10003542:	bd70      	pop	{r4, r5, r6, pc}
10003544:	d0000124 	.word	0xd0000124
10003548:	e000ed00 	.word	0xe000ed00
1000354c:	100001cd 	.word	0x100001cd

10003550 <irq_remove_handler>:
10003550:	b5f0      	push	{r4, r5, r6, r7, lr}
10003552:	46de      	mov	lr, fp
10003554:	4657      	mov	r7, sl
10003556:	464e      	mov	r6, r9
10003558:	4645      	mov	r5, r8
1000355a:	b5e0      	push	{r5, r6, r7, lr}
1000355c:	000c      	movs	r4, r1
1000355e:	b083      	sub	sp, #12
10003560:	f3ef 8a10 	mrs	sl, PRIMASK
10003564:	b672      	cpsid	i
10003566:	4a5b      	ldr	r2, [pc, #364]	; (100036d4 <irq_remove_handler+0x184>)
10003568:	6813      	ldr	r3, [r2, #0]
1000356a:	2b00      	cmp	r3, #0
1000356c:	d0fc      	beq.n	10003568 <irq_remove_handler+0x18>
1000356e:	f3bf 8f5f 	dmb	sy
10003572:	2210      	movs	r2, #16
10003574:	4691      	mov	r9, r2
10003576:	4481      	add	r9, r0
10003578:	464a      	mov	r2, r9
1000357a:	4b57      	ldr	r3, [pc, #348]	; (100036d8 <irq_remove_handler+0x188>)
1000357c:	0096      	lsls	r6, r2, #2
1000357e:	689b      	ldr	r3, [r3, #8]
10003580:	599d      	ldr	r5, [r3, r6]
10003582:	4b56      	ldr	r3, [pc, #344]	; (100036dc <irq_remove_handler+0x18c>)
10003584:	4698      	mov	r8, r3
10003586:	429d      	cmp	r5, r3
10003588:	d005      	beq.n	10003596 <irq_remove_handler+0x46>
1000358a:	42a5      	cmp	r5, r4
1000358c:	d016      	beq.n	100035bc <irq_remove_handler+0x6c>
1000358e:	4f54      	ldr	r7, [pc, #336]	; (100036e0 <irq_remove_handler+0x190>)
10003590:	1beb      	subs	r3, r5, r7
10003592:	2b2f      	cmp	r3, #47	; 0x2f
10003594:	d914      	bls.n	100035c0 <irq_remove_handler+0x70>
10003596:	4b50      	ldr	r3, [pc, #320]	; (100036d8 <irq_remove_handler+0x188>)
10003598:	689b      	ldr	r3, [r3, #8]
1000359a:	519d      	str	r5, [r3, r6]
1000359c:	f3bf 8f5f 	dmb	sy
100035a0:	f3bf 8f5f 	dmb	sy
100035a4:	2200      	movs	r2, #0
100035a6:	4b4b      	ldr	r3, [pc, #300]	; (100036d4 <irq_remove_handler+0x184>)
100035a8:	601a      	str	r2, [r3, #0]
100035aa:	f38a 8810 	msr	PRIMASK, sl
100035ae:	b003      	add	sp, #12
100035b0:	bc3c      	pop	{r2, r3, r4, r5}
100035b2:	4690      	mov	r8, r2
100035b4:	4699      	mov	r9, r3
100035b6:	46a2      	mov	sl, r4
100035b8:	46ab      	mov	fp, r5
100035ba:	bdf0      	pop	{r4, r5, r6, r7, pc}
100035bc:	001d      	movs	r5, r3
100035be:	e7ea      	b.n	10003596 <irq_remove_handler+0x46>
100035c0:	2301      	movs	r3, #1
100035c2:	4083      	lsls	r3, r0
100035c4:	469b      	mov	fp, r3
100035c6:	465a      	mov	r2, fp
100035c8:	4b46      	ldr	r3, [pc, #280]	; (100036e4 <irq_remove_handler+0x194>)
100035ca:	681b      	ldr	r3, [r3, #0]
100035cc:	401a      	ands	r2, r3
100035ce:	9200      	str	r2, [sp, #0]
100035d0:	465a      	mov	r2, fp
100035d2:	4b45      	ldr	r3, [pc, #276]	; (100036e8 <irq_remove_handler+0x198>)
100035d4:	601a      	str	r2, [r3, #0]
100035d6:	f3bf 8f5f 	dmb	sy
100035da:	f7fc fe44 	bl	10000266 <__get_current_exception>
100035de:	9001      	str	r0, [sp, #4]
100035e0:	2800      	cmp	r0, #0
100035e2:	d003      	beq.n	100035ec <irq_remove_handler+0x9c>
100035e4:	4581      	cmp	r9, r0
100035e6:	d001      	beq.n	100035ec <irq_remove_handler+0x9c>
100035e8:	f7ff fdfc 	bl	100031e4 <hard_assertion_failure>
100035ec:	2301      	movs	r3, #1
100035ee:	002a      	movs	r2, r5
100035f0:	439a      	bics	r2, r3
100035f2:	0013      	movs	r3, r2
100035f4:	493d      	ldr	r1, [pc, #244]	; (100036ec <irq_remove_handler+0x19c>)
100035f6:	1bdb      	subs	r3, r3, r7
100035f8:	415b      	adcs	r3, r3
100035fa:	4359      	muls	r1, r3
100035fc:	0d09      	lsrs	r1, r1, #20
100035fe:	6893      	ldr	r3, [r2, #8]
10003600:	429c      	cmp	r4, r3
10003602:	d108      	bne.n	10003616 <irq_remove_handler+0xc6>
10003604:	e05b      	b.n	100036be <irq_remove_handler+0x16e>
10003606:	0043      	lsls	r3, r0, #1
10003608:	181b      	adds	r3, r3, r0
1000360a:	009b      	lsls	r3, r3, #2
1000360c:	18fb      	adds	r3, r7, r3
1000360e:	6898      	ldr	r0, [r3, #8]
10003610:	42a0      	cmp	r0, r4
10003612:	d011      	beq.n	10003638 <irq_remove_handler+0xe8>
10003614:	001a      	movs	r2, r3
10003616:	2006      	movs	r0, #6
10003618:	5610      	ldrsb	r0, [r2, r0]
1000361a:	2800      	cmp	r0, #0
1000361c:	daf3      	bge.n	10003606 <irq_remove_handler+0xb6>
1000361e:	9b00      	ldr	r3, [sp, #0]
10003620:	2b00      	cmp	r3, #0
10003622:	d005      	beq.n	10003630 <irq_remove_handler+0xe0>
10003624:	465a      	mov	r2, fp
10003626:	4b32      	ldr	r3, [pc, #200]	; (100036f0 <irq_remove_handler+0x1a0>)
10003628:	601a      	str	r2, [r3, #0]
1000362a:	4b2e      	ldr	r3, [pc, #184]	; (100036e4 <irq_remove_handler+0x194>)
1000362c:	601a      	str	r2, [r3, #0]
1000362e:	e7b2      	b.n	10003596 <irq_remove_handler+0x46>
10003630:	465a      	mov	r2, fp
10003632:	4b2d      	ldr	r3, [pc, #180]	; (100036e8 <irq_remove_handler+0x198>)
10003634:	601a      	str	r2, [r3, #0]
10003636:	e7ae      	b.n	10003596 <irq_remove_handler+0x46>
10003638:	2006      	movs	r0, #6
1000363a:	5618      	ldrsb	r0, [r3, r0]
1000363c:	2800      	cmp	r0, #0
1000363e:	db22      	blt.n	10003686 <irq_remove_handler+0x136>
10003640:	0042      	lsls	r2, r0, #1
10003642:	1811      	adds	r1, r2, r0
10003644:	0089      	lsls	r1, r1, #2
10003646:	187c      	adds	r4, r7, r1
10003648:	4688      	mov	r8, r1
1000364a:	68a1      	ldr	r1, [r4, #8]
1000364c:	6099      	str	r1, [r3, #8]
1000364e:	79e1      	ldrb	r1, [r4, #7]
10003650:	71d9      	strb	r1, [r3, #7]
10003652:	2106      	movs	r1, #6
10003654:	5661      	ldrsb	r1, [r4, r1]
10003656:	7199      	strb	r1, [r3, #6]
10003658:	79a1      	ldrb	r1, [r4, #6]
1000365a:	297f      	cmp	r1, #127	; 0x7f
1000365c:	d81f      	bhi.n	1000369e <irq_remove_handler+0x14e>
1000365e:	88a4      	ldrh	r4, [r4, #4]
10003660:	1af9      	subs	r1, r7, r3
10003662:	0564      	lsls	r4, r4, #21
10003664:	1524      	asrs	r4, r4, #20
10003666:	4444      	add	r4, r8
10003668:	1909      	adds	r1, r1, r4
1000366a:	24e0      	movs	r4, #224	; 0xe0
1000366c:	0509      	lsls	r1, r1, #20
1000366e:	0d49      	lsrs	r1, r1, #21
10003670:	0224      	lsls	r4, r4, #8
10003672:	4321      	orrs	r1, r4
10003674:	8099      	strh	r1, [r3, #4]
10003676:	1812      	adds	r2, r2, r0
10003678:	4b1e      	ldr	r3, [pc, #120]	; (100036f4 <irq_remove_handler+0x1a4>)
1000367a:	0092      	lsls	r2, r2, #2
1000367c:	18bf      	adds	r7, r7, r2
1000367e:	781a      	ldrb	r2, [r3, #0]
10003680:	7018      	strb	r0, [r3, #0]
10003682:	71ba      	strb	r2, [r7, #6]
10003684:	e7cb      	b.n	1000361e <irq_remove_handler+0xce>
10003686:	9801      	ldr	r0, [sp, #4]
10003688:	2800      	cmp	r0, #0
1000368a:	d10b      	bne.n	100036a4 <irq_remove_handler+0x154>
1000368c:	30ff      	adds	r0, #255	; 0xff
1000368e:	7190      	strb	r0, [r2, #6]
10003690:	4819      	ldr	r0, [pc, #100]	; (100036f8 <irq_remove_handler+0x1a8>)
10003692:	8090      	strh	r0, [r2, #4]
10003694:	4a17      	ldr	r2, [pc, #92]	; (100036f4 <irq_remove_handler+0x1a4>)
10003696:	7810      	ldrb	r0, [r2, #0]
10003698:	7011      	strb	r1, [r2, #0]
1000369a:	7198      	strb	r0, [r3, #6]
1000369c:	e7bf      	b.n	1000361e <irq_remove_handler+0xce>
1000369e:	21bd      	movs	r1, #189	; 0xbd
100036a0:	0209      	lsls	r1, r1, #8
100036a2:	e7e7      	b.n	10003674 <irq_remove_handler+0x124>
100036a4:	4a15      	ldr	r2, [pc, #84]	; (100036fc <irq_remove_handler+0x1ac>)
100036a6:	4916      	ldr	r1, [pc, #88]	; (10003700 <irq_remove_handler+0x1b0>)
100036a8:	1ad2      	subs	r2, r2, r3
100036aa:	3a08      	subs	r2, #8
100036ac:	0250      	lsls	r0, r2, #9
100036ae:	0d40      	lsrs	r0, r0, #21
100036b0:	4301      	orrs	r1, r0
100036b2:	8099      	strh	r1, [r3, #4]
100036b4:	4913      	ldr	r1, [pc, #76]	; (10003704 <irq_remove_handler+0x1b4>)
100036b6:	0852      	lsrs	r2, r2, #1
100036b8:	430a      	orrs	r2, r1
100036ba:	80da      	strh	r2, [r3, #6]
100036bc:	e7af      	b.n	1000361e <irq_remove_handler+0xce>
100036be:	2006      	movs	r0, #6
100036c0:	5610      	ldrsb	r0, [r2, r0]
100036c2:	0013      	movs	r3, r2
100036c4:	2800      	cmp	r0, #0
100036c6:	dabb      	bge.n	10003640 <irq_remove_handler+0xf0>
100036c8:	9a01      	ldr	r2, [sp, #4]
100036ca:	2a00      	cmp	r2, #0
100036cc:	d1ea      	bne.n	100036a4 <irq_remove_handler+0x154>
100036ce:	4645      	mov	r5, r8
100036d0:	e7e0      	b.n	10003694 <irq_remove_handler+0x144>
100036d2:	46c0      	nop			; (mov r8, r8)
100036d4:	d0000124 	.word	0xd0000124
100036d8:	e000ed00 	.word	0xe000ed00
100036dc:	100001cd 	.word	0x100001cd
100036e0:	20000424 	.word	0x20000424
100036e4:	e000e100 	.word	0xe000e100
100036e8:	e000e180 	.word	0xe000e180
100036ec:	0000aaaa 	.word	0x0000aaaa
100036f0:	e000e280 	.word	0xe000e280
100036f4:	200018a9 	.word	0x200018a9
100036f8:	ffffbd00 	.word	0xffffbd00
100036fc:	2000045e 	.word	0x2000045e
10003700:	fffff000 	.word	0xfffff000
10003704:	fffff800 	.word	0xfffff800

10003708 <irq_add_tail_to_free_list>:
10003708:	b5f8      	push	{r3, r4, r5, r6, r7, lr}
1000370a:	2501      	movs	r5, #1
1000370c:	0004      	movs	r4, r0
1000370e:	4305      	orrs	r5, r0
10003710:	f7fc fda9 	bl	10000266 <__get_current_exception>
10003714:	0003      	movs	r3, r0
10003716:	f3ef 8610 	mrs	r6, PRIMASK
1000371a:	b672      	cpsid	i
1000371c:	4921      	ldr	r1, [pc, #132]	; (100037a4 <irq_add_tail_to_free_list+0x9c>)
1000371e:	680a      	ldr	r2, [r1, #0]
10003720:	2a00      	cmp	r2, #0
10003722:	d0fc      	beq.n	1000371e <irq_add_tail_to_free_list+0x16>
10003724:	f3bf 8f5f 	dmb	sy
10003728:	4a1f      	ldr	r2, [pc, #124]	; (100037a8 <irq_add_tail_to_free_list+0xa0>)
1000372a:	0020      	movs	r0, r4
1000372c:	491f      	ldr	r1, [pc, #124]	; (100037ac <irq_add_tail_to_free_list+0xa4>)
1000372e:	1a80      	subs	r0, r0, r2
10003730:	4140      	adcs	r0, r0
10003732:	4341      	muls	r1, r0
10003734:	0d09      	lsrs	r1, r1, #20
10003736:	481e      	ldr	r0, [pc, #120]	; (100037b0 <irq_add_tail_to_free_list+0xa8>)
10003738:	009b      	lsls	r3, r3, #2
1000373a:	6887      	ldr	r7, [r0, #8]
1000373c:	b249      	sxtb	r1, r1
1000373e:	58ff      	ldr	r7, [r7, r3]
10003740:	42af      	cmp	r7, r5
10003742:	d01c      	beq.n	1000377e <irq_add_tail_to_free_list+0x76>
10003744:	2306      	movs	r3, #6
10003746:	56d3      	ldrsb	r3, [r2, r3]
10003748:	428b      	cmp	r3, r1
1000374a:	d01c      	beq.n	10003786 <irq_add_tail_to_free_list+0x7e>
1000374c:	2312      	movs	r3, #18
1000374e:	56d3      	ldrsb	r3, [r2, r3]
10003750:	428b      	cmp	r3, r1
10003752:	d022      	beq.n	1000379a <irq_add_tail_to_free_list+0x92>
10003754:	231e      	movs	r3, #30
10003756:	56d3      	ldrsb	r3, [r2, r3]
10003758:	428b      	cmp	r3, r1
1000375a:	d020      	beq.n	1000379e <irq_add_tail_to_free_list+0x96>
1000375c:	232a      	movs	r3, #42	; 0x2a
1000375e:	56d3      	ldrsb	r3, [r2, r3]
10003760:	2003      	movs	r0, #3
10003762:	428b      	cmp	r3, r1
10003764:	d010      	beq.n	10003788 <irq_add_tail_to_free_list+0x80>
10003766:	4b13      	ldr	r3, [pc, #76]	; (100037b4 <irq_add_tail_to_free_list+0xac>)
10003768:	781a      	ldrb	r2, [r3, #0]
1000376a:	7019      	strb	r1, [r3, #0]
1000376c:	71a2      	strb	r2, [r4, #6]
1000376e:	f3bf 8f5f 	dmb	sy
10003772:	2200      	movs	r2, #0
10003774:	4b0b      	ldr	r3, [pc, #44]	; (100037a4 <irq_add_tail_to_free_list+0x9c>)
10003776:	601a      	str	r2, [r3, #0]
10003778:	f386 8810 	msr	PRIMASK, r6
1000377c:	bdf8      	pop	{r3, r4, r5, r6, r7, pc}
1000377e:	6882      	ldr	r2, [r0, #8]
10003780:	480d      	ldr	r0, [pc, #52]	; (100037b8 <irq_add_tail_to_free_list+0xb0>)
10003782:	50d0      	str	r0, [r2, r3]
10003784:	e7ef      	b.n	10003766 <irq_add_tail_to_free_list+0x5e>
10003786:	2000      	movs	r0, #0
10003788:	0043      	lsls	r3, r0, #1
1000378a:	181b      	adds	r3, r3, r0
1000378c:	009b      	lsls	r3, r3, #2
1000378e:	18d2      	adds	r2, r2, r3
10003790:	23ff      	movs	r3, #255	; 0xff
10003792:	7193      	strb	r3, [r2, #6]
10003794:	4b09      	ldr	r3, [pc, #36]	; (100037bc <irq_add_tail_to_free_list+0xb4>)
10003796:	8093      	strh	r3, [r2, #4]
10003798:	e7e5      	b.n	10003766 <irq_add_tail_to_free_list+0x5e>
1000379a:	2001      	movs	r0, #1
1000379c:	e7f4      	b.n	10003788 <irq_add_tail_to_free_list+0x80>
1000379e:	2002      	movs	r0, #2
100037a0:	e7f2      	b.n	10003788 <irq_add_tail_to_free_list+0x80>
100037a2:	46c0      	nop			; (mov r8, r8)
100037a4:	d0000124 	.word	0xd0000124
100037a8:	20000424 	.word	0x20000424
100037ac:	0000aaaa 	.word	0x0000aaaa
100037b0:	e000ed00 	.word	0xe000ed00
100037b4:	200018a9 	.word	0x200018a9
100037b8:	100001cd 	.word	0x100001cd
100037bc:	ffffbd00 	.word	0xffffbd00

100037c0 <irq_init_priorities>:
100037c0:	4b05      	ldr	r3, [pc, #20]	; (100037d8 <irq_init_priorities+0x18>)
100037c2:	4a06      	ldr	r2, [pc, #24]	; (100037dc <irq_init_priorities+0x1c>)
100037c4:	6013      	str	r3, [r2, #0]
100037c6:	4a06      	ldr	r2, [pc, #24]	; (100037e0 <irq_init_priorities+0x20>)
100037c8:	6013      	str	r3, [r2, #0]
100037ca:	6053      	str	r3, [r2, #4]
100037cc:	6093      	str	r3, [r2, #8]
100037ce:	60d3      	str	r3, [r2, #12]
100037d0:	6113      	str	r3, [r2, #16]
100037d2:	6153      	str	r3, [r2, #20]
100037d4:	6193      	str	r3, [r2, #24]
100037d6:	4770      	bx	lr
100037d8:	80808080 	.word	0x80808080
100037dc:	e000e400 	.word	0xe000e400
100037e0:	e000e404 	.word	0xe000e404

100037e4 <pll_init>:
100037e4:	b5f8      	push	{r3, r4, r5, r6, r7, lr}
100037e6:	0004      	movs	r4, r0
100037e8:	200c      	movs	r0, #12
100037ea:	0017      	movs	r7, r2
100037ec:	001d      	movs	r5, r3
100037ee:	000e      	movs	r6, r1
100037f0:	f001 fc4a 	bl	10005088 <__wrap___aeabi_uidiv>
100037f4:	0141      	lsls	r1, r0, #5
100037f6:	1a09      	subs	r1, r1, r0
100037f8:	018b      	lsls	r3, r1, #6
100037fa:	1a59      	subs	r1, r3, r1
100037fc:	00c9      	lsls	r1, r1, #3
100037fe:	1809      	adds	r1, r1, r0
10003800:	0189      	lsls	r1, r1, #6
10003802:	0038      	movs	r0, r7
10003804:	f001 fc40 	bl	10005088 <__wrap___aeabi_uidiv>
10003808:	9a06      	ldr	r2, [sp, #24]
1000380a:	042b      	lsls	r3, r5, #16
1000380c:	0312      	lsls	r2, r2, #12
1000380e:	4313      	orrs	r3, r2
10003810:	6822      	ldr	r2, [r4, #0]
10003812:	2a00      	cmp	r2, #0
10003814:	db21      	blt.n	1000385a <pll_init+0x76>
10003816:	4a18      	ldr	r2, [pc, #96]	; (10003878 <pll_init+0x94>)
10003818:	18a2      	adds	r2, r4, r2
1000381a:	4251      	negs	r1, r2
1000381c:	414a      	adcs	r2, r1
1000381e:	2180      	movs	r1, #128	; 0x80
10003820:	0149      	lsls	r1, r1, #5
10003822:	468c      	mov	ip, r1
10003824:	4252      	negs	r2, r2
10003826:	400a      	ands	r2, r1
10003828:	4914      	ldr	r1, [pc, #80]	; (1000387c <pll_init+0x98>)
1000382a:	4462      	add	r2, ip
1000382c:	600a      	str	r2, [r1, #0]
1000382e:	4914      	ldr	r1, [pc, #80]	; (10003880 <pll_init+0x9c>)
10003830:	600a      	str	r2, [r1, #0]
10003832:	4914      	ldr	r1, [pc, #80]	; (10003884 <pll_init+0xa0>)
10003834:	0017      	movs	r7, r2
10003836:	688d      	ldr	r5, [r1, #8]
10003838:	43af      	bics	r7, r5
1000383a:	d1fb      	bne.n	10003834 <pll_init+0x50>
1000383c:	21c0      	movs	r1, #192	; 0xc0
1000383e:	1d22      	adds	r2, r4, #4
10003840:	0189      	lsls	r1, r1, #6
10003842:	4311      	orrs	r1, r2
10003844:	2221      	movs	r2, #33	; 0x21
10003846:	6026      	str	r6, [r4, #0]
10003848:	60a0      	str	r0, [r4, #8]
1000384a:	600a      	str	r2, [r1, #0]
1000384c:	6822      	ldr	r2, [r4, #0]
1000384e:	2a00      	cmp	r2, #0
10003850:	dafc      	bge.n	1000384c <pll_init+0x68>
10003852:	60e3      	str	r3, [r4, #12]
10003854:	2308      	movs	r3, #8
10003856:	600b      	str	r3, [r1, #0]
10003858:	bdf8      	pop	{r3, r4, r5, r6, r7, pc}
1000385a:	223f      	movs	r2, #63	; 0x3f
1000385c:	6821      	ldr	r1, [r4, #0]
1000385e:	400a      	ands	r2, r1
10003860:	42b2      	cmp	r2, r6
10003862:	d1d8      	bne.n	10003816 <pll_init+0x32>
10003864:	68a2      	ldr	r2, [r4, #8]
10003866:	0512      	lsls	r2, r2, #20
10003868:	0d12      	lsrs	r2, r2, #20
1000386a:	4282      	cmp	r2, r0
1000386c:	d1d3      	bne.n	10003816 <pll_init+0x32>
1000386e:	68e2      	ldr	r2, [r4, #12]
10003870:	2b00      	cmp	r3, #0
10003872:	d1d0      	bne.n	10003816 <pll_init+0x32>
10003874:	e7f0      	b.n	10003858 <pll_init+0x74>
10003876:	46c0      	nop			; (mov r8, r8)
10003878:	bffd4000 	.word	0xbffd4000
1000387c:	4000e000 	.word	0x4000e000
10003880:	4000f000 	.word	0x4000f000
10003884:	4000c000 	.word	0x4000c000

10003888 <watchdog_start_tick>:
10003888:	2380      	movs	r3, #128	; 0x80
1000388a:	4a02      	ldr	r2, [pc, #8]	; (10003894 <watchdog_start_tick+0xc>)
1000388c:	009b      	lsls	r3, r3, #2
1000388e:	4303      	orrs	r3, r0
10003890:	62d3      	str	r3, [r2, #44]	; 0x2c
10003892:	4770      	bx	lr
10003894:	40058000 	.word	0x40058000

10003898 <watchdog_reboot>:
10003898:	b510      	push	{r4, lr}
1000389a:	0014      	movs	r4, r2
1000389c:	2280      	movs	r2, #128	; 0x80
1000389e:	4b1b      	ldr	r3, [pc, #108]	; (1000390c <watchdog_reboot+0x74>)
100038a0:	05d2      	lsls	r2, r2, #23
100038a2:	601a      	str	r2, [r3, #0]
100038a4:	2800      	cmp	r0, #0
100038a6:	d01a      	beq.n	100038de <watchdog_reboot+0x46>
100038a8:	2301      	movs	r3, #1
100038aa:	4a19      	ldr	r2, [pc, #100]	; (10003910 <watchdog_reboot+0x78>)
100038ac:	4318      	orrs	r0, r3
100038ae:	4b19      	ldr	r3, [pc, #100]	; (10003914 <watchdog_reboot+0x7c>)
100038b0:	61da      	str	r2, [r3, #28]
100038b2:	4a19      	ldr	r2, [pc, #100]	; (10003918 <watchdog_reboot+0x80>)
100038b4:	4042      	eors	r2, r0
100038b6:	621a      	str	r2, [r3, #32]
100038b8:	6259      	str	r1, [r3, #36]	; 0x24
100038ba:	6298      	str	r0, [r3, #40]	; 0x28
100038bc:	2280      	movs	r2, #128	; 0x80
100038be:	4b13      	ldr	r3, [pc, #76]	; (1000390c <watchdog_reboot+0x74>)
100038c0:	05d2      	lsls	r2, r2, #23
100038c2:	601a      	str	r2, [r3, #0]
100038c4:	4915      	ldr	r1, [pc, #84]	; (1000391c <watchdog_reboot+0x84>)
100038c6:	4a16      	ldr	r2, [pc, #88]	; (10003920 <watchdog_reboot+0x88>)
100038c8:	6011      	str	r1, [r2, #0]
100038ca:	22e0      	movs	r2, #224	; 0xe0
100038cc:	04d2      	lsls	r2, r2, #19
100038ce:	601a      	str	r2, [r3, #0]
100038d0:	2c00      	cmp	r4, #0
100038d2:	d107      	bne.n	100038e4 <watchdog_reboot+0x4c>
100038d4:	2280      	movs	r2, #128	; 0x80
100038d6:	4b13      	ldr	r3, [pc, #76]	; (10003924 <watchdog_reboot+0x8c>)
100038d8:	0612      	lsls	r2, r2, #24
100038da:	601a      	str	r2, [r3, #0]
100038dc:	bd10      	pop	{r4, pc}
100038de:	4b0d      	ldr	r3, [pc, #52]	; (10003914 <watchdog_reboot+0x7c>)
100038e0:	61d8      	str	r0, [r3, #28]
100038e2:	e7eb      	b.n	100038bc <watchdog_reboot+0x24>
100038e4:	2380      	movs	r3, #128	; 0x80
100038e6:	0162      	lsls	r2, r4, #5
100038e8:	1b12      	subs	r2, r2, r4
100038ea:	0092      	lsls	r2, r2, #2
100038ec:	1912      	adds	r2, r2, r4
100038ee:	0112      	lsls	r2, r2, #4
100038f0:	045b      	lsls	r3, r3, #17
100038f2:	429a      	cmp	r2, r3
100038f4:	d300      	bcc.n	100038f8 <watchdog_reboot+0x60>
100038f6:	4a0c      	ldr	r2, [pc, #48]	; (10003928 <watchdog_reboot+0x90>)
100038f8:	4b0c      	ldr	r3, [pc, #48]	; (1000392c <watchdog_reboot+0x94>)
100038fa:	601a      	str	r2, [r3, #0]
100038fc:	4b05      	ldr	r3, [pc, #20]	; (10003914 <watchdog_reboot+0x7c>)
100038fe:	605a      	str	r2, [r3, #4]
10003900:	2280      	movs	r2, #128	; 0x80
10003902:	4b08      	ldr	r3, [pc, #32]	; (10003924 <watchdog_reboot+0x8c>)
10003904:	05d2      	lsls	r2, r2, #23
10003906:	601a      	str	r2, [r3, #0]
10003908:	e7e8      	b.n	100038dc <watchdog_reboot+0x44>
1000390a:	46c0      	nop			; (mov r8, r8)
1000390c:	4005b000 	.word	0x4005b000
10003910:	b007c0d3 	.word	0xb007c0d3
10003914:	40058000 	.word	0x40058000
10003918:	4ff83f2d 	.word	0x4ff83f2d
1000391c:	0001fffc 	.word	0x0001fffc
10003920:	40012008 	.word	0x40012008
10003924:	4005a000 	.word	0x4005a000
10003928:	00ffffff 	.word	0x00ffffff
1000392c:	200017e4 	.word	0x200017e4

10003930 <xosc_init>:
10003930:	23aa      	movs	r3, #170	; 0xaa
10003932:	4a06      	ldr	r2, [pc, #24]	; (1000394c <xosc_init+0x1c>)
10003934:	011b      	lsls	r3, r3, #4
10003936:	6013      	str	r3, [r2, #0]
10003938:	232f      	movs	r3, #47	; 0x2f
1000393a:	4905      	ldr	r1, [pc, #20]	; (10003950 <xosc_init+0x20>)
1000393c:	60d3      	str	r3, [r2, #12]
1000393e:	4b05      	ldr	r3, [pc, #20]	; (10003954 <xosc_init+0x24>)
10003940:	6019      	str	r1, [r3, #0]
10003942:	6853      	ldr	r3, [r2, #4]
10003944:	2b00      	cmp	r3, #0
10003946:	dafc      	bge.n	10003942 <xosc_init+0x12>
10003948:	4770      	bx	lr
1000394a:	46c0      	nop			; (mov r8, r8)
1000394c:	40024000 	.word	0x40024000
10003950:	00fab000 	.word	0x00fab000
10003954:	40026000 	.word	0x40026000

10003958 <_out_null>:
10003958:	4770      	bx	lr
1000395a:	46c0      	nop			; (mov r8, r8)

1000395c <_out_rev>:
1000395c:	b5f8      	push	{r3, r4, r5, r6, r7, lr}
1000395e:	4657      	mov	r7, sl
10003960:	464e      	mov	r6, r9
10003962:	46de      	mov	lr, fp
10003964:	4645      	mov	r5, r8
10003966:	b5e0      	push	{r5, r6, r7, lr}
10003968:	001f      	movs	r7, r3
1000396a:	9b0a      	ldr	r3, [sp, #40]	; 0x28
1000396c:	0005      	movs	r5, r0
1000396e:	469b      	mov	fp, r3
10003970:	9b0d      	ldr	r3, [sp, #52]	; 0x34
10003972:	000e      	movs	r6, r1
10003974:	4691      	mov	r9, r2
10003976:	4692      	mov	sl, r2
10003978:	079b      	lsls	r3, r3, #30
1000397a:	d118      	bne.n	100039ae <_out_rev+0x52>
1000397c:	9b0b      	ldr	r3, [sp, #44]	; 0x2c
1000397e:	9a0c      	ldr	r2, [sp, #48]	; 0x30
10003980:	4293      	cmp	r3, r2
10003982:	d214      	bcs.n	100039ae <_out_rev+0x52>
10003984:	0013      	movs	r3, r2
10003986:	9a0b      	ldr	r2, [sp, #44]	; 0x2c
10003988:	46b8      	mov	r8, r7
1000398a:	1a9b      	subs	r3, r3, r2
1000398c:	444b      	add	r3, r9
1000398e:	464c      	mov	r4, r9
10003990:	000f      	movs	r7, r1
10003992:	0006      	movs	r6, r0
10003994:	001d      	movs	r5, r3
10003996:	0022      	movs	r2, r4
10003998:	4643      	mov	r3, r8
1000399a:	3401      	adds	r4, #1
1000399c:	0039      	movs	r1, r7
1000399e:	2020      	movs	r0, #32
100039a0:	47b0      	blx	r6
100039a2:	42ac      	cmp	r4, r5
100039a4:	d1f7      	bne.n	10003996 <_out_rev+0x3a>
100039a6:	46aa      	mov	sl, r5
100039a8:	0035      	movs	r5, r6
100039aa:	003e      	movs	r6, r7
100039ac:	4647      	mov	r7, r8
100039ae:	9b0b      	ldr	r3, [sp, #44]	; 0x2c
100039b0:	2b00      	cmp	r3, #0
100039b2:	d038      	beq.n	10003a26 <_out_rev+0xca>
100039b4:	449a      	add	sl, r3
100039b6:	001c      	movs	r4, r3
100039b8:	46d0      	mov	r8, sl
100039ba:	4653      	mov	r3, sl
100039bc:	1b1a      	subs	r2, r3, r4
100039be:	465b      	mov	r3, fp
100039c0:	3c01      	subs	r4, #1
100039c2:	5d18      	ldrb	r0, [r3, r4]
100039c4:	0031      	movs	r1, r6
100039c6:	003b      	movs	r3, r7
100039c8:	47a8      	blx	r5
100039ca:	2c00      	cmp	r4, #0
100039cc:	d1f5      	bne.n	100039ba <_out_rev+0x5e>
100039ce:	9b0d      	ldr	r3, [sp, #52]	; 0x34
100039d0:	079b      	lsls	r3, r3, #30
100039d2:	d521      	bpl.n	10003a18 <_out_rev+0xbc>
100039d4:	4643      	mov	r3, r8
100039d6:	464a      	mov	r2, r9
100039d8:	1a9c      	subs	r4, r3, r2
100039da:	9b0c      	ldr	r3, [sp, #48]	; 0x30
100039dc:	42a3      	cmp	r3, r4
100039de:	d91b      	bls.n	10003a18 <_out_rev+0xbc>
100039e0:	003a      	movs	r2, r7
100039e2:	469a      	mov	sl, r3
100039e4:	464f      	mov	r7, r9
100039e6:	4691      	mov	r9, r2
100039e8:	19e2      	adds	r2, r4, r7
100039ea:	464b      	mov	r3, r9
100039ec:	0031      	movs	r1, r6
100039ee:	2020      	movs	r0, #32
100039f0:	3401      	adds	r4, #1
100039f2:	47a8      	blx	r5
100039f4:	4554      	cmp	r4, sl
100039f6:	d3f7      	bcc.n	100039e8 <_out_rev+0x8c>
100039f8:	4643      	mov	r3, r8
100039fa:	990c      	ldr	r1, [sp, #48]	; 0x30
100039fc:	1bdb      	subs	r3, r3, r7
100039fe:	3301      	adds	r3, #1
10003a00:	46b9      	mov	r9, r7
10003a02:	2200      	movs	r2, #0
10003a04:	4299      	cmp	r1, r3
10003a06:	d303      	bcc.n	10003a10 <_out_rev+0xb4>
10003a08:	4643      	mov	r3, r8
10003a0a:	1e4a      	subs	r2, r1, #1
10003a0c:	444a      	add	r2, r9
10003a0e:	1ad2      	subs	r2, r2, r3
10003a10:	4643      	mov	r3, r8
10003a12:	4690      	mov	r8, r2
10003a14:	3301      	adds	r3, #1
10003a16:	4498      	add	r8, r3
10003a18:	4640      	mov	r0, r8
10003a1a:	bc3c      	pop	{r2, r3, r4, r5}
10003a1c:	4690      	mov	r8, r2
10003a1e:	4699      	mov	r9, r3
10003a20:	46a2      	mov	sl, r4
10003a22:	46ab      	mov	fp, r5
10003a24:	bdf8      	pop	{r3, r4, r5, r6, r7, pc}
10003a26:	46d0      	mov	r8, sl
10003a28:	e7d1      	b.n	100039ce <_out_rev+0x72>
10003a2a:	46c0      	nop			; (mov r8, r8)

10003a2c <_ntoa_format>:
10003a2c:	b5f0      	push	{r4, r5, r6, r7, lr}
10003a2e:	464f      	mov	r7, r9
10003a30:	4646      	mov	r6, r8
10003a32:	46d6      	mov	lr, sl
10003a34:	b5c0      	push	{r6, r7, lr}
10003a36:	b084      	sub	sp, #16
10003a38:	4698      	mov	r8, r3
10003a3a:	ab0e      	add	r3, sp, #56	; 0x38
10003a3c:	781b      	ldrb	r3, [r3, #0]
10003a3e:	9f12      	ldr	r7, [sp, #72]	; 0x48
10003a40:	4699      	mov	r9, r3
10003a42:	4694      	mov	ip, r2
10003a44:	9c0d      	ldr	r4, [sp, #52]	; 0x34
10003a46:	9b10      	ldr	r3, [sp, #64]	; 0x40
10003a48:	9e11      	ldr	r6, [sp, #68]	; 0x44
10003a4a:	07ba      	lsls	r2, r7, #30
10003a4c:	d425      	bmi.n	10003a9a <_ntoa_format+0x6e>
10003a4e:	2e00      	cmp	r6, #0
10003a50:	d169      	bne.n	10003b26 <_ntoa_format+0xfa>
10003a52:	429c      	cmp	r4, r3
10003a54:	d300      	bcc.n	10003a58 <_ntoa_format+0x2c>
10003a56:	e0c2      	b.n	10003bde <_ntoa_format+0x1b2>
10003a58:	2201      	movs	r2, #1
10003a5a:	403a      	ands	r2, r7
10003a5c:	4692      	mov	sl, r2
10003a5e:	2c1f      	cmp	r4, #31
10003a60:	d900      	bls.n	10003a64 <_ntoa_format+0x38>
10003a62:	e0bb      	b.n	10003bdc <_ntoa_format+0x1b0>
10003a64:	9a0c      	ldr	r2, [sp, #48]	; 0x30
10003a66:	1e55      	subs	r5, r2, #1
10003a68:	2230      	movs	r2, #48	; 0x30
10003a6a:	e001      	b.n	10003a70 <_ntoa_format+0x44>
10003a6c:	2c20      	cmp	r4, #32
10003a6e:	d003      	beq.n	10003a78 <_ntoa_format+0x4c>
10003a70:	3401      	adds	r4, #1
10003a72:	552a      	strb	r2, [r5, r4]
10003a74:	42a3      	cmp	r3, r4
10003a76:	d8f9      	bhi.n	10003a6c <_ntoa_format+0x40>
10003a78:	4652      	mov	r2, sl
10003a7a:	2a00      	cmp	r2, #0
10003a7c:	d00d      	beq.n	10003a9a <_ntoa_format+0x6e>
10003a7e:	42b4      	cmp	r4, r6
10003a80:	d20b      	bcs.n	10003a9a <_ntoa_format+0x6e>
10003a82:	2c1f      	cmp	r4, #31
10003a84:	d862      	bhi.n	10003b4c <_ntoa_format+0x120>
10003a86:	9a0c      	ldr	r2, [sp, #48]	; 0x30
10003a88:	1e55      	subs	r5, r2, #1
10003a8a:	2230      	movs	r2, #48	; 0x30
10003a8c:	e001      	b.n	10003a92 <_ntoa_format+0x66>
10003a8e:	2c20      	cmp	r4, #32
10003a90:	d05c      	beq.n	10003b4c <_ntoa_format+0x120>
10003a92:	3401      	adds	r4, #1
10003a94:	552a      	strb	r2, [r5, r4]
10003a96:	42b4      	cmp	r4, r6
10003a98:	d1f9      	bne.n	10003a8e <_ntoa_format+0x62>
10003a9a:	06fa      	lsls	r2, r7, #27
10003a9c:	d535      	bpl.n	10003b0a <_ntoa_format+0xde>
10003a9e:	057a      	lsls	r2, r7, #21
10003aa0:	d45d      	bmi.n	10003b5e <_ntoa_format+0x132>
10003aa2:	2c00      	cmp	r4, #0
10003aa4:	d157      	bne.n	10003b56 <_ntoa_format+0x12a>
10003aa6:	9b0f      	ldr	r3, [sp, #60]	; 0x3c
10003aa8:	2b10      	cmp	r3, #16
10003aaa:	d100      	bne.n	10003aae <_ntoa_format+0x82>
10003aac:	e07c      	b.n	10003ba8 <_ntoa_format+0x17c>
10003aae:	9b0f      	ldr	r3, [sp, #60]	; 0x3c
10003ab0:	2b02      	cmp	r3, #2
10003ab2:	d100      	bne.n	10003ab6 <_ntoa_format+0x8a>
10003ab4:	e08d      	b.n	10003bd2 <_ntoa_format+0x1a6>
10003ab6:	2330      	movs	r3, #48	; 0x30
10003ab8:	9a0c      	ldr	r2, [sp, #48]	; 0x30
10003aba:	2401      	movs	r4, #1
10003abc:	7013      	strb	r3, [r2, #0]
10003abe:	464b      	mov	r3, r9
10003ac0:	2b00      	cmp	r3, #0
10003ac2:	d027      	beq.n	10003b14 <_ntoa_format+0xe8>
10003ac4:	232d      	movs	r3, #45	; 0x2d
10003ac6:	9a0c      	ldr	r2, [sp, #48]	; 0x30
10003ac8:	5513      	strb	r3, [r2, r4]
10003aca:	3401      	adds	r4, #1
10003acc:	9b0c      	ldr	r3, [sp, #48]	; 0x30
10003ace:	4662      	mov	r2, ip
10003ad0:	9300      	str	r3, [sp, #0]
10003ad2:	9703      	str	r7, [sp, #12]
10003ad4:	4643      	mov	r3, r8
10003ad6:	9602      	str	r6, [sp, #8]
10003ad8:	9401      	str	r4, [sp, #4]
10003ada:	f7ff ff3f 	bl	1000395c <_out_rev>
10003ade:	b004      	add	sp, #16
10003ae0:	bc1c      	pop	{r2, r3, r4}
10003ae2:	4690      	mov	r8, r2
10003ae4:	4699      	mov	r9, r3
10003ae6:	46a2      	mov	sl, r4
10003ae8:	bdf0      	pop	{r4, r5, r6, r7, pc}
10003aea:	06bb      	lsls	r3, r7, #26
10003aec:	d463      	bmi.n	10003bb6 <_ntoa_format+0x18a>
10003aee:	2c20      	cmp	r4, #32
10003af0:	d0ec      	beq.n	10003acc <_ntoa_format+0xa0>
10003af2:	9b0c      	ldr	r3, [sp, #48]	; 0x30
10003af4:	191a      	adds	r2, r3, r4
10003af6:	3401      	adds	r4, #1
10003af8:	2378      	movs	r3, #120	; 0x78
10003afa:	7013      	strb	r3, [r2, #0]
10003afc:	2c20      	cmp	r4, #32
10003afe:	d0e5      	beq.n	10003acc <_ntoa_format+0xa0>
10003b00:	2230      	movs	r2, #48	; 0x30
10003b02:	9b0c      	ldr	r3, [sp, #48]	; 0x30
10003b04:	191b      	adds	r3, r3, r4
10003b06:	701a      	strb	r2, [r3, #0]
10003b08:	3401      	adds	r4, #1
10003b0a:	2c20      	cmp	r4, #32
10003b0c:	d0de      	beq.n	10003acc <_ntoa_format+0xa0>
10003b0e:	464b      	mov	r3, r9
10003b10:	2b00      	cmp	r3, #0
10003b12:	d1d7      	bne.n	10003ac4 <_ntoa_format+0x98>
10003b14:	077b      	lsls	r3, r7, #29
10003b16:	d435      	bmi.n	10003b84 <_ntoa_format+0x158>
10003b18:	073b      	lsls	r3, r7, #28
10003b1a:	d5d7      	bpl.n	10003acc <_ntoa_format+0xa0>
10003b1c:	2320      	movs	r3, #32
10003b1e:	9a0c      	ldr	r2, [sp, #48]	; 0x30
10003b20:	5513      	strb	r3, [r2, r4]
10003b22:	3401      	adds	r4, #1
10003b24:	e7d2      	b.n	10003acc <_ntoa_format+0xa0>
10003b26:	2201      	movs	r2, #1
10003b28:	0015      	movs	r5, r2
10003b2a:	403d      	ands	r5, r7
10003b2c:	46aa      	mov	sl, r5
10003b2e:	423a      	tst	r2, r7
10003b30:	d020      	beq.n	10003b74 <_ntoa_format+0x148>
10003b32:	464a      	mov	r2, r9
10003b34:	2a00      	cmp	r2, #0
10003b36:	d12a      	bne.n	10003b8e <_ntoa_format+0x162>
10003b38:	320c      	adds	r2, #12
10003b3a:	423a      	tst	r2, r7
10003b3c:	d127      	bne.n	10003b8e <_ntoa_format+0x162>
10003b3e:	429c      	cmp	r4, r3
10003b40:	d29d      	bcs.n	10003a7e <_ntoa_format+0x52>
10003b42:	2c1f      	cmp	r4, #31
10003b44:	d800      	bhi.n	10003b48 <_ntoa_format+0x11c>
10003b46:	e78d      	b.n	10003a64 <_ntoa_format+0x38>
10003b48:	2e20      	cmp	r6, #32
10003b4a:	d919      	bls.n	10003b80 <_ntoa_format+0x154>
10003b4c:	2420      	movs	r4, #32
10003b4e:	06fa      	lsls	r2, r7, #27
10003b50:	d5bc      	bpl.n	10003acc <_ntoa_format+0xa0>
10003b52:	057a      	lsls	r2, r7, #21
10003b54:	d403      	bmi.n	10003b5e <_ntoa_format+0x132>
10003b56:	42a3      	cmp	r3, r4
10003b58:	d01b      	beq.n	10003b92 <_ntoa_format+0x166>
10003b5a:	42a6      	cmp	r6, r4
10003b5c:	d019      	beq.n	10003b92 <_ntoa_format+0x166>
10003b5e:	9b0f      	ldr	r3, [sp, #60]	; 0x3c
10003b60:	2b10      	cmp	r3, #16
10003b62:	d0c2      	beq.n	10003aea <_ntoa_format+0xbe>
10003b64:	2b02      	cmp	r3, #2
10003b66:	d1c9      	bne.n	10003afc <_ntoa_format+0xd0>
10003b68:	2c20      	cmp	r4, #32
10003b6a:	d0af      	beq.n	10003acc <_ntoa_format+0xa0>
10003b6c:	9b0c      	ldr	r3, [sp, #48]	; 0x30
10003b6e:	191b      	adds	r3, r3, r4
10003b70:	3401      	adds	r4, #1
10003b72:	e040      	b.n	10003bf6 <_ntoa_format+0x1ca>
10003b74:	429c      	cmp	r4, r3
10003b76:	d300      	bcc.n	10003b7a <_ntoa_format+0x14e>
10003b78:	e78f      	b.n	10003a9a <_ntoa_format+0x6e>
10003b7a:	2c1f      	cmp	r4, #31
10003b7c:	d800      	bhi.n	10003b80 <_ntoa_format+0x154>
10003b7e:	e771      	b.n	10003a64 <_ntoa_format+0x38>
10003b80:	2420      	movs	r4, #32
10003b82:	e78a      	b.n	10003a9a <_ntoa_format+0x6e>
10003b84:	232b      	movs	r3, #43	; 0x2b
10003b86:	9a0c      	ldr	r2, [sp, #48]	; 0x30
10003b88:	5513      	strb	r3, [r2, r4]
10003b8a:	3401      	adds	r4, #1
10003b8c:	e79e      	b.n	10003acc <_ntoa_format+0xa0>
10003b8e:	3e01      	subs	r6, #1
10003b90:	e7d5      	b.n	10003b3e <_ntoa_format+0x112>
10003b92:	1e63      	subs	r3, r4, #1
10003b94:	2c01      	cmp	r4, #1
10003b96:	d100      	bne.n	10003b9a <_ntoa_format+0x16e>
10003b98:	e785      	b.n	10003aa6 <_ntoa_format+0x7a>
10003b9a:	9a0f      	ldr	r2, [sp, #60]	; 0x3c
10003b9c:	2a10      	cmp	r2, #16
10003b9e:	d020      	beq.n	10003be2 <_ntoa_format+0x1b6>
10003ba0:	2a02      	cmp	r2, #2
10003ba2:	d025      	beq.n	10003bf0 <_ntoa_format+0x1c4>
10003ba4:	001c      	movs	r4, r3
10003ba6:	e7ab      	b.n	10003b00 <_ntoa_format+0xd4>
10003ba8:	06bb      	lsls	r3, r7, #26
10003baa:	d40d      	bmi.n	10003bc8 <_ntoa_format+0x19c>
10003bac:	2378      	movs	r3, #120	; 0x78
10003bae:	9a0c      	ldr	r2, [sp, #48]	; 0x30
10003bb0:	2401      	movs	r4, #1
10003bb2:	7013      	strb	r3, [r2, #0]
10003bb4:	e7a4      	b.n	10003b00 <_ntoa_format+0xd4>
10003bb6:	2c20      	cmp	r4, #32
10003bb8:	d100      	bne.n	10003bbc <_ntoa_format+0x190>
10003bba:	e787      	b.n	10003acc <_ntoa_format+0xa0>
10003bbc:	2258      	movs	r2, #88	; 0x58
10003bbe:	9b0c      	ldr	r3, [sp, #48]	; 0x30
10003bc0:	191b      	adds	r3, r3, r4
10003bc2:	701a      	strb	r2, [r3, #0]
10003bc4:	3401      	adds	r4, #1
10003bc6:	e799      	b.n	10003afc <_ntoa_format+0xd0>
10003bc8:	2358      	movs	r3, #88	; 0x58
10003bca:	9a0c      	ldr	r2, [sp, #48]	; 0x30
10003bcc:	2401      	movs	r4, #1
10003bce:	7013      	strb	r3, [r2, #0]
10003bd0:	e796      	b.n	10003b00 <_ntoa_format+0xd4>
10003bd2:	9a0c      	ldr	r2, [sp, #48]	; 0x30
10003bd4:	3360      	adds	r3, #96	; 0x60
10003bd6:	2401      	movs	r4, #1
10003bd8:	7013      	strb	r3, [r2, #0]
10003bda:	e791      	b.n	10003b00 <_ntoa_format+0xd4>
10003bdc:	2420      	movs	r4, #32
10003bde:	2600      	movs	r6, #0
10003be0:	e75b      	b.n	10003a9a <_ntoa_format+0x6e>
10003be2:	3c02      	subs	r4, #2
10003be4:	06ba      	lsls	r2, r7, #26
10003be6:	d4e9      	bmi.n	10003bbc <_ntoa_format+0x190>
10003be8:	9a0c      	ldr	r2, [sp, #48]	; 0x30
10003bea:	1912      	adds	r2, r2, r4
10003bec:	001c      	movs	r4, r3
10003bee:	e783      	b.n	10003af8 <_ntoa_format+0xcc>
10003bf0:	9a0c      	ldr	r2, [sp, #48]	; 0x30
10003bf2:	4692      	mov	sl, r2
10003bf4:	4453      	add	r3, sl
10003bf6:	2262      	movs	r2, #98	; 0x62
10003bf8:	701a      	strb	r2, [r3, #0]
10003bfa:	e77f      	b.n	10003afc <_ntoa_format+0xd0>

10003bfc <_out_char>:
10003bfc:	b510      	push	{r4, lr}
10003bfe:	2800      	cmp	r0, #0
10003c00:	d100      	bne.n	10003c04 <_out_char+0x8>
10003c02:	bd10      	pop	{r4, pc}
10003c04:	f002 f9fe 	bl	10006004 <__wrap_putchar>
10003c08:	e7fb      	b.n	10003c02 <_out_char+0x6>
10003c0a:	46c0      	nop			; (mov r8, r8)

10003c0c <_out_fct>:
10003c0c:	000b      	movs	r3, r1
10003c0e:	b510      	push	{r4, lr}
10003c10:	2800      	cmp	r0, #0
10003c12:	d002      	beq.n	10003c1a <_out_fct+0xe>
10003c14:	6849      	ldr	r1, [r1, #4]
10003c16:	681b      	ldr	r3, [r3, #0]
10003c18:	4798      	blx	r3
10003c1a:	bd10      	pop	{r4, pc}

10003c1c <_etoa>:
10003c1c:	b5f0      	push	{r4, r5, r6, r7, lr}
10003c1e:	46de      	mov	lr, fp
10003c20:	4657      	mov	r7, sl
10003c22:	4645      	mov	r5, r8
10003c24:	464e      	mov	r6, r9
10003c26:	b5e0      	push	{r5, r6, r7, lr}
10003c28:	b09b      	sub	sp, #108	; 0x6c
10003c2a:	469b      	mov	fp, r3
10003c2c:	9b24      	ldr	r3, [sp, #144]	; 0x90
10003c2e:	900a      	str	r0, [sp, #40]	; 0x28
10003c30:	4698      	mov	r8, r3
10003c32:	9b25      	ldr	r3, [sp, #148]	; 0x94
10003c34:	910b      	str	r1, [sp, #44]	; 0x2c
10003c36:	920c      	str	r2, [sp, #48]	; 0x30
10003c38:	4640      	mov	r0, r8
10003c3a:	4642      	mov	r2, r8
10003c3c:	0019      	movs	r1, r3
10003c3e:	469a      	mov	sl, r3
10003c40:	f001 fcf3 	bl	1000562a <__wrap___aeabi_dcmpun>
10003c44:	2800      	cmp	r0, #0
10003c46:	d000      	beq.n	10003c4a <_etoa+0x2e>
10003c48:	e0e8      	b.n	10003e1c <_etoa+0x200>
10003c4a:	2201      	movs	r2, #1
10003c4c:	4640      	mov	r0, r8
10003c4e:	4651      	mov	r1, sl
10003c50:	4b7f      	ldr	r3, [pc, #508]	; (10003e50 <_etoa+0x234>)
10003c52:	4252      	negs	r2, r2
10003c54:	f001 fce4 	bl	10005620 <__wrap___aeabi_dcmpgt>
10003c58:	2800      	cmp	r0, #0
10003c5a:	d000      	beq.n	10003c5e <_etoa+0x42>
10003c5c:	e0de      	b.n	10003e1c <_etoa+0x200>
10003c5e:	2201      	movs	r2, #1
10003c60:	4640      	mov	r0, r8
10003c62:	4651      	mov	r1, sl
10003c64:	4b7b      	ldr	r3, [pc, #492]	; (10003e54 <_etoa+0x238>)
10003c66:	4252      	negs	r2, r2
10003c68:	f001 fcc4 	bl	100055f4 <__wrap___aeabi_dcmplt>
10003c6c:	2800      	cmp	r0, #0
10003c6e:	d000      	beq.n	10003c72 <_etoa+0x56>
10003c70:	e0d4      	b.n	10003e1c <_etoa+0x200>
10003c72:	2200      	movs	r2, #0
10003c74:	2300      	movs	r3, #0
10003c76:	4640      	mov	r0, r8
10003c78:	4651      	mov	r1, sl
10003c7a:	f001 fcbb 	bl	100055f4 <__wrap___aeabi_dcmplt>
10003c7e:	2800      	cmp	r0, #0
10003c80:	d000      	beq.n	10003c84 <_etoa+0x68>
10003c82:	e1ca      	b.n	1000401a <_etoa+0x3fe>
10003c84:	4653      	mov	r3, sl
10003c86:	46c1      	mov	r9, r8
10003c88:	9309      	str	r3, [sp, #36]	; 0x24
10003c8a:	2380      	movs	r3, #128	; 0x80
10003c8c:	9a28      	ldr	r2, [sp, #160]	; 0xa0
10003c8e:	00db      	lsls	r3, r3, #3
10003c90:	401a      	ands	r2, r3
10003c92:	920e      	str	r2, [sp, #56]	; 0x38
10003c94:	9a28      	ldr	r2, [sp, #160]	; 0xa0
10003c96:	421a      	tst	r2, r3
10003c98:	d101      	bne.n	10003c9e <_etoa+0x82>
10003c9a:	2306      	movs	r3, #6
10003c9c:	9326      	str	r3, [sp, #152]	; 0x98
10003c9e:	464c      	mov	r4, r9
10003ca0:	9b09      	ldr	r3, [sp, #36]	; 0x24
10003ca2:	4323      	orrs	r3, r4
10003ca4:	d000      	beq.n	10003ca8 <_etoa+0x8c>
10003ca6:	e0d9      	b.n	10003e5c <_etoa+0x240>
10003ca8:	9b28      	ldr	r3, [sp, #160]	; 0xa0
10003caa:	2600      	movs	r6, #0
10003cac:	2700      	movs	r7, #0
10003cae:	051b      	lsls	r3, r3, #20
10003cb0:	d400      	bmi.n	10003cb4 <_etoa+0x98>
10003cb2:	e1ae      	b.n	10004012 <_etoa+0x3f6>
10003cb4:	2300      	movs	r3, #0
10003cb6:	930d      	str	r3, [sp, #52]	; 0x34
10003cb8:	9b26      	ldr	r3, [sp, #152]	; 0x98
10003cba:	0019      	movs	r1, r3
10003cbc:	9b0d      	ldr	r3, [sp, #52]	; 0x34
10003cbe:	4299      	cmp	r1, r3
10003cc0:	dc00      	bgt.n	10003cc4 <_etoa+0xa8>
10003cc2:	e1b0      	b.n	10004026 <_etoa+0x40a>
10003cc4:	1ac8      	subs	r0, r1, r3
10003cc6:	1e43      	subs	r3, r0, #1
10003cc8:	9326      	str	r3, [sp, #152]	; 0x98
10003cca:	2380      	movs	r3, #128	; 0x80
10003ccc:	9a28      	ldr	r2, [sp, #160]	; 0xa0
10003cce:	00db      	lsls	r3, r3, #3
10003cd0:	431a      	orrs	r2, r3
10003cd2:	2300      	movs	r3, #0
10003cd4:	2500      	movs	r5, #0
10003cd6:	9228      	str	r2, [sp, #160]	; 0xa0
10003cd8:	930d      	str	r3, [sp, #52]	; 0x34
10003cda:	9b27      	ldr	r3, [sp, #156]	; 0x9c
10003cdc:	2400      	movs	r4, #0
10003cde:	42ab      	cmp	r3, r5
10003ce0:	d900      	bls.n	10003ce4 <_etoa+0xc8>
10003ce2:	1b5c      	subs	r4, r3, r5
10003ce4:	2302      	movs	r3, #2
10003ce6:	9a28      	ldr	r2, [sp, #160]	; 0xa0
10003ce8:	401a      	ands	r2, r3
10003cea:	920e      	str	r2, [sp, #56]	; 0x38
10003cec:	9a28      	ldr	r2, [sp, #160]	; 0xa0
10003cee:	4213      	tst	r3, r2
10003cf0:	d003      	beq.n	10003cfa <_etoa+0xde>
10003cf2:	426b      	negs	r3, r5
10003cf4:	416b      	adcs	r3, r5
10003cf6:	425b      	negs	r3, r3
10003cf8:	401c      	ands	r4, r3
10003cfa:	9b0d      	ldr	r3, [sp, #52]	; 0x34
10003cfc:	2b00      	cmp	r3, #0
10003cfe:	d007      	beq.n	10003d10 <_etoa+0xf4>
10003d00:	4648      	mov	r0, r9
10003d02:	9909      	ldr	r1, [sp, #36]	; 0x24
10003d04:	0032      	movs	r2, r6
10003d06:	003b      	movs	r3, r7
10003d08:	f001 fc13 	bl	10005532 <__wrap___aeabi_ddiv>
10003d0c:	4681      	mov	r9, r0
10003d0e:	9109      	str	r1, [sp, #36]	; 0x24
10003d10:	2200      	movs	r2, #0
10003d12:	2300      	movs	r3, #0
10003d14:	4640      	mov	r0, r8
10003d16:	4651      	mov	r1, sl
10003d18:	f001 fc6c 	bl	100055f4 <__wrap___aeabi_dcmplt>
10003d1c:	2800      	cmp	r0, #0
10003d1e:	d005      	beq.n	10003d2c <_etoa+0x110>
10003d20:	2080      	movs	r0, #128	; 0x80
10003d22:	0600      	lsls	r0, r0, #24
10003d24:	4684      	mov	ip, r0
10003d26:	9909      	ldr	r1, [sp, #36]	; 0x24
10003d28:	4461      	add	r1, ip
10003d2a:	9109      	str	r1, [sp, #36]	; 0x24
10003d2c:	9a28      	ldr	r2, [sp, #160]	; 0xa0
10003d2e:	4b4a      	ldr	r3, [pc, #296]	; (10003e58 <_etoa+0x23c>)
10003d30:	9e0a      	ldr	r6, [sp, #40]	; 0x28
10003d32:	4013      	ands	r3, r2
10003d34:	464a      	mov	r2, r9
10003d36:	9304      	str	r3, [sp, #16]
10003d38:	9b26      	ldr	r3, [sp, #152]	; 0x98
10003d3a:	990b      	ldr	r1, [sp, #44]	; 0x2c
10003d3c:	9302      	str	r3, [sp, #8]
10003d3e:	9b09      	ldr	r3, [sp, #36]	; 0x24
10003d40:	9403      	str	r4, [sp, #12]
10003d42:	9200      	str	r2, [sp, #0]
10003d44:	9301      	str	r3, [sp, #4]
10003d46:	0030      	movs	r0, r6
10003d48:	465b      	mov	r3, fp
10003d4a:	9a0c      	ldr	r2, [sp, #48]	; 0x30
10003d4c:	4688      	mov	r8, r1
10003d4e:	f000 f9a1 	bl	10004094 <_ftoa>
10003d52:	0004      	movs	r4, r0
10003d54:	2d00      	cmp	r5, #0
10003d56:	d072      	beq.n	10003e3e <_etoa+0x222>
10003d58:	9b28      	ldr	r3, [sp, #160]	; 0xa0
10003d5a:	0022      	movs	r2, r4
10003d5c:	0698      	lsls	r0, r3, #26
10003d5e:	231f      	movs	r3, #31
10003d60:	17c0      	asrs	r0, r0, #31
10003d62:	4398      	bics	r0, r3
10003d64:	4641      	mov	r1, r8
10003d66:	465b      	mov	r3, fp
10003d68:	3065      	adds	r0, #101	; 0x65
10003d6a:	47b0      	blx	r6
10003d6c:	9b0d      	ldr	r3, [sp, #52]	; 0x34
10003d6e:	1c67      	adds	r7, r4, #1
10003d70:	17da      	asrs	r2, r3, #31
10003d72:	189c      	adds	r4, r3, r2
10003d74:	0fdb      	lsrs	r3, r3, #31
10003d76:	4698      	mov	r8, r3
10003d78:	1e6b      	subs	r3, r5, #1
10003d7a:	4699      	mov	r9, r3
10003d7c:	2500      	movs	r5, #0
10003d7e:	4054      	eors	r4, r2
10003d80:	e001      	b.n	10003d86 <_etoa+0x16a>
10003d82:	2d20      	cmp	r5, #32
10003d84:	d013      	beq.n	10003dae <_etoa+0x192>
10003d86:	aa0a      	add	r2, sp, #40	; 0x28
10003d88:	4694      	mov	ip, r2
10003d8a:	231f      	movs	r3, #31
10003d8c:	0020      	movs	r0, r4
10003d8e:	4463      	add	r3, ip
10003d90:	210a      	movs	r1, #10
10003d92:	3501      	adds	r5, #1
10003d94:	195e      	adds	r6, r3, r5
10003d96:	f001 f977 	bl	10005088 <__wrap___aeabi_uidiv>
10003d9a:	3130      	adds	r1, #48	; 0x30
10003d9c:	7031      	strb	r1, [r6, #0]
10003d9e:	0020      	movs	r0, r4
10003da0:	210a      	movs	r1, #10
10003da2:	f001 f971 	bl	10005088 <__wrap___aeabi_uidiv>
10003da6:	0026      	movs	r6, r4
10003da8:	0004      	movs	r4, r0
10003daa:	2e09      	cmp	r6, #9
10003dac:	d8e9      	bhi.n	10003d82 <_etoa+0x166>
10003dae:	2305      	movs	r3, #5
10003db0:	9306      	str	r3, [sp, #24]
10003db2:	464b      	mov	r3, r9
10003db4:	9305      	str	r3, [sp, #20]
10003db6:	2300      	movs	r3, #0
10003db8:	9304      	str	r3, [sp, #16]
10003dba:	330a      	adds	r3, #10
10003dbc:	9303      	str	r3, [sp, #12]
10003dbe:	4643      	mov	r3, r8
10003dc0:	003a      	movs	r2, r7
10003dc2:	9e0a      	ldr	r6, [sp, #40]	; 0x28
10003dc4:	9f0b      	ldr	r7, [sp, #44]	; 0x2c
10003dc6:	9302      	str	r3, [sp, #8]
10003dc8:	ab12      	add	r3, sp, #72	; 0x48
10003dca:	9300      	str	r3, [sp, #0]
10003dcc:	0039      	movs	r1, r7
10003dce:	465b      	mov	r3, fp
10003dd0:	0030      	movs	r0, r6
10003dd2:	9501      	str	r5, [sp, #4]
10003dd4:	f7ff fe2a 	bl	10003a2c <_ntoa_format>
10003dd8:	9b0e      	ldr	r3, [sp, #56]	; 0x38
10003dda:	0004      	movs	r4, r0
10003ddc:	2b00      	cmp	r3, #0
10003dde:	d02e      	beq.n	10003e3e <_etoa+0x222>
10003de0:	9b0c      	ldr	r3, [sp, #48]	; 0x30
10003de2:	9a27      	ldr	r2, [sp, #156]	; 0x9c
10003de4:	1ac5      	subs	r5, r0, r3
10003de6:	42aa      	cmp	r2, r5
10003de8:	d929      	bls.n	10003e3e <_etoa+0x222>
10003dea:	003c      	movs	r4, r7
10003dec:	4681      	mov	r9, r0
10003dee:	4698      	mov	r8, r3
10003df0:	0017      	movs	r7, r2
10003df2:	4643      	mov	r3, r8
10003df4:	0021      	movs	r1, r4
10003df6:	195a      	adds	r2, r3, r5
10003df8:	2020      	movs	r0, #32
10003dfa:	465b      	mov	r3, fp
10003dfc:	3501      	adds	r5, #1
10003dfe:	47b0      	blx	r6
10003e00:	42af      	cmp	r7, r5
10003e02:	d8f6      	bhi.n	10003df2 <_etoa+0x1d6>
10003e04:	464c      	mov	r4, r9
10003e06:	990c      	ldr	r1, [sp, #48]	; 0x30
10003e08:	9827      	ldr	r0, [sp, #156]	; 0x9c
10003e0a:	1a63      	subs	r3, r4, r1
10003e0c:	3301      	adds	r3, #1
10003e0e:	2200      	movs	r2, #0
10003e10:	4298      	cmp	r0, r3
10003e12:	d300      	bcc.n	10003e16 <_etoa+0x1fa>
10003e14:	e10a      	b.n	1000402c <_etoa+0x410>
10003e16:	3401      	adds	r4, #1
10003e18:	1914      	adds	r4, r2, r4
10003e1a:	e010      	b.n	10003e3e <_etoa+0x222>
10003e1c:	9b28      	ldr	r3, [sp, #160]	; 0xa0
10003e1e:	4642      	mov	r2, r8
10003e20:	9304      	str	r3, [sp, #16]
10003e22:	9b27      	ldr	r3, [sp, #156]	; 0x9c
10003e24:	990b      	ldr	r1, [sp, #44]	; 0x2c
10003e26:	9303      	str	r3, [sp, #12]
10003e28:	9b26      	ldr	r3, [sp, #152]	; 0x98
10003e2a:	980a      	ldr	r0, [sp, #40]	; 0x28
10003e2c:	9302      	str	r3, [sp, #8]
10003e2e:	4653      	mov	r3, sl
10003e30:	9200      	str	r2, [sp, #0]
10003e32:	9301      	str	r3, [sp, #4]
10003e34:	465b      	mov	r3, fp
10003e36:	9a0c      	ldr	r2, [sp, #48]	; 0x30
10003e38:	f000 f92c 	bl	10004094 <_ftoa>
10003e3c:	0004      	movs	r4, r0
10003e3e:	0020      	movs	r0, r4
10003e40:	b01b      	add	sp, #108	; 0x6c
10003e42:	bc3c      	pop	{r2, r3, r4, r5}
10003e44:	4690      	mov	r8, r2
10003e46:	4699      	mov	r9, r3
10003e48:	46a2      	mov	sl, r4
10003e4a:	46ab      	mov	fp, r5
10003e4c:	bdf0      	pop	{r4, r5, r6, r7, pc}
10003e4e:	46c0      	nop			; (mov r8, r8)
10003e50:	7fefffff 	.word	0x7fefffff
10003e54:	ffefffff 	.word	0xffefffff
10003e58:	fffff7ff 	.word	0xfffff7ff
10003e5c:	4b76      	ldr	r3, [pc, #472]	; (10004038 <_etoa+0x41c>)
10003e5e:	9d09      	ldr	r5, [sp, #36]	; 0x24
10003e60:	469c      	mov	ip, r3
10003e62:	0068      	lsls	r0, r5, #1
10003e64:	0d40      	lsrs	r0, r0, #21
10003e66:	4460      	add	r0, ip
10003e68:	f001 fbf2 	bl	10005650 <__wrap___aeabi_i2d>
10003e6c:	4a73      	ldr	r2, [pc, #460]	; (1000403c <_etoa+0x420>)
10003e6e:	4b74      	ldr	r3, [pc, #464]	; (10004040 <_etoa+0x424>)
10003e70:	f001 fb7d 	bl	1000556e <__wrap___aeabi_dmul>
10003e74:	4a73      	ldr	r2, [pc, #460]	; (10004044 <_etoa+0x428>)
10003e76:	4b74      	ldr	r3, [pc, #464]	; (10004048 <_etoa+0x42c>)
10003e78:	f001 fb52 	bl	10005520 <__wrap___aeabi_dadd>
10003e7c:	032b      	lsls	r3, r5, #12
10003e7e:	4a73      	ldr	r2, [pc, #460]	; (1000404c <_etoa+0x430>)
10003e80:	0b1b      	lsrs	r3, r3, #12
10003e82:	431a      	orrs	r2, r3
10003e84:	0006      	movs	r6, r0
10003e86:	000f      	movs	r7, r1
10003e88:	4b71      	ldr	r3, [pc, #452]	; (10004050 <_etoa+0x434>)
10003e8a:	0011      	movs	r1, r2
10003e8c:	4648      	mov	r0, r9
10003e8e:	2200      	movs	r2, #0
10003e90:	9509      	str	r5, [sp, #36]	; 0x24
10003e92:	f001 fb3c 	bl	1000550e <__wrap___aeabi_dsub>
10003e96:	4a6f      	ldr	r2, [pc, #444]	; (10004054 <_etoa+0x438>)
10003e98:	4b6f      	ldr	r3, [pc, #444]	; (10004058 <_etoa+0x43c>)
10003e9a:	f001 fb68 	bl	1000556e <__wrap___aeabi_dmul>
10003e9e:	0002      	movs	r2, r0
10003ea0:	000b      	movs	r3, r1
10003ea2:	0030      	movs	r0, r6
10003ea4:	0039      	movs	r1, r7
10003ea6:	f001 fb3b 	bl	10005520 <__wrap___aeabi_dadd>
10003eaa:	f001 fbe9 	bl	10005680 <__wrap___aeabi_d2iz>
10003eae:	900d      	str	r0, [sp, #52]	; 0x34
10003eb0:	f001 fbce 	bl	10005650 <__wrap___aeabi_i2d>
10003eb4:	4a69      	ldr	r2, [pc, #420]	; (1000405c <_etoa+0x440>)
10003eb6:	4b6a      	ldr	r3, [pc, #424]	; (10004060 <_etoa+0x444>)
10003eb8:	0004      	movs	r4, r0
10003eba:	000d      	movs	r5, r1
10003ebc:	f001 fb57 	bl	1000556e <__wrap___aeabi_dmul>
10003ec0:	2200      	movs	r2, #0
10003ec2:	4b68      	ldr	r3, [pc, #416]	; (10004064 <_etoa+0x448>)
10003ec4:	f001 fb2c 	bl	10005520 <__wrap___aeabi_dadd>
10003ec8:	f001 fbda 	bl	10005680 <__wrap___aeabi_d2iz>
10003ecc:	4a66      	ldr	r2, [pc, #408]	; (10004068 <_etoa+0x44c>)
10003ece:	0006      	movs	r6, r0
10003ed0:	4b66      	ldr	r3, [pc, #408]	; (1000406c <_etoa+0x450>)
10003ed2:	0020      	movs	r0, r4
10003ed4:	0029      	movs	r1, r5
10003ed6:	f001 fb4a 	bl	1000556e <__wrap___aeabi_dmul>
10003eda:	0004      	movs	r4, r0
10003edc:	0030      	movs	r0, r6
10003ede:	000d      	movs	r5, r1
10003ee0:	960f      	str	r6, [sp, #60]	; 0x3c
10003ee2:	f001 fbb5 	bl	10005650 <__wrap___aeabi_i2d>
10003ee6:	4a62      	ldr	r2, [pc, #392]	; (10004070 <_etoa+0x454>)
10003ee8:	4b62      	ldr	r3, [pc, #392]	; (10004074 <_etoa+0x458>)
10003eea:	f001 fb40 	bl	1000556e <__wrap___aeabi_dmul>
10003eee:	0002      	movs	r2, r0
10003ef0:	000b      	movs	r3, r1
10003ef2:	0020      	movs	r0, r4
10003ef4:	0029      	movs	r1, r5
10003ef6:	f001 fb0a 	bl	1000550e <__wrap___aeabi_dsub>
10003efa:	0002      	movs	r2, r0
10003efc:	000b      	movs	r3, r1
10003efe:	0006      	movs	r6, r0
10003f00:	000f      	movs	r7, r1
10003f02:	f001 fb34 	bl	1000556e <__wrap___aeabi_dmul>
10003f06:	0032      	movs	r2, r6
10003f08:	0004      	movs	r4, r0
10003f0a:	000d      	movs	r5, r1
10003f0c:	003b      	movs	r3, r7
10003f0e:	0030      	movs	r0, r6
10003f10:	0039      	movs	r1, r7
10003f12:	f001 fb05 	bl	10005520 <__wrap___aeabi_dadd>
10003f16:	2200      	movs	r2, #0
10003f18:	9010      	str	r0, [sp, #64]	; 0x40
10003f1a:	9111      	str	r1, [sp, #68]	; 0x44
10003f1c:	4b56      	ldr	r3, [pc, #344]	; (10004078 <_etoa+0x45c>)
10003f1e:	0020      	movs	r0, r4
10003f20:	0029      	movs	r1, r5
10003f22:	f001 fb06 	bl	10005532 <__wrap___aeabi_ddiv>
10003f26:	2200      	movs	r2, #0
10003f28:	4b54      	ldr	r3, [pc, #336]	; (1000407c <_etoa+0x460>)
10003f2a:	f001 faf9 	bl	10005520 <__wrap___aeabi_dadd>
10003f2e:	0002      	movs	r2, r0
10003f30:	000b      	movs	r3, r1
10003f32:	0020      	movs	r0, r4
10003f34:	0029      	movs	r1, r5
10003f36:	f001 fafc 	bl	10005532 <__wrap___aeabi_ddiv>
10003f3a:	2200      	movs	r2, #0
10003f3c:	4b50      	ldr	r3, [pc, #320]	; (10004080 <_etoa+0x464>)
10003f3e:	f001 faef 	bl	10005520 <__wrap___aeabi_dadd>
10003f42:	0002      	movs	r2, r0
10003f44:	000b      	movs	r3, r1
10003f46:	0020      	movs	r0, r4
10003f48:	0029      	movs	r1, r5
10003f4a:	f001 faf2 	bl	10005532 <__wrap___aeabi_ddiv>
10003f4e:	000d      	movs	r5, r1
10003f50:	2180      	movs	r1, #128	; 0x80
10003f52:	0032      	movs	r2, r6
10003f54:	003b      	movs	r3, r7
10003f56:	0004      	movs	r4, r0
10003f58:	05c9      	lsls	r1, r1, #23
10003f5a:	2000      	movs	r0, #0
10003f5c:	f001 fad7 	bl	1000550e <__wrap___aeabi_dsub>
10003f60:	0002      	movs	r2, r0
10003f62:	000b      	movs	r3, r1
10003f64:	0020      	movs	r0, r4
10003f66:	0029      	movs	r1, r5
10003f68:	f001 fada 	bl	10005520 <__wrap___aeabi_dadd>
10003f6c:	0002      	movs	r2, r0
10003f6e:	000b      	movs	r3, r1
10003f70:	9810      	ldr	r0, [sp, #64]	; 0x40
10003f72:	9911      	ldr	r1, [sp, #68]	; 0x44
10003f74:	f001 fadd 	bl	10005532 <__wrap___aeabi_ddiv>
10003f78:	2200      	movs	r2, #0
10003f7a:	4b34      	ldr	r3, [pc, #208]	; (1000404c <_etoa+0x430>)
10003f7c:	f001 fad0 	bl	10005520 <__wrap___aeabi_dadd>
10003f80:	4a40      	ldr	r2, [pc, #256]	; (10004084 <_etoa+0x468>)
10003f82:	9b0f      	ldr	r3, [sp, #60]	; 0x3c
10003f84:	4694      	mov	ip, r2
10003f86:	4463      	add	r3, ip
10003f88:	2200      	movs	r2, #0
10003f8a:	051b      	lsls	r3, r3, #20
10003f8c:	f001 faef 	bl	1000556e <__wrap___aeabi_dmul>
10003f90:	0006      	movs	r6, r0
10003f92:	000f      	movs	r7, r1
10003f94:	0002      	movs	r2, r0
10003f96:	000b      	movs	r3, r1
10003f98:	4648      	mov	r0, r9
10003f9a:	9909      	ldr	r1, [sp, #36]	; 0x24
10003f9c:	f001 fb2a 	bl	100055f4 <__wrap___aeabi_dcmplt>
10003fa0:	2800      	cmp	r0, #0
10003fa2:	d00a      	beq.n	10003fba <_etoa+0x39e>
10003fa4:	9b0d      	ldr	r3, [sp, #52]	; 0x34
10003fa6:	0030      	movs	r0, r6
10003fa8:	3b01      	subs	r3, #1
10003faa:	0039      	movs	r1, r7
10003fac:	930d      	str	r3, [sp, #52]	; 0x34
10003fae:	2200      	movs	r2, #0
10003fb0:	4b32      	ldr	r3, [pc, #200]	; (1000407c <_etoa+0x460>)
10003fb2:	f001 fabe 	bl	10005532 <__wrap___aeabi_ddiv>
10003fb6:	0006      	movs	r6, r0
10003fb8:	000f      	movs	r7, r1
10003fba:	25c6      	movs	r5, #198	; 0xc6
10003fbc:	990d      	ldr	r1, [sp, #52]	; 0x34
10003fbe:	0033      	movs	r3, r6
10003fc0:	3163      	adds	r1, #99	; 0x63
10003fc2:	428d      	cmp	r5, r1
10003fc4:	41ad      	sbcs	r5, r5
10003fc6:	9928      	ldr	r1, [sp, #160]	; 0xa0
10003fc8:	426d      	negs	r5, r5
10003fca:	3504      	adds	r5, #4
10003fcc:	0509      	lsls	r1, r1, #20
10003fce:	d400      	bmi.n	10003fd2 <_etoa+0x3b6>
10003fd0:	e683      	b.n	10003cda <_etoa+0xbe>
10003fd2:	433b      	orrs	r3, r7
10003fd4:	d100      	bne.n	10003fd8 <_etoa+0x3bc>
10003fd6:	e66f      	b.n	10003cb8 <_etoa+0x9c>
10003fd8:	9c09      	ldr	r4, [sp, #36]	; 0x24
10003fda:	4648      	mov	r0, r9
10003fdc:	0021      	movs	r1, r4
10003fde:	4a2a      	ldr	r2, [pc, #168]	; (10004088 <_etoa+0x46c>)
10003fe0:	4b2a      	ldr	r3, [pc, #168]	; (1000408c <_etoa+0x470>)
10003fe2:	f001 fb15 	bl	10005610 <__wrap___aeabi_dcmpge>
10003fe6:	2800      	cmp	r0, #0
10003fe8:	d008      	beq.n	10003ffc <_etoa+0x3e0>
10003fea:	2200      	movs	r2, #0
10003fec:	4648      	mov	r0, r9
10003fee:	0021      	movs	r1, r4
10003ff0:	4b27      	ldr	r3, [pc, #156]	; (10004090 <_etoa+0x474>)
10003ff2:	f001 faff 	bl	100055f4 <__wrap___aeabi_dcmplt>
10003ff6:	2800      	cmp	r0, #0
10003ff8:	d000      	beq.n	10003ffc <_etoa+0x3e0>
10003ffa:	e65d      	b.n	10003cb8 <_etoa+0x9c>
10003ffc:	9b26      	ldr	r3, [sp, #152]	; 0x98
10003ffe:	2b00      	cmp	r3, #0
10004000:	d100      	bne.n	10004004 <_etoa+0x3e8>
10004002:	e66a      	b.n	10003cda <_etoa+0xbe>
10004004:	9b0e      	ldr	r3, [sp, #56]	; 0x38
10004006:	1e5a      	subs	r2, r3, #1
10004008:	4193      	sbcs	r3, r2
1000400a:	9a26      	ldr	r2, [sp, #152]	; 0x98
1000400c:	1ad3      	subs	r3, r2, r3
1000400e:	9326      	str	r3, [sp, #152]	; 0x98
10004010:	e663      	b.n	10003cda <_etoa+0xbe>
10004012:	2300      	movs	r3, #0
10004014:	2504      	movs	r5, #4
10004016:	930d      	str	r3, [sp, #52]	; 0x34
10004018:	e65f      	b.n	10003cda <_etoa+0xbe>
1000401a:	2380      	movs	r3, #128	; 0x80
1000401c:	061b      	lsls	r3, r3, #24
1000401e:	4453      	add	r3, sl
10004020:	46c1      	mov	r9, r8
10004022:	9309      	str	r3, [sp, #36]	; 0x24
10004024:	e631      	b.n	10003c8a <_etoa+0x6e>
10004026:	2300      	movs	r3, #0
10004028:	9326      	str	r3, [sp, #152]	; 0x98
1000402a:	e64e      	b.n	10003cca <_etoa+0xae>
1000402c:	000a      	movs	r2, r1
1000402e:	4684      	mov	ip, r0
10004030:	3a01      	subs	r2, #1
10004032:	4462      	add	r2, ip
10004034:	1b12      	subs	r2, r2, r4
10004036:	e6ee      	b.n	10003e16 <_etoa+0x1fa>
10004038:	fffffc01 	.word	0xfffffc01
1000403c:	509f79fb 	.word	0x509f79fb
10004040:	3fd34413 	.word	0x3fd34413
10004044:	8b60c8b3 	.word	0x8b60c8b3
10004048:	3fc68a28 	.word	0x3fc68a28
1000404c:	3ff00000 	.word	0x3ff00000
10004050:	3ff80000 	.word	0x3ff80000
10004054:	636f4361 	.word	0x636f4361
10004058:	3fd287a7 	.word	0x3fd287a7
1000405c:	0979a371 	.word	0x0979a371
10004060:	400a934f 	.word	0x400a934f
10004064:	3fe00000 	.word	0x3fe00000
10004068:	bbb55516 	.word	0xbbb55516
1000406c:	40026bb1 	.word	0x40026bb1
10004070:	fefa39ef 	.word	0xfefa39ef
10004074:	3fe62e42 	.word	0x3fe62e42
10004078:	402c0000 	.word	0x402c0000
1000407c:	40240000 	.word	0x40240000
10004080:	40180000 	.word	0x40180000
10004084:	000003ff 	.word	0x000003ff
10004088:	eb1c432d 	.word	0xeb1c432d
1000408c:	3f1a36e2 	.word	0x3f1a36e2
10004090:	412e8480 	.word	0x412e8480

10004094 <_ftoa>:
10004094:	b5f0      	push	{r4, r5, r6, r7, lr}
10004096:	464e      	mov	r6, r9
10004098:	46de      	mov	lr, fp
1000409a:	4657      	mov	r7, sl
1000409c:	4645      	mov	r5, r8
1000409e:	b5e0      	push	{r5, r6, r7, lr}
100040a0:	b097      	sub	sp, #92	; 0x5c
100040a2:	4699      	mov	r9, r3
100040a4:	9e20      	ldr	r6, [sp, #128]	; 0x80
100040a6:	9f21      	ldr	r7, [sp, #132]	; 0x84
100040a8:	9b22      	ldr	r3, [sp, #136]	; 0x88
100040aa:	4683      	mov	fp, r0
100040ac:	4698      	mov	r8, r3
100040ae:	9107      	str	r1, [sp, #28]
100040b0:	920c      	str	r2, [sp, #48]	; 0x30
100040b2:	003b      	movs	r3, r7
100040b4:	0032      	movs	r2, r6
100040b6:	0030      	movs	r0, r6
100040b8:	0039      	movs	r1, r7
100040ba:	f001 fab6 	bl	1000562a <__wrap___aeabi_dcmpun>
100040be:	2800      	cmp	r0, #0
100040c0:	d000      	beq.n	100040c4 <_ftoa+0x30>
100040c2:	e1c1      	b.n	10004448 <_ftoa+0x3b4>
100040c4:	2201      	movs	r2, #1
100040c6:	0030      	movs	r0, r6
100040c8:	0039      	movs	r1, r7
100040ca:	4bca      	ldr	r3, [pc, #808]	; (100043f4 <_ftoa+0x360>)
100040cc:	4252      	negs	r2, r2
100040ce:	f001 fa91 	bl	100055f4 <__wrap___aeabi_dcmplt>
100040d2:	2800      	cmp	r0, #0
100040d4:	d000      	beq.n	100040d8 <_ftoa+0x44>
100040d6:	e0e0      	b.n	1000429a <_ftoa+0x206>
100040d8:	2201      	movs	r2, #1
100040da:	0030      	movs	r0, r6
100040dc:	0039      	movs	r1, r7
100040de:	4bc6      	ldr	r3, [pc, #792]	; (100043f8 <_ftoa+0x364>)
100040e0:	4252      	negs	r2, r2
100040e2:	f001 fa9d 	bl	10005620 <__wrap___aeabi_dcmpgt>
100040e6:	2800      	cmp	r0, #0
100040e8:	d000      	beq.n	100040ec <_ftoa+0x58>
100040ea:	e0b6      	b.n	1000425a <_ftoa+0x1c6>
100040ec:	2200      	movs	r2, #0
100040ee:	0030      	movs	r0, r6
100040f0:	0039      	movs	r1, r7
100040f2:	4bc2      	ldr	r3, [pc, #776]	; (100043fc <_ftoa+0x368>)
100040f4:	f001 fa94 	bl	10005620 <__wrap___aeabi_dcmpgt>
100040f8:	2800      	cmp	r0, #0
100040fa:	d000      	beq.n	100040fe <_ftoa+0x6a>
100040fc:	e098      	b.n	10004230 <_ftoa+0x19c>
100040fe:	2200      	movs	r2, #0
10004100:	0030      	movs	r0, r6
10004102:	0039      	movs	r1, r7
10004104:	4bbe      	ldr	r3, [pc, #760]	; (10004400 <_ftoa+0x36c>)
10004106:	f001 fa75 	bl	100055f4 <__wrap___aeabi_dcmplt>
1000410a:	2800      	cmp	r0, #0
1000410c:	d000      	beq.n	10004110 <_ftoa+0x7c>
1000410e:	e08f      	b.n	10004230 <_ftoa+0x19c>
10004110:	2200      	movs	r2, #0
10004112:	2300      	movs	r3, #0
10004114:	0030      	movs	r0, r6
10004116:	0039      	movs	r1, r7
10004118:	f001 fa6c 	bl	100055f4 <__wrap___aeabi_dcmplt>
1000411c:	2800      	cmp	r0, #0
1000411e:	d000      	beq.n	10004122 <_ftoa+0x8e>
10004120:	e0b0      	b.n	10004284 <_ftoa+0x1f0>
10004122:	2300      	movs	r3, #0
10004124:	930d      	str	r3, [sp, #52]	; 0x34
10004126:	9b24      	ldr	r3, [sp, #144]	; 0x90
10004128:	055b      	lsls	r3, r3, #21
1000412a:	d401      	bmi.n	10004130 <_ftoa+0x9c>
1000412c:	2306      	movs	r3, #6
1000412e:	4698      	mov	r8, r3
10004130:	ab08      	add	r3, sp, #32
10004132:	469c      	mov	ip, r3
10004134:	2217      	movs	r2, #23
10004136:	2400      	movs	r4, #0
10004138:	2330      	movs	r3, #48	; 0x30
1000413a:	4641      	mov	r1, r8
1000413c:	4462      	add	r2, ip
1000413e:	e004      	b.n	1000414a <_ftoa+0xb6>
10004140:	3401      	adds	r4, #1
10004142:	5513      	strb	r3, [r2, r4]
10004144:	3901      	subs	r1, #1
10004146:	2c20      	cmp	r4, #32
10004148:	d001      	beq.n	1000414e <_ftoa+0xba>
1000414a:	2909      	cmp	r1, #9
1000414c:	d8f8      	bhi.n	10004140 <_ftoa+0xac>
1000414e:	4688      	mov	r8, r1
10004150:	0030      	movs	r0, r6
10004152:	0039      	movs	r1, r7
10004154:	f001 fa94 	bl	10005680 <__wrap___aeabi_d2iz>
10004158:	4643      	mov	r3, r8
1000415a:	00da      	lsls	r2, r3, #3
1000415c:	4ba9      	ldr	r3, [pc, #676]	; (10004404 <_ftoa+0x370>)
1000415e:	0005      	movs	r5, r0
10004160:	189b      	adds	r3, r3, r2
10004162:	681a      	ldr	r2, [r3, #0]
10004164:	685b      	ldr	r3, [r3, #4]
10004166:	9208      	str	r2, [sp, #32]
10004168:	9309      	str	r3, [sp, #36]	; 0x24
1000416a:	f001 fa71 	bl	10005650 <__wrap___aeabi_i2d>
1000416e:	0002      	movs	r2, r0
10004170:	000b      	movs	r3, r1
10004172:	0030      	movs	r0, r6
10004174:	0039      	movs	r1, r7
10004176:	f001 f9ca 	bl	1000550e <__wrap___aeabi_dsub>
1000417a:	9a08      	ldr	r2, [sp, #32]
1000417c:	9b09      	ldr	r3, [sp, #36]	; 0x24
1000417e:	f001 f9f6 	bl	1000556e <__wrap___aeabi_dmul>
10004182:	900a      	str	r0, [sp, #40]	; 0x28
10004184:	910b      	str	r1, [sp, #44]	; 0x2c
10004186:	f001 fa9f 	bl	100056c8 <__wrap___aeabi_d2uiz>
1000418a:	4682      	mov	sl, r0
1000418c:	f001 fa5c 	bl	10005648 <__wrap___aeabi_ui2d>
10004190:	0002      	movs	r2, r0
10004192:	000b      	movs	r3, r1
10004194:	980a      	ldr	r0, [sp, #40]	; 0x28
10004196:	990b      	ldr	r1, [sp, #44]	; 0x2c
10004198:	f001 f9b9 	bl	1000550e <__wrap___aeabi_dsub>
1000419c:	2200      	movs	r2, #0
1000419e:	4b9a      	ldr	r3, [pc, #616]	; (10004408 <_ftoa+0x374>)
100041a0:	900a      	str	r0, [sp, #40]	; 0x28
100041a2:	910b      	str	r1, [sp, #44]	; 0x2c
100041a4:	f001 fa3c 	bl	10005620 <__wrap___aeabi_dcmpgt>
100041a8:	2800      	cmp	r0, #0
100041aa:	d100      	bne.n	100041ae <_ftoa+0x11a>
100041ac:	e0c0      	b.n	10004330 <_ftoa+0x29c>
100041ae:	2301      	movs	r3, #1
100041b0:	469c      	mov	ip, r3
100041b2:	44e2      	add	sl, ip
100041b4:	4650      	mov	r0, sl
100041b6:	f001 fa47 	bl	10005648 <__wrap___aeabi_ui2d>
100041ba:	0002      	movs	r2, r0
100041bc:	000b      	movs	r3, r1
100041be:	9808      	ldr	r0, [sp, #32]
100041c0:	9909      	ldr	r1, [sp, #36]	; 0x24
100041c2:	f001 fa1d 	bl	10005600 <__wrap___aeabi_dcmple>
100041c6:	2800      	cmp	r0, #0
100041c8:	d002      	beq.n	100041d0 <_ftoa+0x13c>
100041ca:	2300      	movs	r3, #0
100041cc:	469a      	mov	sl, r3
100041ce:	3501      	adds	r5, #1
100041d0:	4643      	mov	r3, r8
100041d2:	2b00      	cmp	r3, #0
100041d4:	d069      	beq.n	100042aa <_ftoa+0x216>
100041d6:	ab08      	add	r3, sp, #32
100041d8:	2617      	movs	r6, #23
100041da:	469c      	mov	ip, r3
100041dc:	9508      	str	r5, [sp, #32]
100041de:	4466      	add	r6, ip
100041e0:	4655      	mov	r5, sl
100041e2:	e014      	b.n	1000420e <_ftoa+0x17a>
100041e4:	2301      	movs	r3, #1
100041e6:	425b      	negs	r3, r3
100041e8:	4443      	add	r3, r8
100041ea:	210a      	movs	r1, #10
100041ec:	0028      	movs	r0, r5
100041ee:	469a      	mov	sl, r3
100041f0:	f000 ff4a 	bl	10005088 <__wrap___aeabi_uidiv>
100041f4:	3401      	adds	r4, #1
100041f6:	3130      	adds	r1, #48	; 0x30
100041f8:	1937      	adds	r7, r6, r4
100041fa:	7039      	strb	r1, [r7, #0]
100041fc:	0028      	movs	r0, r5
100041fe:	210a      	movs	r1, #10
10004200:	f000 ff42 	bl	10005088 <__wrap___aeabi_uidiv>
10004204:	2d09      	cmp	r5, #9
10004206:	d800      	bhi.n	1000420a <_ftoa+0x176>
10004208:	e0d5      	b.n	100043b6 <_ftoa+0x322>
1000420a:	46d0      	mov	r8, sl
1000420c:	0005      	movs	r5, r0
1000420e:	2c20      	cmp	r4, #32
10004210:	d1e8      	bne.n	100041e4 <_ftoa+0x150>
10004212:	2303      	movs	r3, #3
10004214:	9a24      	ldr	r2, [sp, #144]	; 0x90
10004216:	4013      	ands	r3, r2
10004218:	2b01      	cmp	r3, #1
1000421a:	d100      	bne.n	1000421e <_ftoa+0x18a>
1000421c:	e100      	b.n	10004420 <_ftoa+0x38c>
1000421e:	ab0e      	add	r3, sp, #56	; 0x38
10004220:	4698      	mov	r8, r3
10004222:	9b24      	ldr	r3, [sp, #144]	; 0x90
10004224:	9401      	str	r4, [sp, #4]
10004226:	9303      	str	r3, [sp, #12]
10004228:	9b23      	ldr	r3, [sp, #140]	; 0x8c
1000422a:	9302      	str	r3, [sp, #8]
1000422c:	4643      	mov	r3, r8
1000422e:	e01e      	b.n	1000426e <_ftoa+0x1da>
10004230:	9b24      	ldr	r3, [sp, #144]	; 0x90
10004232:	4658      	mov	r0, fp
10004234:	9304      	str	r3, [sp, #16]
10004236:	9b23      	ldr	r3, [sp, #140]	; 0x8c
10004238:	9600      	str	r6, [sp, #0]
1000423a:	9701      	str	r7, [sp, #4]
1000423c:	9303      	str	r3, [sp, #12]
1000423e:	4643      	mov	r3, r8
10004240:	9a0c      	ldr	r2, [sp, #48]	; 0x30
10004242:	9302      	str	r3, [sp, #8]
10004244:	9907      	ldr	r1, [sp, #28]
10004246:	464b      	mov	r3, r9
10004248:	f7ff fce8 	bl	10003c1c <_etoa>
1000424c:	b017      	add	sp, #92	; 0x5c
1000424e:	bc3c      	pop	{r2, r3, r4, r5}
10004250:	4690      	mov	r8, r2
10004252:	4699      	mov	r9, r3
10004254:	46a2      	mov	sl, r4
10004256:	46ab      	mov	fp, r5
10004258:	bdf0      	pop	{r4, r5, r6, r7, pc}
1000425a:	9b24      	ldr	r3, [sp, #144]	; 0x90
1000425c:	075b      	lsls	r3, r3, #29
1000425e:	d40e      	bmi.n	1000427e <_ftoa+0x1ea>
10004260:	2203      	movs	r2, #3
10004262:	4b6a      	ldr	r3, [pc, #424]	; (1000440c <_ftoa+0x378>)
10004264:	9924      	ldr	r1, [sp, #144]	; 0x90
10004266:	9201      	str	r2, [sp, #4]
10004268:	9103      	str	r1, [sp, #12]
1000426a:	9923      	ldr	r1, [sp, #140]	; 0x8c
1000426c:	9102      	str	r1, [sp, #8]
1000426e:	9300      	str	r3, [sp, #0]
10004270:	4658      	mov	r0, fp
10004272:	464b      	mov	r3, r9
10004274:	9a0c      	ldr	r2, [sp, #48]	; 0x30
10004276:	9907      	ldr	r1, [sp, #28]
10004278:	f7ff fb70 	bl	1000395c <_out_rev>
1000427c:	e7e6      	b.n	1000424c <_ftoa+0x1b8>
1000427e:	2204      	movs	r2, #4
10004280:	4b63      	ldr	r3, [pc, #396]	; (10004410 <_ftoa+0x37c>)
10004282:	e7ef      	b.n	10004264 <_ftoa+0x1d0>
10004284:	003b      	movs	r3, r7
10004286:	0032      	movs	r2, r6
10004288:	2000      	movs	r0, #0
1000428a:	2100      	movs	r1, #0
1000428c:	f001 f93f 	bl	1000550e <__wrap___aeabi_dsub>
10004290:	2301      	movs	r3, #1
10004292:	0006      	movs	r6, r0
10004294:	000f      	movs	r7, r1
10004296:	930d      	str	r3, [sp, #52]	; 0x34
10004298:	e745      	b.n	10004126 <_ftoa+0x92>
1000429a:	9b24      	ldr	r3, [sp, #144]	; 0x90
1000429c:	9303      	str	r3, [sp, #12]
1000429e:	9b23      	ldr	r3, [sp, #140]	; 0x8c
100042a0:	9302      	str	r3, [sp, #8]
100042a2:	2304      	movs	r3, #4
100042a4:	9301      	str	r3, [sp, #4]
100042a6:	4b5b      	ldr	r3, [pc, #364]	; (10004414 <_ftoa+0x380>)
100042a8:	e7e1      	b.n	1000426e <_ftoa+0x1da>
100042aa:	0028      	movs	r0, r5
100042ac:	f001 f9d0 	bl	10005650 <__wrap___aeabi_i2d>
100042b0:	0002      	movs	r2, r0
100042b2:	000b      	movs	r3, r1
100042b4:	0030      	movs	r0, r6
100042b6:	0039      	movs	r1, r7
100042b8:	f001 f929 	bl	1000550e <__wrap___aeabi_dsub>
100042bc:	4b52      	ldr	r3, [pc, #328]	; (10004408 <_ftoa+0x374>)
100042be:	2200      	movs	r2, #0
100042c0:	0006      	movs	r6, r0
100042c2:	000f      	movs	r7, r1
100042c4:	f001 f996 	bl	100055f4 <__wrap___aeabi_dcmplt>
100042c8:	ab0e      	add	r3, sp, #56	; 0x38
100042ca:	4698      	mov	r8, r3
100042cc:	2800      	cmp	r0, #0
100042ce:	d10a      	bne.n	100042e6 <_ftoa+0x252>
100042d0:	2200      	movs	r2, #0
100042d2:	0030      	movs	r0, r6
100042d4:	0039      	movs	r1, r7
100042d6:	4b4c      	ldr	r3, [pc, #304]	; (10004408 <_ftoa+0x374>)
100042d8:	f001 f9a2 	bl	10005620 <__wrap___aeabi_dcmpgt>
100042dc:	2800      	cmp	r0, #0
100042de:	d102      	bne.n	100042e6 <_ftoa+0x252>
100042e0:	07eb      	lsls	r3, r5, #31
100042e2:	d500      	bpl.n	100042e6 <_ftoa+0x252>
100042e4:	3501      	adds	r5, #1
100042e6:	2c20      	cmp	r4, #32
100042e8:	d032      	beq.n	10004350 <_ftoa+0x2bc>
100042ea:	aa08      	add	r2, sp, #32
100042ec:	4694      	mov	ip, r2
100042ee:	2317      	movs	r3, #23
100042f0:	0028      	movs	r0, r5
100042f2:	4463      	add	r3, ip
100042f4:	210a      	movs	r1, #10
100042f6:	3401      	adds	r4, #1
100042f8:	191e      	adds	r6, r3, r4
100042fa:	f000 fe9d 	bl	10005038 <__wrap___aeabi_idiv>
100042fe:	3130      	adds	r1, #48	; 0x30
10004300:	0028      	movs	r0, r5
10004302:	7031      	strb	r1, [r6, #0]
10004304:	210a      	movs	r1, #10
10004306:	f000 fe97 	bl	10005038 <__wrap___aeabi_idiv>
1000430a:	1e05      	subs	r5, r0, #0
1000430c:	d1eb      	bne.n	100042e6 <_ftoa+0x252>
1000430e:	2303      	movs	r3, #3
10004310:	9a24      	ldr	r2, [sp, #144]	; 0x90
10004312:	4013      	ands	r3, r2
10004314:	2b01      	cmp	r3, #1
10004316:	d100      	bne.n	1000431a <_ftoa+0x286>
10004318:	e091      	b.n	1000443e <_ftoa+0x3aa>
1000431a:	2c1f      	cmp	r4, #31
1000431c:	d900      	bls.n	10004320 <_ftoa+0x28c>
1000431e:	e780      	b.n	10004222 <_ftoa+0x18e>
10004320:	9b0d      	ldr	r3, [sp, #52]	; 0x34
10004322:	2b00      	cmp	r3, #0
10004324:	d03b      	beq.n	1000439e <_ftoa+0x30a>
10004326:	232d      	movs	r3, #45	; 0x2d
10004328:	4642      	mov	r2, r8
1000432a:	5513      	strb	r3, [r2, r4]
1000432c:	3401      	adds	r4, #1
1000432e:	e778      	b.n	10004222 <_ftoa+0x18e>
10004330:	2200      	movs	r2, #0
10004332:	980a      	ldr	r0, [sp, #40]	; 0x28
10004334:	990b      	ldr	r1, [sp, #44]	; 0x2c
10004336:	4b34      	ldr	r3, [pc, #208]	; (10004408 <_ftoa+0x374>)
10004338:	f001 f95c 	bl	100055f4 <__wrap___aeabi_dcmplt>
1000433c:	2800      	cmp	r0, #0
1000433e:	d000      	beq.n	10004342 <_ftoa+0x2ae>
10004340:	e746      	b.n	100041d0 <_ftoa+0x13c>
10004342:	4653      	mov	r3, sl
10004344:	2b00      	cmp	r3, #0
10004346:	d167      	bne.n	10004418 <_ftoa+0x384>
10004348:	2301      	movs	r3, #1
1000434a:	469c      	mov	ip, r3
1000434c:	44e2      	add	sl, ip
1000434e:	e73f      	b.n	100041d0 <_ftoa+0x13c>
10004350:	2303      	movs	r3, #3
10004352:	9a24      	ldr	r2, [sp, #144]	; 0x90
10004354:	4013      	ands	r3, r2
10004356:	2b01      	cmp	r3, #1
10004358:	d000      	beq.n	1000435c <_ftoa+0x2c8>
1000435a:	e762      	b.n	10004222 <_ftoa+0x18e>
1000435c:	9b23      	ldr	r3, [sp, #140]	; 0x8c
1000435e:	2b00      	cmp	r3, #0
10004360:	d100      	bne.n	10004364 <_ftoa+0x2d0>
10004362:	e75e      	b.n	10004222 <_ftoa+0x18e>
10004364:	9b0d      	ldr	r3, [sp, #52]	; 0x34
10004366:	2b00      	cmp	r3, #0
10004368:	d103      	bne.n	10004372 <_ftoa+0x2de>
1000436a:	9a24      	ldr	r2, [sp, #144]	; 0x90
1000436c:	330c      	adds	r3, #12
1000436e:	4213      	tst	r3, r2
10004370:	d002      	beq.n	10004378 <_ftoa+0x2e4>
10004372:	9b23      	ldr	r3, [sp, #140]	; 0x8c
10004374:	3b01      	subs	r3, #1
10004376:	9323      	str	r3, [sp, #140]	; 0x8c
10004378:	9b23      	ldr	r3, [sp, #140]	; 0x8c
1000437a:	429c      	cmp	r4, r3
1000437c:	d2cd      	bcs.n	1000431a <_ftoa+0x286>
1000437e:	ab08      	add	r3, sp, #32
10004380:	469c      	mov	ip, r3
10004382:	2217      	movs	r2, #23
10004384:	2330      	movs	r3, #48	; 0x30
10004386:	4462      	add	r2, ip
10004388:	2c1f      	cmp	r4, #31
1000438a:	d806      	bhi.n	1000439a <_ftoa+0x306>
1000438c:	9923      	ldr	r1, [sp, #140]	; 0x8c
1000438e:	3401      	adds	r4, #1
10004390:	5513      	strb	r3, [r2, r4]
10004392:	428c      	cmp	r4, r1
10004394:	d0c1      	beq.n	1000431a <_ftoa+0x286>
10004396:	2c20      	cmp	r4, #32
10004398:	d1f8      	bne.n	1000438c <_ftoa+0x2f8>
1000439a:	2420      	movs	r4, #32
1000439c:	e741      	b.n	10004222 <_ftoa+0x18e>
1000439e:	9b24      	ldr	r3, [sp, #144]	; 0x90
100043a0:	075b      	lsls	r3, r3, #29
100043a2:	d421      	bmi.n	100043e8 <_ftoa+0x354>
100043a4:	9b24      	ldr	r3, [sp, #144]	; 0x90
100043a6:	071b      	lsls	r3, r3, #28
100043a8:	d400      	bmi.n	100043ac <_ftoa+0x318>
100043aa:	e73a      	b.n	10004222 <_ftoa+0x18e>
100043ac:	2320      	movs	r3, #32
100043ae:	4642      	mov	r2, r8
100043b0:	5513      	strb	r3, [r2, r4]
100043b2:	3401      	adds	r4, #1
100043b4:	e735      	b.n	10004222 <_ftoa+0x18e>
100043b6:	4657      	mov	r7, sl
100043b8:	9d08      	ldr	r5, [sp, #32]
100043ba:	2c20      	cmp	r4, #32
100043bc:	d037      	beq.n	1000442e <_ftoa+0x39a>
100043be:	0022      	movs	r2, r4
100043c0:	2130      	movs	r1, #48	; 0x30
100043c2:	4640      	mov	r0, r8
100043c4:	2f00      	cmp	r7, #0
100043c6:	d008      	beq.n	100043da <_ftoa+0x346>
100043c8:	3201      	adds	r2, #1
100043ca:	54b1      	strb	r1, [r6, r2]
100043cc:	2a20      	cmp	r2, #32
100043ce:	d043      	beq.n	10004458 <_ftoa+0x3c4>
100043d0:	43d3      	mvns	r3, r2
100043d2:	191b      	adds	r3, r3, r4
100043d4:	181b      	adds	r3, r3, r0
100043d6:	2b00      	cmp	r3, #0
100043d8:	d1f6      	bne.n	100043c8 <_ftoa+0x334>
100043da:	ab0e      	add	r3, sp, #56	; 0x38
100043dc:	4698      	mov	r8, r3
100043de:	232e      	movs	r3, #46	; 0x2e
100043e0:	4641      	mov	r1, r8
100043e2:	1c54      	adds	r4, r2, #1
100043e4:	548b      	strb	r3, [r1, r2]
100043e6:	e77e      	b.n	100042e6 <_ftoa+0x252>
100043e8:	232b      	movs	r3, #43	; 0x2b
100043ea:	4642      	mov	r2, r8
100043ec:	5513      	strb	r3, [r2, r4]
100043ee:	3401      	adds	r4, #1
100043f0:	e717      	b.n	10004222 <_ftoa+0x18e>
100043f2:	46c0      	nop			; (mov r8, r8)
100043f4:	ffefffff 	.word	0xffefffff
100043f8:	7fefffff 	.word	0x7fefffff
100043fc:	41cdcd65 	.word	0x41cdcd65
10004400:	c1cdcd65 	.word	0xc1cdcd65
10004404:	10009c28 	.word	0x10009c28
10004408:	3fe00000 	.word	0x3fe00000
1000440c:	10009a30 	.word	0x10009a30
10004410:	10009a34 	.word	0x10009a34
10004414:	10009a40 	.word	0x10009a40
10004418:	07db      	lsls	r3, r3, #31
1000441a:	d400      	bmi.n	1000441e <_ftoa+0x38a>
1000441c:	e6d8      	b.n	100041d0 <_ftoa+0x13c>
1000441e:	e793      	b.n	10004348 <_ftoa+0x2b4>
10004420:	9b23      	ldr	r3, [sp, #140]	; 0x8c
10004422:	2b00      	cmp	r3, #0
10004424:	d100      	bne.n	10004428 <_ftoa+0x394>
10004426:	e6fa      	b.n	1000421e <_ftoa+0x18a>
10004428:	ab0e      	add	r3, sp, #56	; 0x38
1000442a:	4698      	mov	r8, r3
1000442c:	e79a      	b.n	10004364 <_ftoa+0x2d0>
1000442e:	2303      	movs	r3, #3
10004430:	9a24      	ldr	r2, [sp, #144]	; 0x90
10004432:	4013      	ands	r3, r2
10004434:	2b01      	cmp	r3, #1
10004436:	d000      	beq.n	1000443a <_ftoa+0x3a6>
10004438:	e6f1      	b.n	1000421e <_ftoa+0x18a>
1000443a:	ab0e      	add	r3, sp, #56	; 0x38
1000443c:	4698      	mov	r8, r3
1000443e:	9b23      	ldr	r3, [sp, #140]	; 0x8c
10004440:	2b00      	cmp	r3, #0
10004442:	d100      	bne.n	10004446 <_ftoa+0x3b2>
10004444:	e769      	b.n	1000431a <_ftoa+0x286>
10004446:	e78d      	b.n	10004364 <_ftoa+0x2d0>
10004448:	9b24      	ldr	r3, [sp, #144]	; 0x90
1000444a:	9303      	str	r3, [sp, #12]
1000444c:	9b23      	ldr	r3, [sp, #140]	; 0x8c
1000444e:	9302      	str	r3, [sp, #8]
10004450:	2303      	movs	r3, #3
10004452:	9301      	str	r3, [sp, #4]
10004454:	4b06      	ldr	r3, [pc, #24]	; (10004470 <_ftoa+0x3dc>)
10004456:	e70a      	b.n	1000426e <_ftoa+0x1da>
10004458:	2303      	movs	r3, #3
1000445a:	9a24      	ldr	r2, [sp, #144]	; 0x90
1000445c:	2420      	movs	r4, #32
1000445e:	4013      	ands	r3, r2
10004460:	2b01      	cmp	r3, #1
10004462:	d000      	beq.n	10004466 <_ftoa+0x3d2>
10004464:	e6db      	b.n	1000421e <_ftoa+0x18a>
10004466:	9b23      	ldr	r3, [sp, #140]	; 0x8c
10004468:	2420      	movs	r4, #32
1000446a:	2b00      	cmp	r3, #0
1000446c:	d1dc      	bne.n	10004428 <_ftoa+0x394>
1000446e:	e6d6      	b.n	1000421e <_ftoa+0x18a>
10004470:	10009a3c 	.word	0x10009a3c

10004474 <_vsnprintf>:
10004474:	b5f0      	push	{r4, r5, r6, r7, lr}
10004476:	46de      	mov	lr, fp
10004478:	464e      	mov	r6, r9
1000447a:	4657      	mov	r7, sl
1000447c:	4645      	mov	r5, r8
1000447e:	b5e0      	push	{r5, r6, r7, lr}
10004480:	b09f      	sub	sp, #124	; 0x7c
10004482:	001c      	movs	r4, r3
10004484:	9b28      	ldr	r3, [sp, #160]	; 0xa0
10004486:	4693      	mov	fp, r2
10004488:	9309      	str	r3, [sp, #36]	; 0x24
1000448a:	4acf      	ldr	r2, [pc, #828]	; (100047c8 <_vsnprintf+0x354>)
1000448c:	4bcf      	ldr	r3, [pc, #828]	; (100047cc <_vsnprintf+0x358>)
1000448e:	4689      	mov	r9, r1
10004490:	9008      	str	r0, [sp, #32]
10004492:	601a      	str	r2, [r3, #0]
10004494:	2900      	cmp	r1, #0
10004496:	d100      	bne.n	1000449a <_vsnprintf+0x26>
10004498:	e216      	b.n	100048c8 <_vsnprintf+0x454>
1000449a:	2300      	movs	r3, #0
1000449c:	7820      	ldrb	r0, [r4, #0]
1000449e:	469a      	mov	sl, r3
100044a0:	2800      	cmp	r0, #0
100044a2:	d100      	bne.n	100044a6 <_vsnprintf+0x32>
100044a4:	e218      	b.n	100048d8 <_vsnprintf+0x464>
100044a6:	0026      	movs	r6, r4
100044a8:	001d      	movs	r5, r3
100044aa:	464c      	mov	r4, r9
100044ac:	e00a      	b.n	100044c4 <_vsnprintf+0x50>
100044ae:	002a      	movs	r2, r5
100044b0:	1c6f      	adds	r7, r5, #1
100044b2:	465b      	mov	r3, fp
100044b4:	9d08      	ldr	r5, [sp, #32]
100044b6:	0021      	movs	r1, r4
100044b8:	47a8      	blx	r5
100044ba:	003d      	movs	r5, r7
100044bc:	3601      	adds	r6, #1
100044be:	7830      	ldrb	r0, [r6, #0]
100044c0:	2800      	cmp	r0, #0
100044c2:	d07a      	beq.n	100045ba <_vsnprintf+0x146>
100044c4:	2825      	cmp	r0, #37	; 0x25
100044c6:	d1f2      	bne.n	100044ae <_vsnprintf+0x3a>
100044c8:	2310      	movs	r3, #16
100044ca:	469a      	mov	sl, r3
100044cc:	3b08      	subs	r3, #8
100044ce:	4699      	mov	r9, r3
100044d0:	3b04      	subs	r3, #4
100044d2:	4698      	mov	r8, r3
100044d4:	3b02      	subs	r3, #2
100044d6:	2100      	movs	r1, #0
100044d8:	469c      	mov	ip, r3
100044da:	1c72      	adds	r2, r6, #1
100044dc:	7810      	ldrb	r0, [r2, #0]
100044de:	0016      	movs	r6, r2
100044e0:	0003      	movs	r3, r0
100044e2:	3b20      	subs	r3, #32
100044e4:	b2db      	uxtb	r3, r3
100044e6:	2b10      	cmp	r3, #16
100044e8:	d803      	bhi.n	100044f2 <_vsnprintf+0x7e>
100044ea:	4fb9      	ldr	r7, [pc, #740]	; (100047d0 <_vsnprintf+0x35c>)
100044ec:	009b      	lsls	r3, r3, #2
100044ee:	58fb      	ldr	r3, [r7, r3]
100044f0:	469f      	mov	pc, r3
100044f2:	0003      	movs	r3, r0
100044f4:	3b30      	subs	r3, #48	; 0x30
100044f6:	2b09      	cmp	r3, #9
100044f8:	d93c      	bls.n	10004574 <_vsnprintf+0x100>
100044fa:	2300      	movs	r3, #0
100044fc:	930a      	str	r3, [sp, #40]	; 0x28
100044fe:	282a      	cmp	r0, #42	; 0x2a
10004500:	d100      	bne.n	10004504 <_vsnprintf+0x90>
10004502:	e071      	b.n	100045e8 <_vsnprintf+0x174>
10004504:	2300      	movs	r3, #0
10004506:	4698      	mov	r8, r3
10004508:	282e      	cmp	r0, #46	; 0x2e
1000450a:	d047      	beq.n	1000459c <_vsnprintf+0x128>
1000450c:	0003      	movs	r3, r0
1000450e:	3b68      	subs	r3, #104	; 0x68
10004510:	b2db      	uxtb	r3, r3
10004512:	2b12      	cmp	r3, #18
10004514:	d81f      	bhi.n	10004556 <_vsnprintf+0xe2>
10004516:	4aaf      	ldr	r2, [pc, #700]	; (100047d4 <_vsnprintf+0x360>)
10004518:	009b      	lsls	r3, r3, #2
1000451a:	58d3      	ldr	r3, [r2, r3]
1000451c:	469f      	mov	pc, r3
1000451e:	2301      	movs	r3, #1
10004520:	3201      	adds	r2, #1
10004522:	4319      	orrs	r1, r3
10004524:	e7da      	b.n	100044dc <_vsnprintf+0x68>
10004526:	4663      	mov	r3, ip
10004528:	3201      	adds	r2, #1
1000452a:	4319      	orrs	r1, r3
1000452c:	e7d6      	b.n	100044dc <_vsnprintf+0x68>
1000452e:	4643      	mov	r3, r8
10004530:	3201      	adds	r2, #1
10004532:	4319      	orrs	r1, r3
10004534:	e7d2      	b.n	100044dc <_vsnprintf+0x68>
10004536:	4653      	mov	r3, sl
10004538:	3201      	adds	r2, #1
1000453a:	4319      	orrs	r1, r3
1000453c:	e7ce      	b.n	100044dc <_vsnprintf+0x68>
1000453e:	464b      	mov	r3, r9
10004540:	3201      	adds	r2, #1
10004542:	4319      	orrs	r1, r3
10004544:	e7ca      	b.n	100044dc <_vsnprintf+0x68>
10004546:	7870      	ldrb	r0, [r6, #1]
10004548:	286c      	cmp	r0, #108	; 0x6c
1000454a:	d100      	bne.n	1000454e <_vsnprintf+0xda>
1000454c:	e2bf      	b.n	10004ace <_vsnprintf+0x65a>
1000454e:	2380      	movs	r3, #128	; 0x80
10004550:	005b      	lsls	r3, r3, #1
10004552:	4319      	orrs	r1, r3
10004554:	3601      	adds	r6, #1
10004556:	0003      	movs	r3, r0
10004558:	3b25      	subs	r3, #37	; 0x25
1000455a:	b2db      	uxtb	r3, r3
1000455c:	2b53      	cmp	r3, #83	; 0x53
1000455e:	d8a6      	bhi.n	100044ae <_vsnprintf+0x3a>
10004560:	4a9d      	ldr	r2, [pc, #628]	; (100047d8 <_vsnprintf+0x364>)
10004562:	009b      	lsls	r3, r3, #2
10004564:	58d3      	ldr	r3, [r2, r3]
10004566:	469f      	mov	pc, r3
10004568:	2380      	movs	r3, #128	; 0x80
1000456a:	005b      	lsls	r3, r3, #1
1000456c:	7870      	ldrb	r0, [r6, #1]
1000456e:	4319      	orrs	r1, r3
10004570:	3601      	adds	r6, #1
10004572:	e7f0      	b.n	10004556 <_vsnprintf+0xe2>
10004574:	2700      	movs	r7, #0
10004576:	0003      	movs	r3, r0
10004578:	00b8      	lsls	r0, r7, #2
1000457a:	19c0      	adds	r0, r0, r7
1000457c:	3601      	adds	r6, #1
1000457e:	0040      	lsls	r0, r0, #1
10004580:	18c0      	adds	r0, r0, r3
10004582:	7833      	ldrb	r3, [r6, #0]
10004584:	3830      	subs	r0, #48	; 0x30
10004586:	001a      	movs	r2, r3
10004588:	3a30      	subs	r2, #48	; 0x30
1000458a:	0007      	movs	r7, r0
1000458c:	2a09      	cmp	r2, #9
1000458e:	d9f3      	bls.n	10004578 <_vsnprintf+0x104>
10004590:	900a      	str	r0, [sp, #40]	; 0x28
10004592:	0018      	movs	r0, r3
10004594:	2300      	movs	r3, #0
10004596:	4698      	mov	r8, r3
10004598:	282e      	cmp	r0, #46	; 0x2e
1000459a:	d1b7      	bne.n	1000450c <_vsnprintf+0x98>
1000459c:	2380      	movs	r3, #128	; 0x80
1000459e:	7870      	ldrb	r0, [r6, #1]
100045a0:	00db      	lsls	r3, r3, #3
100045a2:	4319      	orrs	r1, r3
100045a4:	0003      	movs	r3, r0
100045a6:	3b30      	subs	r3, #48	; 0x30
100045a8:	1c72      	adds	r2, r6, #1
100045aa:	2b09      	cmp	r3, #9
100045ac:	d800      	bhi.n	100045b0 <_vsnprintf+0x13c>
100045ae:	e195      	b.n	100048dc <_vsnprintf+0x468>
100045b0:	282a      	cmp	r0, #42	; 0x2a
100045b2:	d100      	bne.n	100045b6 <_vsnprintf+0x142>
100045b4:	e1a6      	b.n	10004904 <_vsnprintf+0x490>
100045b6:	0016      	movs	r6, r2
100045b8:	e7a8      	b.n	1000450c <_vsnprintf+0x98>
100045ba:	46a1      	mov	r9, r4
100045bc:	46aa      	mov	sl, r5
100045be:	002c      	movs	r4, r5
100045c0:	45d3      	cmp	fp, sl
100045c2:	d803      	bhi.n	100045cc <_vsnprintf+0x158>
100045c4:	2301      	movs	r3, #1
100045c6:	425b      	negs	r3, r3
100045c8:	445b      	add	r3, fp
100045ca:	469a      	mov	sl, r3
100045cc:	465b      	mov	r3, fp
100045ce:	4652      	mov	r2, sl
100045d0:	4649      	mov	r1, r9
100045d2:	2000      	movs	r0, #0
100045d4:	9d08      	ldr	r5, [sp, #32]
100045d6:	47a8      	blx	r5
100045d8:	0020      	movs	r0, r4
100045da:	b01f      	add	sp, #124	; 0x7c
100045dc:	bc3c      	pop	{r2, r3, r4, r5}
100045de:	4690      	mov	r8, r2
100045e0:	4699      	mov	r9, r3
100045e2:	46a2      	mov	sl, r4
100045e4:	46ab      	mov	fp, r5
100045e6:	bdf0      	pop	{r4, r5, r6, r7, pc}
100045e8:	9b09      	ldr	r3, [sp, #36]	; 0x24
100045ea:	cb40      	ldmia	r3!, {r6}
100045ec:	960a      	str	r6, [sp, #40]	; 0x28
100045ee:	2e00      	cmp	r6, #0
100045f0:	db03      	blt.n	100045fa <_vsnprintf+0x186>
100045f2:	7850      	ldrb	r0, [r2, #1]
100045f4:	9309      	str	r3, [sp, #36]	; 0x24
100045f6:	1c56      	adds	r6, r2, #1
100045f8:	e784      	b.n	10004504 <_vsnprintf+0x90>
100045fa:	3828      	subs	r0, #40	; 0x28
100045fc:	4301      	orrs	r1, r0
100045fe:	4270      	negs	r0, r6
10004600:	900a      	str	r0, [sp, #40]	; 0x28
10004602:	9309      	str	r3, [sp, #36]	; 0x24
10004604:	7850      	ldrb	r0, [r2, #1]
10004606:	1c56      	adds	r6, r2, #1
10004608:	e77c      	b.n	10004504 <_vsnprintf+0x90>
1000460a:	2878      	cmp	r0, #120	; 0x78
1000460c:	d100      	bne.n	10004610 <_vsnprintf+0x19c>
1000460e:	e1d4      	b.n	100049ba <_vsnprintf+0x546>
10004610:	2858      	cmp	r0, #88	; 0x58
10004612:	d100      	bne.n	10004616 <_vsnprintf+0x1a2>
10004614:	e268      	b.n	10004ae8 <_vsnprintf+0x674>
10004616:	286f      	cmp	r0, #111	; 0x6f
10004618:	d100      	bne.n	1000461c <_vsnprintf+0x1a8>
1000461a:	e352      	b.n	10004cc2 <_vsnprintf+0x84e>
1000461c:	2862      	cmp	r0, #98	; 0x62
1000461e:	d100      	bne.n	10004622 <_vsnprintf+0x1ae>
10004620:	e1d8      	b.n	100049d4 <_vsnprintf+0x560>
10004622:	2310      	movs	r3, #16
10004624:	000a      	movs	r2, r1
10004626:	439a      	bics	r2, r3
10004628:	920b      	str	r2, [sp, #44]	; 0x2c
1000462a:	2869      	cmp	r0, #105	; 0x69
1000462c:	d001      	beq.n	10004632 <_vsnprintf+0x1be>
1000462e:	f000 fca2 	bl	10004f76 <_vsnprintf+0xb02>
10004632:	230a      	movs	r3, #10
10004634:	930c      	str	r3, [sp, #48]	; 0x30
10004636:	054b      	lsls	r3, r1, #21
10004638:	d400      	bmi.n	1000463c <_vsnprintf+0x1c8>
1000463a:	e1d5      	b.n	100049e8 <_vsnprintf+0x574>
1000463c:	2301      	movs	r3, #1
1000463e:	9a0b      	ldr	r2, [sp, #44]	; 0x2c
10004640:	439a      	bics	r2, r3
10004642:	920b      	str	r2, [sp, #44]	; 0x2c
10004644:	2869      	cmp	r0, #105	; 0x69
10004646:	d100      	bne.n	1000464a <_vsnprintf+0x1d6>
10004648:	e1ce      	b.n	100049e8 <_vsnprintf+0x574>
1000464a:	2864      	cmp	r0, #100	; 0x64
1000464c:	d100      	bne.n	10004650 <_vsnprintf+0x1dc>
1000464e:	e1cb      	b.n	100049e8 <_vsnprintf+0x574>
10004650:	9a0b      	ldr	r2, [sp, #44]	; 0x2c
10004652:	2380      	movs	r3, #128	; 0x80
10004654:	0011      	movs	r1, r2
10004656:	009b      	lsls	r3, r3, #2
10004658:	4019      	ands	r1, r3
1000465a:	468a      	mov	sl, r1
1000465c:	421a      	tst	r2, r3
1000465e:	d000      	beq.n	10004662 <_vsnprintf+0x1ee>
10004660:	e332      	b.n	10004cc8 <_vsnprintf+0x854>
10004662:	2380      	movs	r3, #128	; 0x80
10004664:	0011      	movs	r1, r2
10004666:	005b      	lsls	r3, r3, #1
10004668:	4019      	ands	r1, r3
1000466a:	4689      	mov	r9, r1
1000466c:	421a      	tst	r2, r3
1000466e:	d001      	beq.n	10004674 <_vsnprintf+0x200>
10004670:	f000 fc02 	bl	10004e78 <_vsnprintf+0xa04>
10004674:	0013      	movs	r3, r2
10004676:	065b      	lsls	r3, r3, #25
10004678:	d500      	bpl.n	1000467c <_vsnprintf+0x208>
1000467a:	e310      	b.n	10004c9e <_vsnprintf+0x82a>
1000467c:	9b0b      	ldr	r3, [sp, #44]	; 0x2c
1000467e:	061b      	lsls	r3, r3, #24
10004680:	d401      	bmi.n	10004686 <_vsnprintf+0x212>
10004682:	f000 fc6e 	bl	10004f62 <_vsnprintf+0xaee>
10004686:	9b09      	ldr	r3, [sp, #36]	; 0x24
10004688:	cb04      	ldmia	r3!, {r2}
1000468a:	0412      	lsls	r2, r2, #16
1000468c:	0c12      	lsrs	r2, r2, #16
1000468e:	4692      	mov	sl, r2
10004690:	9309      	str	r3, [sp, #36]	; 0x24
10004692:	4653      	mov	r3, sl
10004694:	2b00      	cmp	r3, #0
10004696:	d000      	beq.n	1000469a <_vsnprintf+0x226>
10004698:	e364      	b.n	10004d64 <_vsnprintf+0x8f0>
1000469a:	9a0b      	ldr	r2, [sp, #44]	; 0x2c
1000469c:	3310      	adds	r3, #16
1000469e:	0011      	movs	r1, r2
100046a0:	4399      	bics	r1, r3
100046a2:	910b      	str	r1, [sp, #44]	; 0x2c
100046a4:	0552      	lsls	r2, r2, #21
100046a6:	d400      	bmi.n	100046aa <_vsnprintf+0x236>
100046a8:	e35c      	b.n	10004d64 <_vsnprintf+0x8f0>
100046aa:	2300      	movs	r3, #0
100046ac:	4699      	mov	r9, r3
100046ae:	9b0b      	ldr	r3, [sp, #44]	; 0x2c
100046b0:	9306      	str	r3, [sp, #24]
100046b2:	9b0a      	ldr	r3, [sp, #40]	; 0x28
100046b4:	9305      	str	r3, [sp, #20]
100046b6:	4643      	mov	r3, r8
100046b8:	9304      	str	r3, [sp, #16]
100046ba:	9b0c      	ldr	r3, [sp, #48]	; 0x30
100046bc:	9303      	str	r3, [sp, #12]
100046be:	2300      	movs	r3, #0
100046c0:	e2de      	b.n	10004c80 <_vsnprintf+0x80c>
100046c2:	7870      	ldrb	r0, [r6, #1]
100046c4:	2868      	cmp	r0, #104	; 0x68
100046c6:	d100      	bne.n	100046ca <_vsnprintf+0x256>
100046c8:	e207      	b.n	10004ada <_vsnprintf+0x666>
100046ca:	2380      	movs	r3, #128	; 0x80
100046cc:	3601      	adds	r6, #1
100046ce:	4319      	orrs	r1, r3
100046d0:	e741      	b.n	10004556 <_vsnprintf+0xe2>
100046d2:	2380      	movs	r3, #128	; 0x80
100046d4:	009b      	lsls	r3, r3, #2
100046d6:	7870      	ldrb	r0, [r6, #1]
100046d8:	4319      	orrs	r1, r3
100046da:	3601      	adds	r6, #1
100046dc:	e73b      	b.n	10004556 <_vsnprintf+0xe2>
100046de:	2846      	cmp	r0, #70	; 0x46
100046e0:	d100      	bne.n	100046e4 <_vsnprintf+0x270>
100046e2:	e174      	b.n	100049ce <_vsnprintf+0x55a>
100046e4:	2207      	movs	r2, #7
100046e6:	9b09      	ldr	r3, [sp, #36]	; 0x24
100046e8:	9104      	str	r1, [sp, #16]
100046ea:	3307      	adds	r3, #7
100046ec:	4393      	bics	r3, r2
100046ee:	9a0a      	ldr	r2, [sp, #40]	; 0x28
100046f0:	0019      	movs	r1, r3
100046f2:	9203      	str	r2, [sp, #12]
100046f4:	4642      	mov	r2, r8
100046f6:	9202      	str	r2, [sp, #8]
100046f8:	c90c      	ldmia	r1!, {r2, r3}
100046fa:	9808      	ldr	r0, [sp, #32]
100046fc:	9200      	str	r2, [sp, #0]
100046fe:	9301      	str	r3, [sp, #4]
10004700:	9109      	str	r1, [sp, #36]	; 0x24
10004702:	002a      	movs	r2, r5
10004704:	465b      	mov	r3, fp
10004706:	0021      	movs	r1, r4
10004708:	f7ff fcc4 	bl	10004094 <_ftoa>
1000470c:	3601      	adds	r6, #1
1000470e:	0005      	movs	r5, r0
10004710:	e6d5      	b.n	100044be <_vsnprintf+0x4a>
10004712:	9b09      	ldr	r3, [sp, #36]	; 0x24
10004714:	001a      	movs	r2, r3
10004716:	ca08      	ldmia	r2!, {r3}
10004718:	4691      	mov	r9, r2
1000471a:	2b00      	cmp	r3, #0
1000471c:	d100      	bne.n	10004720 <_vsnprintf+0x2ac>
1000471e:	e105      	b.n	1000492c <_vsnprintf+0x4b8>
10004720:	2221      	movs	r2, #33	; 0x21
10004722:	4311      	orrs	r1, r2
10004724:	468a      	mov	sl, r1
10004726:	a80e      	add	r0, sp, #56	; 0x38
10004728:	4684      	mov	ip, r0
1000472a:	211f      	movs	r1, #31
1000472c:	4461      	add	r1, ip
1000472e:	9509      	str	r5, [sp, #36]	; 0x24
10004730:	2200      	movs	r2, #0
10004732:	270f      	movs	r7, #15
10004734:	46a4      	mov	ip, r4
10004736:	000d      	movs	r5, r1
10004738:	e002      	b.n	10004740 <_vsnprintf+0x2cc>
1000473a:	2a20      	cmp	r2, #32
1000473c:	d00c      	beq.n	10004758 <_vsnprintf+0x2e4>
1000473e:	000b      	movs	r3, r1
10004740:	003c      	movs	r4, r7
10004742:	401c      	ands	r4, r3
10004744:	0020      	movs	r0, r4
10004746:	3037      	adds	r0, #55	; 0x37
10004748:	2c09      	cmp	r4, #9
1000474a:	d800      	bhi.n	1000474e <_vsnprintf+0x2da>
1000474c:	3807      	subs	r0, #7
1000474e:	3201      	adds	r2, #1
10004750:	54a8      	strb	r0, [r5, r2]
10004752:	0919      	lsrs	r1, r3, #4
10004754:	2b0f      	cmp	r3, #15
10004756:	d8f0      	bhi.n	1000473a <_vsnprintf+0x2c6>
10004758:	4664      	mov	r4, ip
1000475a:	9d09      	ldr	r5, [sp, #36]	; 0x24
1000475c:	e0f0      	b.n	10004940 <_vsnprintf+0x4cc>
1000475e:	078b      	lsls	r3, r1, #30
10004760:	d400      	bmi.n	10004764 <_vsnprintf+0x2f0>
10004762:	e1d1      	b.n	10004b08 <_vsnprintf+0x694>
10004764:	9b09      	ldr	r3, [sp, #36]	; 0x24
10004766:	002a      	movs	r2, r5
10004768:	4699      	mov	r9, r3
1000476a:	1c6b      	adds	r3, r5, #1
1000476c:	4698      	mov	r8, r3
1000476e:	464b      	mov	r3, r9
10004770:	cb01      	ldmia	r3!, {r0}
10004772:	0021      	movs	r1, r4
10004774:	4699      	mov	r9, r3
10004776:	9f08      	ldr	r7, [sp, #32]
10004778:	465b      	mov	r3, fp
1000477a:	b2c0      	uxtb	r0, r0
1000477c:	47b8      	blx	r7
1000477e:	9b0a      	ldr	r3, [sp, #40]	; 0x28
10004780:	469c      	mov	ip, r3
10004782:	4465      	add	r5, ip
10004784:	2b01      	cmp	r3, #1
10004786:	d800      	bhi.n	1000478a <_vsnprintf+0x316>
10004788:	e290      	b.n	10004cac <_vsnprintf+0x838>
1000478a:	46b2      	mov	sl, r6
1000478c:	465e      	mov	r6, fp
1000478e:	4647      	mov	r7, r8
10004790:	46a8      	mov	r8, r5
10004792:	9d08      	ldr	r5, [sp, #32]
10004794:	003a      	movs	r2, r7
10004796:	0033      	movs	r3, r6
10004798:	3701      	adds	r7, #1
1000479a:	0021      	movs	r1, r4
1000479c:	2020      	movs	r0, #32
1000479e:	47a8      	blx	r5
100047a0:	4547      	cmp	r7, r8
100047a2:	d1f7      	bne.n	10004794 <_vsnprintf+0x320>
100047a4:	46b3      	mov	fp, r6
100047a6:	464b      	mov	r3, r9
100047a8:	4656      	mov	r6, sl
100047aa:	003d      	movs	r5, r7
100047ac:	9309      	str	r3, [sp, #36]	; 0x24
100047ae:	3601      	adds	r6, #1
100047b0:	e685      	b.n	100044be <_vsnprintf+0x4a>
100047b2:	002a      	movs	r2, r5
100047b4:	1c6f      	adds	r7, r5, #1
100047b6:	465b      	mov	r3, fp
100047b8:	9d08      	ldr	r5, [sp, #32]
100047ba:	0021      	movs	r1, r4
100047bc:	2025      	movs	r0, #37	; 0x25
100047be:	47a8      	blx	r5
100047c0:	3601      	adds	r6, #1
100047c2:	003d      	movs	r5, r7
100047c4:	e67b      	b.n	100044be <_vsnprintf+0x4a>
100047c6:	46c0      	nop			; (mov r8, r8)
100047c8:	10004475 	.word	0x10004475
100047cc:	200017e0 	.word	0x200017e0
100047d0:	10009a48 	.word	0x10009a48
100047d4:	10009a8c 	.word	0x10009a8c
100047d8:	10009ad8 	.word	0x10009ad8
100047dc:	9b09      	ldr	r3, [sp, #36]	; 0x24
100047de:	cb04      	ldmia	r3!, {r2}
100047e0:	4699      	mov	r9, r3
100047e2:	4643      	mov	r3, r8
100047e4:	9209      	str	r2, [sp, #36]	; 0x24
100047e6:	2b00      	cmp	r3, #0
100047e8:	d000      	beq.n	100047ec <_vsnprintf+0x378>
100047ea:	e097      	b.n	1000491c <_vsnprintf+0x4a8>
100047ec:	7813      	ldrb	r3, [r2, #0]
100047ee:	469c      	mov	ip, r3
100047f0:	2b00      	cmp	r3, #0
100047f2:	d100      	bne.n	100047f6 <_vsnprintf+0x382>
100047f4:	e3b3      	b.n	10004f5e <_vsnprintf+0xaea>
100047f6:	2302      	movs	r3, #2
100047f8:	425b      	negs	r3, r3
100047fa:	1c5a      	adds	r2, r3, #1
100047fc:	9b09      	ldr	r3, [sp, #36]	; 0x24
100047fe:	4692      	mov	sl, r2
10004800:	0018      	movs	r0, r3
10004802:	9f0a      	ldr	r7, [sp, #40]	; 0x28
10004804:	920b      	str	r2, [sp, #44]	; 0x2c
10004806:	4450      	add	r0, sl
10004808:	e002      	b.n	10004810 <_vsnprintf+0x39c>
1000480a:	4283      	cmp	r3, r0
1000480c:	d100      	bne.n	10004810 <_vsnprintf+0x39c>
1000480e:	e169      	b.n	10004ae4 <_vsnprintf+0x670>
10004810:	785a      	ldrb	r2, [r3, #1]
10004812:	3301      	adds	r3, #1
10004814:	2a00      	cmp	r2, #0
10004816:	d1f8      	bne.n	1000480a <_vsnprintf+0x396>
10004818:	9a09      	ldr	r2, [sp, #36]	; 0x24
1000481a:	970a      	str	r7, [sp, #40]	; 0x28
1000481c:	1a9b      	subs	r3, r3, r2
1000481e:	930b      	str	r3, [sp, #44]	; 0x2c
10004820:	2380      	movs	r3, #128	; 0x80
10004822:	000a      	movs	r2, r1
10004824:	00db      	lsls	r3, r3, #3
10004826:	401a      	ands	r2, r3
10004828:	920c      	str	r2, [sp, #48]	; 0x30
1000482a:	4219      	tst	r1, r3
1000482c:	d004      	beq.n	10004838 <_vsnprintf+0x3c4>
1000482e:	9b0b      	ldr	r3, [sp, #44]	; 0x2c
10004830:	4543      	cmp	r3, r8
10004832:	d901      	bls.n	10004838 <_vsnprintf+0x3c4>
10004834:	4643      	mov	r3, r8
10004836:	930b      	str	r3, [sp, #44]	; 0x2c
10004838:	2302      	movs	r3, #2
1000483a:	001a      	movs	r2, r3
1000483c:	400a      	ands	r2, r1
1000483e:	920d      	str	r2, [sp, #52]	; 0x34
10004840:	420b      	tst	r3, r1
10004842:	d100      	bne.n	10004846 <_vsnprintf+0x3d2>
10004844:	e184      	b.n	10004b50 <_vsnprintf+0x6dc>
10004846:	4660      	mov	r0, ip
10004848:	2800      	cmp	r0, #0
1000484a:	d023      	beq.n	10004894 <_vsnprintf+0x420>
1000484c:	9b0c      	ldr	r3, [sp, #48]	; 0x30
1000484e:	2b00      	cmp	r3, #0
10004850:	d100      	bne.n	10004854 <_vsnprintf+0x3e0>
10004852:	e124      	b.n	10004a9e <_vsnprintf+0x62a>
10004854:	44a8      	add	r8, r5
10004856:	46c2      	mov	sl, r8
10004858:	9b09      	ldr	r3, [sp, #36]	; 0x24
1000485a:	4657      	mov	r7, sl
1000485c:	1b5b      	subs	r3, r3, r5
1000485e:	4698      	mov	r8, r3
10004860:	9b08      	ldr	r3, [sp, #32]
10004862:	46b2      	mov	sl, r6
10004864:	002a      	movs	r2, r5
10004866:	0026      	movs	r6, r4
10004868:	465c      	mov	r4, fp
1000486a:	469b      	mov	fp, r3
1000486c:	e009      	b.n	10004882 <_vsnprintf+0x40e>
1000486e:	0023      	movs	r3, r4
10004870:	0031      	movs	r1, r6
10004872:	1c55      	adds	r5, r2, #1
10004874:	47d8      	blx	fp
10004876:	4643      	mov	r3, r8
10004878:	5d58      	ldrb	r0, [r3, r5]
1000487a:	2800      	cmp	r0, #0
1000487c:	d100      	bne.n	10004880 <_vsnprintf+0x40c>
1000487e:	e13f      	b.n	10004b00 <_vsnprintf+0x68c>
10004880:	002a      	movs	r2, r5
10004882:	4297      	cmp	r7, r2
10004884:	d1f3      	bne.n	1000486e <_vsnprintf+0x3fa>
10004886:	46a3      	mov	fp, r4
10004888:	003d      	movs	r5, r7
1000488a:	0034      	movs	r4, r6
1000488c:	4656      	mov	r6, sl
1000488e:	9b0d      	ldr	r3, [sp, #52]	; 0x34
10004890:	2b00      	cmp	r3, #0
10004892:	d069      	beq.n	10004968 <_vsnprintf+0x4f4>
10004894:	9b0b      	ldr	r3, [sp, #44]	; 0x2c
10004896:	990a      	ldr	r1, [sp, #40]	; 0x28
10004898:	46a8      	mov	r8, r5
1000489a:	4299      	cmp	r1, r3
1000489c:	d964      	bls.n	10004968 <_vsnprintf+0x4f4>
1000489e:	468c      	mov	ip, r1
100048a0:	4465      	add	r5, ip
100048a2:	1aed      	subs	r5, r5, r3
100048a4:	9b08      	ldr	r3, [sp, #32]
100048a6:	4647      	mov	r7, r8
100048a8:	469a      	mov	sl, r3
100048aa:	46b0      	mov	r8, r6
100048ac:	0026      	movs	r6, r4
100048ae:	465c      	mov	r4, fp
100048b0:	003a      	movs	r2, r7
100048b2:	0023      	movs	r3, r4
100048b4:	3701      	adds	r7, #1
100048b6:	0031      	movs	r1, r6
100048b8:	2020      	movs	r0, #32
100048ba:	47d0      	blx	sl
100048bc:	42af      	cmp	r7, r5
100048be:	d1f7      	bne.n	100048b0 <_vsnprintf+0x43c>
100048c0:	46a3      	mov	fp, r4
100048c2:	0034      	movs	r4, r6
100048c4:	4646      	mov	r6, r8
100048c6:	e04f      	b.n	10004968 <_vsnprintf+0x4f4>
100048c8:	4bd2      	ldr	r3, [pc, #840]	; (10004c14 <_vsnprintf+0x7a0>)
100048ca:	7820      	ldrb	r0, [r4, #0]
100048cc:	9308      	str	r3, [sp, #32]
100048ce:	2300      	movs	r3, #0
100048d0:	469a      	mov	sl, r3
100048d2:	2800      	cmp	r0, #0
100048d4:	d000      	beq.n	100048d8 <_vsnprintf+0x464>
100048d6:	e5e6      	b.n	100044a6 <_vsnprintf+0x32>
100048d8:	2400      	movs	r4, #0
100048da:	e671      	b.n	100045c0 <_vsnprintf+0x14c>
100048dc:	4643      	mov	r3, r8
100048de:	0006      	movs	r6, r0
100048e0:	9f0a      	ldr	r7, [sp, #40]	; 0x28
100048e2:	0098      	lsls	r0, r3, #2
100048e4:	18c0      	adds	r0, r0, r3
100048e6:	3201      	adds	r2, #1
100048e8:	0040      	lsls	r0, r0, #1
100048ea:	1980      	adds	r0, r0, r6
100048ec:	7816      	ldrb	r6, [r2, #0]
100048ee:	0003      	movs	r3, r0
100048f0:	0030      	movs	r0, r6
100048f2:	3830      	subs	r0, #48	; 0x30
100048f4:	3b30      	subs	r3, #48	; 0x30
100048f6:	2809      	cmp	r0, #9
100048f8:	d9f3      	bls.n	100048e2 <_vsnprintf+0x46e>
100048fa:	0030      	movs	r0, r6
100048fc:	4698      	mov	r8, r3
100048fe:	0016      	movs	r6, r2
10004900:	970a      	str	r7, [sp, #40]	; 0x28
10004902:	e603      	b.n	1000450c <_vsnprintf+0x98>
10004904:	9b09      	ldr	r3, [sp, #36]	; 0x24
10004906:	3602      	adds	r6, #2
10004908:	cb04      	ldmia	r3!, {r2}
1000490a:	4690      	mov	r8, r2
1000490c:	43d2      	mvns	r2, r2
1000490e:	4640      	mov	r0, r8
10004910:	17d2      	asrs	r2, r2, #31
10004912:	4010      	ands	r0, r2
10004914:	4680      	mov	r8, r0
10004916:	9309      	str	r3, [sp, #36]	; 0x24
10004918:	7830      	ldrb	r0, [r6, #0]
1000491a:	e5f7      	b.n	1000450c <_vsnprintf+0x98>
1000491c:	7813      	ldrb	r3, [r2, #0]
1000491e:	469c      	mov	ip, r3
10004920:	2b00      	cmp	r3, #0
10004922:	d100      	bne.n	10004926 <_vsnprintf+0x4b2>
10004924:	e31a      	b.n	10004f5c <_vsnprintf+0xae8>
10004926:	4643      	mov	r3, r8
10004928:	3b01      	subs	r3, #1
1000492a:	e766      	b.n	100047fa <_vsnprintf+0x386>
1000492c:	2210      	movs	r2, #16
1000492e:	0008      	movs	r0, r1
10004930:	4390      	bics	r0, r2
10004932:	3211      	adds	r2, #17
10004934:	4310      	orrs	r0, r2
10004936:	4682      	mov	sl, r0
10004938:	2200      	movs	r2, #0
1000493a:	0549      	lsls	r1, r1, #21
1000493c:	d400      	bmi.n	10004940 <_vsnprintf+0x4cc>
1000493e:	e6f2      	b.n	10004726 <_vsnprintf+0x2b2>
10004940:	4653      	mov	r3, sl
10004942:	9306      	str	r3, [sp, #24]
10004944:	2308      	movs	r3, #8
10004946:	9305      	str	r3, [sp, #20]
10004948:	4643      	mov	r3, r8
1000494a:	9304      	str	r3, [sp, #16]
1000494c:	2310      	movs	r3, #16
1000494e:	9303      	str	r3, [sp, #12]
10004950:	2300      	movs	r3, #0
10004952:	9302      	str	r3, [sp, #8]
10004954:	ab16      	add	r3, sp, #88	; 0x58
10004956:	9201      	str	r2, [sp, #4]
10004958:	9300      	str	r3, [sp, #0]
1000495a:	002a      	movs	r2, r5
1000495c:	465b      	mov	r3, fp
1000495e:	0021      	movs	r1, r4
10004960:	9808      	ldr	r0, [sp, #32]
10004962:	f7ff f863 	bl	10003a2c <_ntoa_format>
10004966:	0005      	movs	r5, r0
10004968:	464b      	mov	r3, r9
1000496a:	3601      	adds	r6, #1
1000496c:	9309      	str	r3, [sp, #36]	; 0x24
1000496e:	e5a6      	b.n	100044be <_vsnprintf+0x4a>
10004970:	2320      	movs	r3, #32
10004972:	0002      	movs	r2, r0
10004974:	439a      	bics	r2, r3
10004976:	2a47      	cmp	r2, #71	; 0x47
10004978:	d104      	bne.n	10004984 <_vsnprintf+0x510>
1000497a:	2380      	movs	r3, #128	; 0x80
1000497c:	011b      	lsls	r3, r3, #4
1000497e:	4319      	orrs	r1, r3
10004980:	2302      	movs	r3, #2
10004982:	4398      	bics	r0, r3
10004984:	2845      	cmp	r0, #69	; 0x45
10004986:	d101      	bne.n	1000498c <_vsnprintf+0x518>
10004988:	2320      	movs	r3, #32
1000498a:	4319      	orrs	r1, r3
1000498c:	2207      	movs	r2, #7
1000498e:	9b09      	ldr	r3, [sp, #36]	; 0x24
10004990:	9104      	str	r1, [sp, #16]
10004992:	3307      	adds	r3, #7
10004994:	4393      	bics	r3, r2
10004996:	9a0a      	ldr	r2, [sp, #40]	; 0x28
10004998:	0019      	movs	r1, r3
1000499a:	9203      	str	r2, [sp, #12]
1000499c:	4642      	mov	r2, r8
1000499e:	9202      	str	r2, [sp, #8]
100049a0:	c90c      	ldmia	r1!, {r2, r3}
100049a2:	9808      	ldr	r0, [sp, #32]
100049a4:	9200      	str	r2, [sp, #0]
100049a6:	9301      	str	r3, [sp, #4]
100049a8:	9109      	str	r1, [sp, #36]	; 0x24
100049aa:	002a      	movs	r2, r5
100049ac:	465b      	mov	r3, fp
100049ae:	0021      	movs	r1, r4
100049b0:	f7ff f934 	bl	10003c1c <_etoa>
100049b4:	3601      	adds	r6, #1
100049b6:	0005      	movs	r5, r0
100049b8:	e581      	b.n	100044be <_vsnprintf+0x4a>
100049ba:	2310      	movs	r3, #16
100049bc:	930c      	str	r3, [sp, #48]	; 0x30
100049be:	230c      	movs	r3, #12
100049c0:	000a      	movs	r2, r1
100049c2:	439a      	bics	r2, r3
100049c4:	920b      	str	r2, [sp, #44]	; 0x2c
100049c6:	054b      	lsls	r3, r1, #21
100049c8:	d400      	bmi.n	100049cc <_vsnprintf+0x558>
100049ca:	e63b      	b.n	10004644 <_vsnprintf+0x1d0>
100049cc:	e636      	b.n	1000463c <_vsnprintf+0x1c8>
100049ce:	2320      	movs	r3, #32
100049d0:	4319      	orrs	r1, r3
100049d2:	e687      	b.n	100046e4 <_vsnprintf+0x270>
100049d4:	2302      	movs	r3, #2
100049d6:	930c      	str	r3, [sp, #48]	; 0x30
100049d8:	910b      	str	r1, [sp, #44]	; 0x2c
100049da:	990b      	ldr	r1, [sp, #44]	; 0x2c
100049dc:	2864      	cmp	r0, #100	; 0x64
100049de:	d1ee      	bne.n	100049be <_vsnprintf+0x54a>
100049e0:	9b0b      	ldr	r3, [sp, #44]	; 0x2c
100049e2:	055b      	lsls	r3, r3, #21
100049e4:	d500      	bpl.n	100049e8 <_vsnprintf+0x574>
100049e6:	e629      	b.n	1000463c <_vsnprintf+0x1c8>
100049e8:	9a0b      	ldr	r2, [sp, #44]	; 0x2c
100049ea:	2380      	movs	r3, #128	; 0x80
100049ec:	0011      	movs	r1, r2
100049ee:	009b      	lsls	r3, r3, #2
100049f0:	4019      	ands	r1, r3
100049f2:	468a      	mov	sl, r1
100049f4:	421a      	tst	r2, r3
100049f6:	d000      	beq.n	100049fa <_vsnprintf+0x586>
100049f8:	e0ce      	b.n	10004b98 <_vsnprintf+0x724>
100049fa:	2380      	movs	r3, #128	; 0x80
100049fc:	0011      	movs	r1, r2
100049fe:	005b      	lsls	r3, r3, #1
10004a00:	4019      	ands	r1, r3
10004a02:	4689      	mov	r9, r1
10004a04:	421a      	tst	r2, r3
10004a06:	d000      	beq.n	10004a0a <_vsnprintf+0x596>
10004a08:	e1db      	b.n	10004dc2 <_vsnprintf+0x94e>
10004a0a:	0013      	movs	r3, r2
10004a0c:	065b      	lsls	r3, r3, #25
10004a0e:	d500      	bpl.n	10004a12 <_vsnprintf+0x59e>
10004a10:	e11d      	b.n	10004c4e <_vsnprintf+0x7da>
10004a12:	9b0b      	ldr	r3, [sp, #44]	; 0x2c
10004a14:	9909      	ldr	r1, [sp, #36]	; 0x24
10004a16:	061b      	lsls	r3, r3, #24
10004a18:	d400      	bmi.n	10004a1c <_vsnprintf+0x5a8>
10004a1a:	e299      	b.n	10004f50 <_vsnprintf+0xadc>
10004a1c:	c908      	ldmia	r1!, {r3}
10004a1e:	b21b      	sxth	r3, r3
10004a20:	17d8      	asrs	r0, r3, #31
10004a22:	181a      	adds	r2, r3, r0
10004a24:	4042      	eors	r2, r0
10004a26:	b292      	uxth	r2, r2
10004a28:	9109      	str	r1, [sp, #36]	; 0x24
10004a2a:	4692      	mov	sl, r2
10004a2c:	0fda      	lsrs	r2, r3, #31
10004a2e:	9212      	str	r2, [sp, #72]	; 0x48
10004a30:	2b00      	cmp	r3, #0
10004a32:	d109      	bne.n	10004a48 <_vsnprintf+0x5d4>
10004a34:	2380      	movs	r3, #128	; 0x80
10004a36:	2210      	movs	r2, #16
10004a38:	990b      	ldr	r1, [sp, #44]	; 0x2c
10004a3a:	00db      	lsls	r3, r3, #3
10004a3c:	400b      	ands	r3, r1
10004a3e:	4391      	bics	r1, r2
10004a40:	910b      	str	r1, [sp, #44]	; 0x2c
10004a42:	2b00      	cmp	r3, #0
10004a44:	d000      	beq.n	10004a48 <_vsnprintf+0x5d4>
10004a46:	e112      	b.n	10004c6e <_vsnprintf+0x7fa>
10004a48:	9a0b      	ldr	r2, [sp, #44]	; 0x2c
10004a4a:	2361      	movs	r3, #97	; 0x61
10004a4c:	0692      	lsls	r2, r2, #26
10004a4e:	d500      	bpl.n	10004a52 <_vsnprintf+0x5de>
10004a50:	2341      	movs	r3, #65	; 0x41
10004a52:	a90e      	add	r1, sp, #56	; 0x38
10004a54:	221f      	movs	r2, #31
10004a56:	468c      	mov	ip, r1
10004a58:	b2db      	uxtb	r3, r3
10004a5a:	4462      	add	r2, ip
10004a5c:	3b0a      	subs	r3, #10
10004a5e:	4657      	mov	r7, sl
10004a60:	9513      	str	r5, [sp, #76]	; 0x4c
10004a62:	46a2      	mov	sl, r4
10004a64:	464d      	mov	r5, r9
10004a66:	9c0c      	ldr	r4, [sp, #48]	; 0x30
10004a68:	46b1      	mov	r9, r6
10004a6a:	930d      	str	r3, [sp, #52]	; 0x34
10004a6c:	0016      	movs	r6, r2
10004a6e:	e00a      	b.n	10004a86 <_vsnprintf+0x612>
10004a70:	3330      	adds	r3, #48	; 0x30
10004a72:	b2db      	uxtb	r3, r3
10004a74:	3501      	adds	r5, #1
10004a76:	5573      	strb	r3, [r6, r5]
10004a78:	42a7      	cmp	r7, r4
10004a7a:	d200      	bcs.n	10004a7e <_vsnprintf+0x60a>
10004a7c:	e11c      	b.n	10004cb8 <_vsnprintf+0x844>
10004a7e:	2d20      	cmp	r5, #32
10004a80:	d100      	bne.n	10004a84 <_vsnprintf+0x610>
10004a82:	e119      	b.n	10004cb8 <_vsnprintf+0x844>
10004a84:	0007      	movs	r7, r0
10004a86:	0021      	movs	r1, r4
10004a88:	0038      	movs	r0, r7
10004a8a:	f000 fafd 	bl	10005088 <__wrap___aeabi_uidiv>
10004a8e:	b2cb      	uxtb	r3, r1
10004a90:	2909      	cmp	r1, #9
10004a92:	d9ed      	bls.n	10004a70 <_vsnprintf+0x5fc>
10004a94:	9a0d      	ldr	r2, [sp, #52]	; 0x34
10004a96:	4694      	mov	ip, r2
10004a98:	4463      	add	r3, ip
10004a9a:	b2db      	uxtb	r3, r3
10004a9c:	e7ea      	b.n	10004a74 <_vsnprintf+0x600>
10004a9e:	9b09      	ldr	r3, [sp, #36]	; 0x24
10004aa0:	465f      	mov	r7, fp
10004aa2:	1b5b      	subs	r3, r3, r5
10004aa4:	4698      	mov	r8, r3
10004aa6:	9b0a      	ldr	r3, [sp, #40]	; 0x28
10004aa8:	46b3      	mov	fp, r6
10004aaa:	469a      	mov	sl, r3
10004aac:	0026      	movs	r6, r4
10004aae:	9c08      	ldr	r4, [sp, #32]
10004ab0:	002a      	movs	r2, r5
10004ab2:	003b      	movs	r3, r7
10004ab4:	0031      	movs	r1, r6
10004ab6:	47a0      	blx	r4
10004ab8:	4643      	mov	r3, r8
10004aba:	3501      	adds	r5, #1
10004abc:	5d58      	ldrb	r0, [r3, r5]
10004abe:	2800      	cmp	r0, #0
10004ac0:	d1f6      	bne.n	10004ab0 <_vsnprintf+0x63c>
10004ac2:	4653      	mov	r3, sl
10004ac4:	0034      	movs	r4, r6
10004ac6:	930a      	str	r3, [sp, #40]	; 0x28
10004ac8:	465e      	mov	r6, fp
10004aca:	46bb      	mov	fp, r7
10004acc:	e6df      	b.n	1000488e <_vsnprintf+0x41a>
10004ace:	23c0      	movs	r3, #192	; 0xc0
10004ad0:	009b      	lsls	r3, r3, #2
10004ad2:	78b0      	ldrb	r0, [r6, #2]
10004ad4:	4319      	orrs	r1, r3
10004ad6:	3602      	adds	r6, #2
10004ad8:	e53d      	b.n	10004556 <_vsnprintf+0xe2>
10004ada:	23c0      	movs	r3, #192	; 0xc0
10004adc:	78b0      	ldrb	r0, [r6, #2]
10004ade:	4319      	orrs	r1, r3
10004ae0:	3602      	adds	r6, #2
10004ae2:	e538      	b.n	10004556 <_vsnprintf+0xe2>
10004ae4:	970a      	str	r7, [sp, #40]	; 0x28
10004ae6:	e69b      	b.n	10004820 <_vsnprintf+0x3ac>
10004ae8:	230c      	movs	r3, #12
10004aea:	000a      	movs	r2, r1
10004aec:	439a      	bics	r2, r3
10004aee:	3314      	adds	r3, #20
10004af0:	431a      	orrs	r2, r3
10004af2:	2310      	movs	r3, #16
10004af4:	920b      	str	r2, [sp, #44]	; 0x2c
10004af6:	930c      	str	r3, [sp, #48]	; 0x30
10004af8:	054b      	lsls	r3, r1, #21
10004afa:	d400      	bmi.n	10004afe <_vsnprintf+0x68a>
10004afc:	e5a8      	b.n	10004650 <_vsnprintf+0x1dc>
10004afe:	e59d      	b.n	1000463c <_vsnprintf+0x1c8>
10004b00:	46a3      	mov	fp, r4
10004b02:	0034      	movs	r4, r6
10004b04:	4656      	mov	r6, sl
10004b06:	e6c2      	b.n	1000488e <_vsnprintf+0x41a>
10004b08:	9a0a      	ldr	r2, [sp, #40]	; 0x28
10004b0a:	2a01      	cmp	r2, #1
10004b0c:	d800      	bhi.n	10004b10 <_vsnprintf+0x69c>
10004b0e:	e22e      	b.n	10004f6e <_vsnprintf+0xafa>
10004b10:	1e6b      	subs	r3, r5, #1
10004b12:	189f      	adds	r7, r3, r2
10004b14:	9b08      	ldr	r3, [sp, #32]
10004b16:	46b0      	mov	r8, r6
10004b18:	4699      	mov	r9, r3
10004b1a:	0026      	movs	r6, r4
10004b1c:	465c      	mov	r4, fp
10004b1e:	002a      	movs	r2, r5
10004b20:	0023      	movs	r3, r4
10004b22:	3501      	adds	r5, #1
10004b24:	0031      	movs	r1, r6
10004b26:	2020      	movs	r0, #32
10004b28:	47c8      	blx	r9
10004b2a:	42bd      	cmp	r5, r7
10004b2c:	d1f7      	bne.n	10004b1e <_vsnprintf+0x6aa>
10004b2e:	46a3      	mov	fp, r4
10004b30:	0034      	movs	r4, r6
10004b32:	4646      	mov	r6, r8
10004b34:	9b09      	ldr	r3, [sp, #36]	; 0x24
10004b36:	003a      	movs	r2, r7
10004b38:	cb01      	ldmia	r3!, {r0}
10004b3a:	0021      	movs	r1, r4
10004b3c:	4698      	mov	r8, r3
10004b3e:	1c7d      	adds	r5, r7, #1
10004b40:	465b      	mov	r3, fp
10004b42:	9f08      	ldr	r7, [sp, #32]
10004b44:	b2c0      	uxtb	r0, r0
10004b46:	47b8      	blx	r7
10004b48:	4643      	mov	r3, r8
10004b4a:	3601      	adds	r6, #1
10004b4c:	9309      	str	r3, [sp, #36]	; 0x24
10004b4e:	e4b6      	b.n	100044be <_vsnprintf+0x4a>
10004b50:	9a0b      	ldr	r2, [sp, #44]	; 0x2c
10004b52:	980a      	ldr	r0, [sp, #40]	; 0x28
10004b54:	1c53      	adds	r3, r2, #1
10004b56:	4290      	cmp	r0, r2
10004b58:	d800      	bhi.n	10004b5c <_vsnprintf+0x6e8>
10004b5a:	e20a      	b.n	10004f72 <_vsnprintf+0xafe>
10004b5c:	1943      	adds	r3, r0, r5
10004b5e:	1a9b      	subs	r3, r3, r2
10004b60:	001f      	movs	r7, r3
10004b62:	9b08      	ldr	r3, [sp, #32]
10004b64:	46b2      	mov	sl, r6
10004b66:	0026      	movs	r6, r4
10004b68:	465c      	mov	r4, fp
10004b6a:	469b      	mov	fp, r3
10004b6c:	002a      	movs	r2, r5
10004b6e:	0023      	movs	r3, r4
10004b70:	3501      	adds	r5, #1
10004b72:	0031      	movs	r1, r6
10004b74:	2020      	movs	r0, #32
10004b76:	47d8      	blx	fp
10004b78:	42bd      	cmp	r5, r7
10004b7a:	d1f7      	bne.n	10004b6c <_vsnprintf+0x6f8>
10004b7c:	9b0a      	ldr	r3, [sp, #40]	; 0x28
10004b7e:	46a3      	mov	fp, r4
10004b80:	3301      	adds	r3, #1
10004b82:	930b      	str	r3, [sp, #44]	; 0x2c
10004b84:	9b09      	ldr	r3, [sp, #36]	; 0x24
10004b86:	0034      	movs	r4, r6
10004b88:	781b      	ldrb	r3, [r3, #0]
10004b8a:	4656      	mov	r6, sl
10004b8c:	469c      	mov	ip, r3
10004b8e:	4660      	mov	r0, ip
10004b90:	2800      	cmp	r0, #0
10004b92:	d000      	beq.n	10004b96 <_vsnprintf+0x722>
10004b94:	e65a      	b.n	1000484c <_vsnprintf+0x3d8>
10004b96:	e6e7      	b.n	10004968 <_vsnprintf+0x4f4>
10004b98:	2207      	movs	r2, #7
10004b9a:	9b09      	ldr	r3, [sp, #36]	; 0x24
10004b9c:	3307      	adds	r3, #7
10004b9e:	4393      	bics	r3, r2
10004ba0:	3201      	adds	r2, #1
10004ba2:	4694      	mov	ip, r2
10004ba4:	449c      	add	ip, r3
10004ba6:	4662      	mov	r2, ip
10004ba8:	685f      	ldr	r7, [r3, #4]
10004baa:	9209      	str	r2, [sp, #36]	; 0x24
10004bac:	681a      	ldr	r2, [r3, #0]
10004bae:	17fb      	asrs	r3, r7, #31
10004bb0:	9310      	str	r3, [sp, #64]	; 0x40
10004bb2:	9311      	str	r3, [sp, #68]	; 0x44
10004bb4:	9810      	ldr	r0, [sp, #64]	; 0x40
10004bb6:	9911      	ldr	r1, [sp, #68]	; 0x44
10004bb8:	0003      	movs	r3, r0
10004bba:	4053      	eors	r3, r2
10004bbc:	930e      	str	r3, [sp, #56]	; 0x38
10004bbe:	000b      	movs	r3, r1
10004bc0:	407b      	eors	r3, r7
10004bc2:	930f      	str	r3, [sp, #60]	; 0x3c
10004bc4:	4694      	mov	ip, r2
10004bc6:	9a0e      	ldr	r2, [sp, #56]	; 0x38
10004bc8:	9b0f      	ldr	r3, [sp, #60]	; 0x3c
10004bca:	1a12      	subs	r2, r2, r0
10004bcc:	418b      	sbcs	r3, r1
10004bce:	920e      	str	r2, [sp, #56]	; 0x38
10004bd0:	930f      	str	r3, [sp, #60]	; 0x3c
10004bd2:	0ffb      	lsrs	r3, r7, #31
10004bd4:	4662      	mov	r2, ip
10004bd6:	9312      	str	r3, [sp, #72]	; 0x48
10004bd8:	2300      	movs	r3, #0
10004bda:	433a      	orrs	r2, r7
10004bdc:	469a      	mov	sl, r3
10004bde:	d03d      	beq.n	10004c5c <_vsnprintf+0x7e8>
10004be0:	9a0b      	ldr	r2, [sp, #44]	; 0x2c
10004be2:	2361      	movs	r3, #97	; 0x61
10004be4:	0692      	lsls	r2, r2, #26
10004be6:	d500      	bpl.n	10004bea <_vsnprintf+0x776>
10004be8:	2341      	movs	r3, #65	; 0x41
10004bea:	2200      	movs	r2, #0
10004bec:	b2db      	uxtb	r3, r3
10004bee:	a90e      	add	r1, sp, #56	; 0x38
10004bf0:	3b0a      	subs	r3, #10
10004bf2:	468c      	mov	ip, r1
10004bf4:	4691      	mov	r9, r2
10004bf6:	930d      	str	r3, [sp, #52]	; 0x34
10004bf8:	4643      	mov	r3, r8
10004bfa:	321f      	adds	r2, #31
10004bfc:	4462      	add	r2, ip
10004bfe:	9513      	str	r5, [sp, #76]	; 0x4c
10004c00:	9615      	str	r6, [sp, #84]	; 0x54
10004c02:	464d      	mov	r5, r9
10004c04:	9e0e      	ldr	r6, [sp, #56]	; 0x38
10004c06:	9f0f      	ldr	r7, [sp, #60]	; 0x3c
10004c08:	46a1      	mov	r9, r4
10004c0a:	4690      	mov	r8, r2
10004c0c:	9c0c      	ldr	r4, [sp, #48]	; 0x30
10004c0e:	9314      	str	r3, [sp, #80]	; 0x50
10004c10:	e00f      	b.n	10004c32 <_vsnprintf+0x7be>
10004c12:	46c0      	nop			; (mov r8, r8)
10004c14:	10003959 	.word	0x10003959
10004c18:	3230      	adds	r2, #48	; 0x30
10004c1a:	b2d2      	uxtb	r2, r2
10004c1c:	4643      	mov	r3, r8
10004c1e:	3501      	adds	r5, #1
10004c20:	555a      	strb	r2, [r3, r5]
10004c22:	45ba      	cmp	sl, r7
10004c24:	d100      	bne.n	10004c28 <_vsnprintf+0x7b4>
10004c26:	e17c      	b.n	10004f22 <_vsnprintf+0xaae>
10004c28:	2d20      	cmp	r5, #32
10004c2a:	d100      	bne.n	10004c2e <_vsnprintf+0x7ba>
10004c2c:	e17c      	b.n	10004f28 <_vsnprintf+0xab4>
10004c2e:	0006      	movs	r6, r0
10004c30:	000f      	movs	r7, r1
10004c32:	0022      	movs	r2, r4
10004c34:	2300      	movs	r3, #0
10004c36:	0030      	movs	r0, r6
10004c38:	0039      	movs	r1, r7
10004c3a:	f000 fa67 	bl	1000510c <__wrap___aeabi_uldivmod>
10004c3e:	b2d2      	uxtb	r2, r2
10004c40:	2a09      	cmp	r2, #9
10004c42:	d9e9      	bls.n	10004c18 <_vsnprintf+0x7a4>
10004c44:	9b0d      	ldr	r3, [sp, #52]	; 0x34
10004c46:	469c      	mov	ip, r3
10004c48:	4462      	add	r2, ip
10004c4a:	b2d2      	uxtb	r2, r2
10004c4c:	e7e6      	b.n	10004c1c <_vsnprintf+0x7a8>
10004c4e:	23ff      	movs	r3, #255	; 0xff
10004c50:	9909      	ldr	r1, [sp, #36]	; 0x24
10004c52:	c904      	ldmia	r1!, {r2}
10004c54:	4013      	ands	r3, r2
10004c56:	001a      	movs	r2, r3
10004c58:	9109      	str	r1, [sp, #36]	; 0x24
10004c5a:	e6e6      	b.n	10004a2a <_vsnprintf+0x5b6>
10004c5c:	9a0b      	ldr	r2, [sp, #44]	; 0x2c
10004c5e:	3310      	adds	r3, #16
10004c60:	0011      	movs	r1, r2
10004c62:	4399      	bics	r1, r3
10004c64:	910b      	str	r1, [sp, #44]	; 0x2c
10004c66:	0552      	lsls	r2, r2, #21
10004c68:	d5ba      	bpl.n	10004be0 <_vsnprintf+0x76c>
10004c6a:	2300      	movs	r3, #0
10004c6c:	4699      	mov	r9, r3
10004c6e:	9b0b      	ldr	r3, [sp, #44]	; 0x2c
10004c70:	9306      	str	r3, [sp, #24]
10004c72:	9b0a      	ldr	r3, [sp, #40]	; 0x28
10004c74:	9305      	str	r3, [sp, #20]
10004c76:	4643      	mov	r3, r8
10004c78:	9304      	str	r3, [sp, #16]
10004c7a:	9b0c      	ldr	r3, [sp, #48]	; 0x30
10004c7c:	9303      	str	r3, [sp, #12]
10004c7e:	9b12      	ldr	r3, [sp, #72]	; 0x48
10004c80:	9302      	str	r3, [sp, #8]
10004c82:	464b      	mov	r3, r9
10004c84:	9301      	str	r3, [sp, #4]
10004c86:	ab16      	add	r3, sp, #88	; 0x58
10004c88:	002a      	movs	r2, r5
10004c8a:	9300      	str	r3, [sp, #0]
10004c8c:	0021      	movs	r1, r4
10004c8e:	465b      	mov	r3, fp
10004c90:	9808      	ldr	r0, [sp, #32]
10004c92:	f7fe fecb 	bl	10003a2c <_ntoa_format>
10004c96:	3601      	adds	r6, #1
10004c98:	0005      	movs	r5, r0
10004c9a:	f7ff fc10 	bl	100044be <_vsnprintf+0x4a>
10004c9e:	22ff      	movs	r2, #255	; 0xff
10004ca0:	9b09      	ldr	r3, [sp, #36]	; 0x24
10004ca2:	cb02      	ldmia	r3!, {r1}
10004ca4:	4011      	ands	r1, r2
10004ca6:	468a      	mov	sl, r1
10004ca8:	9309      	str	r3, [sp, #36]	; 0x24
10004caa:	e4f2      	b.n	10004692 <_vsnprintf+0x21e>
10004cac:	464b      	mov	r3, r9
10004cae:	4645      	mov	r5, r8
10004cb0:	9309      	str	r3, [sp, #36]	; 0x24
10004cb2:	3601      	adds	r6, #1
10004cb4:	f7ff fc03 	bl	100044be <_vsnprintf+0x4a>
10004cb8:	464e      	mov	r6, r9
10004cba:	4654      	mov	r4, sl
10004cbc:	46a9      	mov	r9, r5
10004cbe:	9d13      	ldr	r5, [sp, #76]	; 0x4c
10004cc0:	e7d5      	b.n	10004c6e <_vsnprintf+0x7fa>
10004cc2:	2308      	movs	r3, #8
10004cc4:	930c      	str	r3, [sp, #48]	; 0x30
10004cc6:	e687      	b.n	100049d8 <_vsnprintf+0x564>
10004cc8:	2207      	movs	r2, #7
10004cca:	9b09      	ldr	r3, [sp, #36]	; 0x24
10004ccc:	3307      	adds	r3, #7
10004cce:	4393      	bics	r3, r2
10004cd0:	3201      	adds	r2, #1
10004cd2:	4694      	mov	ip, r2
10004cd4:	449c      	add	ip, r3
10004cd6:	4662      	mov	r2, ip
10004cd8:	9209      	str	r2, [sp, #36]	; 0x24
10004cda:	681a      	ldr	r2, [r3, #0]
10004cdc:	685b      	ldr	r3, [r3, #4]
10004cde:	0010      	movs	r0, r2
10004ce0:	469a      	mov	sl, r3
10004ce2:	0013      	movs	r3, r2
10004ce4:	4652      	mov	r2, sl
10004ce6:	4313      	orrs	r3, r2
10004ce8:	d107      	bne.n	10004cfa <_vsnprintf+0x886>
10004cea:	9a0b      	ldr	r2, [sp, #44]	; 0x2c
10004cec:	3310      	adds	r3, #16
10004cee:	0011      	movs	r1, r2
10004cf0:	4399      	bics	r1, r3
10004cf2:	910b      	str	r1, [sp, #44]	; 0x2c
10004cf4:	0552      	lsls	r2, r2, #21
10004cf6:	d500      	bpl.n	10004cfa <_vsnprintf+0x886>
10004cf8:	e4d7      	b.n	100046aa <_vsnprintf+0x236>
10004cfa:	9a0b      	ldr	r2, [sp, #44]	; 0x2c
10004cfc:	2361      	movs	r3, #97	; 0x61
10004cfe:	0692      	lsls	r2, r2, #26
10004d00:	d500      	bpl.n	10004d04 <_vsnprintf+0x890>
10004d02:	2341      	movs	r3, #65	; 0x41
10004d04:	2200      	movs	r2, #0
10004d06:	b2db      	uxtb	r3, r3
10004d08:	a90e      	add	r1, sp, #56	; 0x38
10004d0a:	3b0a      	subs	r3, #10
10004d0c:	468c      	mov	ip, r1
10004d0e:	4691      	mov	r9, r2
10004d10:	930d      	str	r3, [sp, #52]	; 0x34
10004d12:	4643      	mov	r3, r8
10004d14:	321f      	adds	r2, #31
10004d16:	4462      	add	r2, ip
10004d18:	4657      	mov	r7, sl
10004d1a:	9512      	str	r5, [sp, #72]	; 0x48
10004d1c:	46a2      	mov	sl, r4
10004d1e:	464d      	mov	r5, r9
10004d20:	0004      	movs	r4, r0
10004d22:	46b1      	mov	r9, r6
10004d24:	4690      	mov	r8, r2
10004d26:	9e0c      	ldr	r6, [sp, #48]	; 0x30
10004d28:	9313      	str	r3, [sp, #76]	; 0x4c
10004d2a:	e00d      	b.n	10004d48 <_vsnprintf+0x8d4>
10004d2c:	3230      	adds	r2, #48	; 0x30
10004d2e:	b2d2      	uxtb	r2, r2
10004d30:	4643      	mov	r3, r8
10004d32:	3501      	adds	r5, #1
10004d34:	555a      	strb	r2, [r3, r5]
10004d36:	2300      	movs	r3, #0
10004d38:	42bb      	cmp	r3, r7
10004d3a:	d100      	bne.n	10004d3e <_vsnprintf+0x8ca>
10004d3c:	e0fd      	b.n	10004f3a <_vsnprintf+0xac6>
10004d3e:	2d20      	cmp	r5, #32
10004d40:	d100      	bne.n	10004d44 <_vsnprintf+0x8d0>
10004d42:	e0fd      	b.n	10004f40 <_vsnprintf+0xacc>
10004d44:	0004      	movs	r4, r0
10004d46:	000f      	movs	r7, r1
10004d48:	0032      	movs	r2, r6
10004d4a:	2300      	movs	r3, #0
10004d4c:	0020      	movs	r0, r4
10004d4e:	0039      	movs	r1, r7
10004d50:	f000 f9dc 	bl	1000510c <__wrap___aeabi_uldivmod>
10004d54:	b2d2      	uxtb	r2, r2
10004d56:	2a09      	cmp	r2, #9
10004d58:	d9e8      	bls.n	10004d2c <_vsnprintf+0x8b8>
10004d5a:	9b0d      	ldr	r3, [sp, #52]	; 0x34
10004d5c:	469c      	mov	ip, r3
10004d5e:	4462      	add	r2, ip
10004d60:	b2d2      	uxtb	r2, r2
10004d62:	e7e5      	b.n	10004d30 <_vsnprintf+0x8bc>
10004d64:	9a0b      	ldr	r2, [sp, #44]	; 0x2c
10004d66:	2361      	movs	r3, #97	; 0x61
10004d68:	0692      	lsls	r2, r2, #26
10004d6a:	d500      	bpl.n	10004d6e <_vsnprintf+0x8fa>
10004d6c:	2341      	movs	r3, #65	; 0x41
10004d6e:	b2db      	uxtb	r3, r3
10004d70:	a90e      	add	r1, sp, #56	; 0x38
10004d72:	3b0a      	subs	r3, #10
10004d74:	221f      	movs	r2, #31
10004d76:	468c      	mov	ip, r1
10004d78:	930d      	str	r3, [sp, #52]	; 0x34
10004d7a:	0023      	movs	r3, r4
10004d7c:	4462      	add	r2, ip
10004d7e:	4654      	mov	r4, sl
10004d80:	9512      	str	r5, [sp, #72]	; 0x48
10004d82:	0017      	movs	r7, r2
10004d84:	464d      	mov	r5, r9
10004d86:	469a      	mov	sl, r3
10004d88:	46b1      	mov	r9, r6
10004d8a:	9e0c      	ldr	r6, [sp, #48]	; 0x30
10004d8c:	e008      	b.n	10004da0 <_vsnprintf+0x92c>
10004d8e:	3330      	adds	r3, #48	; 0x30
10004d90:	b2db      	uxtb	r3, r3
10004d92:	3501      	adds	r5, #1
10004d94:	557b      	strb	r3, [r7, r5]
10004d96:	42b4      	cmp	r4, r6
10004d98:	d30e      	bcc.n	10004db8 <_vsnprintf+0x944>
10004d9a:	2d20      	cmp	r5, #32
10004d9c:	d00c      	beq.n	10004db8 <_vsnprintf+0x944>
10004d9e:	0004      	movs	r4, r0
10004da0:	0031      	movs	r1, r6
10004da2:	0020      	movs	r0, r4
10004da4:	f000 f970 	bl	10005088 <__wrap___aeabi_uidiv>
10004da8:	b2cb      	uxtb	r3, r1
10004daa:	2909      	cmp	r1, #9
10004dac:	d9ef      	bls.n	10004d8e <_vsnprintf+0x91a>
10004dae:	9a0d      	ldr	r2, [sp, #52]	; 0x34
10004db0:	4694      	mov	ip, r2
10004db2:	4463      	add	r3, ip
10004db4:	b2db      	uxtb	r3, r3
10004db6:	e7ec      	b.n	10004d92 <_vsnprintf+0x91e>
10004db8:	464e      	mov	r6, r9
10004dba:	4654      	mov	r4, sl
10004dbc:	46a9      	mov	r9, r5
10004dbe:	9d12      	ldr	r5, [sp, #72]	; 0x48
10004dc0:	e475      	b.n	100046ae <_vsnprintf+0x23a>
10004dc2:	9b09      	ldr	r3, [sp, #36]	; 0x24
10004dc4:	001a      	movs	r2, r3
10004dc6:	ca08      	ldmia	r2!, {r3}
10004dc8:	17d9      	asrs	r1, r3, #31
10004dca:	9213      	str	r2, [sp, #76]	; 0x4c
10004dcc:	185a      	adds	r2, r3, r1
10004dce:	404a      	eors	r2, r1
10004dd0:	4691      	mov	r9, r2
10004dd2:	0fda      	lsrs	r2, r3, #31
10004dd4:	9212      	str	r2, [sp, #72]	; 0x48
10004dd6:	2b00      	cmp	r3, #0
10004dd8:	d108      	bne.n	10004dec <_vsnprintf+0x978>
10004dda:	2380      	movs	r3, #128	; 0x80
10004ddc:	2210      	movs	r2, #16
10004dde:	990b      	ldr	r1, [sp, #44]	; 0x2c
10004de0:	00db      	lsls	r3, r3, #3
10004de2:	400b      	ands	r3, r1
10004de4:	4391      	bics	r1, r2
10004de6:	910b      	str	r1, [sp, #44]	; 0x2c
10004de8:	2b00      	cmp	r3, #0
10004dea:	d12b      	bne.n	10004e44 <_vsnprintf+0x9d0>
10004dec:	9a0b      	ldr	r2, [sp, #44]	; 0x2c
10004dee:	2361      	movs	r3, #97	; 0x61
10004df0:	0692      	lsls	r2, r2, #26
10004df2:	d500      	bpl.n	10004df6 <_vsnprintf+0x982>
10004df4:	2341      	movs	r3, #65	; 0x41
10004df6:	aa0e      	add	r2, sp, #56	; 0x38
10004df8:	271f      	movs	r7, #31
10004dfa:	4694      	mov	ip, r2
10004dfc:	b2db      	uxtb	r3, r3
10004dfe:	3b0a      	subs	r3, #10
10004e00:	950d      	str	r5, [sp, #52]	; 0x34
10004e02:	4467      	add	r7, ip
10004e04:	4655      	mov	r5, sl
10004e06:	9309      	str	r3, [sp, #36]	; 0x24
10004e08:	46a2      	mov	sl, r4
10004e0a:	464c      	mov	r4, r9
10004e0c:	46b1      	mov	r9, r6
10004e0e:	9e0c      	ldr	r6, [sp, #48]	; 0x30
10004e10:	e008      	b.n	10004e24 <_vsnprintf+0x9b0>
10004e12:	3330      	adds	r3, #48	; 0x30
10004e14:	b2db      	uxtb	r3, r3
10004e16:	3501      	adds	r5, #1
10004e18:	557b      	strb	r3, [r7, r5]
10004e1a:	42b4      	cmp	r4, r6
10004e1c:	d30e      	bcc.n	10004e3c <_vsnprintf+0x9c8>
10004e1e:	2d20      	cmp	r5, #32
10004e20:	d00c      	beq.n	10004e3c <_vsnprintf+0x9c8>
10004e22:	0004      	movs	r4, r0
10004e24:	0031      	movs	r1, r6
10004e26:	0020      	movs	r0, r4
10004e28:	f000 f92e 	bl	10005088 <__wrap___aeabi_uidiv>
10004e2c:	b2cb      	uxtb	r3, r1
10004e2e:	2909      	cmp	r1, #9
10004e30:	d9ef      	bls.n	10004e12 <_vsnprintf+0x99e>
10004e32:	9a09      	ldr	r2, [sp, #36]	; 0x24
10004e34:	4694      	mov	ip, r2
10004e36:	4463      	add	r3, ip
10004e38:	b2db      	uxtb	r3, r3
10004e3a:	e7ec      	b.n	10004e16 <_vsnprintf+0x9a2>
10004e3c:	464e      	mov	r6, r9
10004e3e:	4654      	mov	r4, sl
10004e40:	46aa      	mov	sl, r5
10004e42:	9d0d      	ldr	r5, [sp, #52]	; 0x34
10004e44:	9b0b      	ldr	r3, [sp, #44]	; 0x2c
10004e46:	002a      	movs	r2, r5
10004e48:	9306      	str	r3, [sp, #24]
10004e4a:	9b0a      	ldr	r3, [sp, #40]	; 0x28
10004e4c:	0021      	movs	r1, r4
10004e4e:	9305      	str	r3, [sp, #20]
10004e50:	4643      	mov	r3, r8
10004e52:	9304      	str	r3, [sp, #16]
10004e54:	9b0c      	ldr	r3, [sp, #48]	; 0x30
10004e56:	9808      	ldr	r0, [sp, #32]
10004e58:	9303      	str	r3, [sp, #12]
10004e5a:	9b12      	ldr	r3, [sp, #72]	; 0x48
10004e5c:	3601      	adds	r6, #1
10004e5e:	9302      	str	r3, [sp, #8]
10004e60:	4653      	mov	r3, sl
10004e62:	9301      	str	r3, [sp, #4]
10004e64:	ab16      	add	r3, sp, #88	; 0x58
10004e66:	9300      	str	r3, [sp, #0]
10004e68:	465b      	mov	r3, fp
10004e6a:	f7fe fddf 	bl	10003a2c <_ntoa_format>
10004e6e:	9b13      	ldr	r3, [sp, #76]	; 0x4c
10004e70:	0005      	movs	r5, r0
10004e72:	9309      	str	r3, [sp, #36]	; 0x24
10004e74:	f7ff fb23 	bl	100044be <_vsnprintf+0x4a>
10004e78:	9b09      	ldr	r3, [sp, #36]	; 0x24
10004e7a:	cb04      	ldmia	r3!, {r2}
10004e7c:	4691      	mov	r9, r2
10004e7e:	9312      	str	r3, [sp, #72]	; 0x48
10004e80:	2a00      	cmp	r2, #0
10004e82:	d108      	bne.n	10004e96 <_vsnprintf+0xa22>
10004e84:	2380      	movs	r3, #128	; 0x80
10004e86:	2210      	movs	r2, #16
10004e88:	990b      	ldr	r1, [sp, #44]	; 0x2c
10004e8a:	00db      	lsls	r3, r3, #3
10004e8c:	400b      	ands	r3, r1
10004e8e:	4391      	bics	r1, r2
10004e90:	910b      	str	r1, [sp, #44]	; 0x2c
10004e92:	2b00      	cmp	r3, #0
10004e94:	d12b      	bne.n	10004eee <_vsnprintf+0xa7a>
10004e96:	9a0b      	ldr	r2, [sp, #44]	; 0x2c
10004e98:	2361      	movs	r3, #97	; 0x61
10004e9a:	0692      	lsls	r2, r2, #26
10004e9c:	d500      	bpl.n	10004ea0 <_vsnprintf+0xa2c>
10004e9e:	2341      	movs	r3, #65	; 0x41
10004ea0:	aa0e      	add	r2, sp, #56	; 0x38
10004ea2:	271f      	movs	r7, #31
10004ea4:	4694      	mov	ip, r2
10004ea6:	b2db      	uxtb	r3, r3
10004ea8:	3b0a      	subs	r3, #10
10004eaa:	950d      	str	r5, [sp, #52]	; 0x34
10004eac:	4467      	add	r7, ip
10004eae:	4655      	mov	r5, sl
10004eb0:	9309      	str	r3, [sp, #36]	; 0x24
10004eb2:	46a2      	mov	sl, r4
10004eb4:	464c      	mov	r4, r9
10004eb6:	46b1      	mov	r9, r6
10004eb8:	9e0c      	ldr	r6, [sp, #48]	; 0x30
10004eba:	e008      	b.n	10004ece <_vsnprintf+0xa5a>
10004ebc:	3330      	adds	r3, #48	; 0x30
10004ebe:	b2db      	uxtb	r3, r3
10004ec0:	3501      	adds	r5, #1
10004ec2:	557b      	strb	r3, [r7, r5]
10004ec4:	42b4      	cmp	r4, r6
10004ec6:	d30e      	bcc.n	10004ee6 <_vsnprintf+0xa72>
10004ec8:	2d20      	cmp	r5, #32
10004eca:	d00c      	beq.n	10004ee6 <_vsnprintf+0xa72>
10004ecc:	0004      	movs	r4, r0
10004ece:	0031      	movs	r1, r6
10004ed0:	0020      	movs	r0, r4
10004ed2:	f000 f8d9 	bl	10005088 <__wrap___aeabi_uidiv>
10004ed6:	b2cb      	uxtb	r3, r1
10004ed8:	2909      	cmp	r1, #9
10004eda:	d9ef      	bls.n	10004ebc <_vsnprintf+0xa48>
10004edc:	9a09      	ldr	r2, [sp, #36]	; 0x24
10004ede:	4694      	mov	ip, r2
10004ee0:	4463      	add	r3, ip
10004ee2:	b2db      	uxtb	r3, r3
10004ee4:	e7ec      	b.n	10004ec0 <_vsnprintf+0xa4c>
10004ee6:	464e      	mov	r6, r9
10004ee8:	4654      	mov	r4, sl
10004eea:	46aa      	mov	sl, r5
10004eec:	9d0d      	ldr	r5, [sp, #52]	; 0x34
10004eee:	9b0b      	ldr	r3, [sp, #44]	; 0x2c
10004ef0:	002a      	movs	r2, r5
10004ef2:	9306      	str	r3, [sp, #24]
10004ef4:	9b0a      	ldr	r3, [sp, #40]	; 0x28
10004ef6:	0021      	movs	r1, r4
10004ef8:	9305      	str	r3, [sp, #20]
10004efa:	4643      	mov	r3, r8
10004efc:	9304      	str	r3, [sp, #16]
10004efe:	9b0c      	ldr	r3, [sp, #48]	; 0x30
10004f00:	9808      	ldr	r0, [sp, #32]
10004f02:	9303      	str	r3, [sp, #12]
10004f04:	2300      	movs	r3, #0
10004f06:	9302      	str	r3, [sp, #8]
10004f08:	4653      	mov	r3, sl
10004f0a:	9301      	str	r3, [sp, #4]
10004f0c:	ab16      	add	r3, sp, #88	; 0x58
10004f0e:	9300      	str	r3, [sp, #0]
10004f10:	465b      	mov	r3, fp
10004f12:	f7fe fd8b 	bl	10003a2c <_ntoa_format>
10004f16:	9b12      	ldr	r3, [sp, #72]	; 0x48
10004f18:	0005      	movs	r5, r0
10004f1a:	9309      	str	r3, [sp, #36]	; 0x24
10004f1c:	3601      	adds	r6, #1
10004f1e:	f7ff face 	bl	100044be <_vsnprintf+0x4a>
10004f22:	42b4      	cmp	r4, r6
10004f24:	d800      	bhi.n	10004f28 <_vsnprintf+0xab4>
10004f26:	e67f      	b.n	10004c28 <_vsnprintf+0x7b4>
10004f28:	9b14      	ldr	r3, [sp, #80]	; 0x50
10004f2a:	464c      	mov	r4, r9
10004f2c:	960e      	str	r6, [sp, #56]	; 0x38
10004f2e:	970f      	str	r7, [sp, #60]	; 0x3c
10004f30:	46a9      	mov	r9, r5
10004f32:	4698      	mov	r8, r3
10004f34:	9e15      	ldr	r6, [sp, #84]	; 0x54
10004f36:	9d13      	ldr	r5, [sp, #76]	; 0x4c
10004f38:	e699      	b.n	10004c6e <_vsnprintf+0x7fa>
10004f3a:	42a6      	cmp	r6, r4
10004f3c:	d800      	bhi.n	10004f40 <_vsnprintf+0xacc>
10004f3e:	e6fe      	b.n	10004d3e <_vsnprintf+0x8ca>
10004f40:	9b13      	ldr	r3, [sp, #76]	; 0x4c
10004f42:	464e      	mov	r6, r9
10004f44:	4698      	mov	r8, r3
10004f46:	46a9      	mov	r9, r5
10004f48:	4654      	mov	r4, sl
10004f4a:	9d12      	ldr	r5, [sp, #72]	; 0x48
10004f4c:	f7ff fbaf 	bl	100046ae <_vsnprintf+0x23a>
10004f50:	c908      	ldmia	r1!, {r3}
10004f52:	17d8      	asrs	r0, r3, #31
10004f54:	181a      	adds	r2, r3, r0
10004f56:	4042      	eors	r2, r0
10004f58:	9109      	str	r1, [sp, #36]	; 0x24
10004f5a:	e566      	b.n	10004a2a <_vsnprintf+0x5b6>
10004f5c:	2300      	movs	r3, #0
10004f5e:	930b      	str	r3, [sp, #44]	; 0x2c
10004f60:	e45e      	b.n	10004820 <_vsnprintf+0x3ac>
10004f62:	9b09      	ldr	r3, [sp, #36]	; 0x24
10004f64:	cb04      	ldmia	r3!, {r2}
10004f66:	4692      	mov	sl, r2
10004f68:	9309      	str	r3, [sp, #36]	; 0x24
10004f6a:	f7ff fb92 	bl	10004692 <_vsnprintf+0x21e>
10004f6e:	002f      	movs	r7, r5
10004f70:	e5e0      	b.n	10004b34 <_vsnprintf+0x6c0>
10004f72:	930b      	str	r3, [sp, #44]	; 0x2c
10004f74:	e60b      	b.n	10004b8e <_vsnprintf+0x71a>
10004f76:	3b06      	subs	r3, #6
10004f78:	930c      	str	r3, [sp, #48]	; 0x30
10004f7a:	e52e      	b.n	100049da <_vsnprintf+0x566>

10004f7c <vfctprintf>:
10004f7c:	b500      	push	{lr}
10004f7e:	b085      	sub	sp, #20
10004f80:	9103      	str	r1, [sp, #12]
10004f82:	2101      	movs	r1, #1
10004f84:	9002      	str	r0, [sp, #8]
10004f86:	9300      	str	r3, [sp, #0]
10004f88:	4803      	ldr	r0, [pc, #12]	; (10004f98 <vfctprintf+0x1c>)
10004f8a:	0013      	movs	r3, r2
10004f8c:	424a      	negs	r2, r1
10004f8e:	a902      	add	r1, sp, #8
10004f90:	f7ff fa70 	bl	10004474 <_vsnprintf>
10004f94:	b005      	add	sp, #20
10004f96:	bd00      	pop	{pc}
10004f98:	10003c0d 	.word	0x10003c0d

10004f9c <weak_raw_vprintf>:
10004f9c:	b510      	push	{r4, lr}
10004f9e:	4a09      	ldr	r2, [pc, #36]	; (10004fc4 <weak_raw_vprintf+0x28>)
10004fa0:	0003      	movs	r3, r0
10004fa2:	6814      	ldr	r4, [r2, #0]
10004fa4:	b084      	sub	sp, #16
10004fa6:	2c00      	cmp	r4, #0
10004fa8:	d008      	beq.n	10004fbc <weak_raw_vprintf+0x20>
10004faa:	2201      	movs	r2, #1
10004fac:	9100      	str	r1, [sp, #0]
10004fae:	4806      	ldr	r0, [pc, #24]	; (10004fc8 <weak_raw_vprintf+0x2c>)
10004fb0:	4252      	negs	r2, r2
10004fb2:	a903      	add	r1, sp, #12
10004fb4:	47a0      	blx	r4
10004fb6:	2001      	movs	r0, #1
10004fb8:	b004      	add	sp, #16
10004fba:	bd10      	pop	{r4, pc}
10004fbc:	f001 f874 	bl	100060a8 <__wrap_puts>
10004fc0:	2000      	movs	r0, #0
10004fc2:	e7f9      	b.n	10004fb8 <weak_raw_vprintf+0x1c>
10004fc4:	200017e0 	.word	0x200017e0
10004fc8:	10003bfd 	.word	0x10003bfd

10004fcc <__aeabi_bits_init>:
10004fcc:	4801      	ldr	r0, [pc, #4]	; (10004fd4 <__aeabi_bits_init+0x8>)
10004fce:	2104      	movs	r1, #4
10004fd0:	4b01      	ldr	r3, [pc, #4]	; (10004fd8 <__aeabi_bits_init+0xc>)
10004fd2:	4718      	bx	r3
10004fd4:	20000470 	.word	0x20000470
10004fd8:	10004ffd 	.word	0x10004ffd

10004fdc <rom_func_lookup>:
10004fdc:	2314      	movs	r3, #20
10004fde:	b510      	push	{r4, lr}
10004fe0:	0001      	movs	r1, r0
10004fe2:	8818      	ldrh	r0, [r3, #0]
10004fe4:	3304      	adds	r3, #4
10004fe6:	881b      	ldrh	r3, [r3, #0]
10004fe8:	4798      	blx	r3
10004fea:	bd10      	pop	{r4, pc}

10004fec <rom_data_lookup>:
10004fec:	2316      	movs	r3, #22
10004fee:	b510      	push	{r4, lr}
10004ff0:	0001      	movs	r1, r0
10004ff2:	8818      	ldrh	r0, [r3, #0]
10004ff4:	3302      	adds	r3, #2
10004ff6:	881b      	ldrh	r3, [r3, #0]
10004ff8:	4798      	blx	r3
10004ffa:	bd10      	pop	{r4, pc}

10004ffc <rom_funcs_lookup>:
10004ffc:	b5f0      	push	{r4, r5, r6, r7, lr}
10004ffe:	46c6      	mov	lr, r8
10005000:	b500      	push	{lr}
10005002:	2900      	cmp	r1, #0
10005004:	d016      	beq.n	10005034 <rom_funcs_lookup+0x38>
10005006:	2314      	movs	r3, #20
10005008:	0004      	movs	r4, r0
1000500a:	2501      	movs	r5, #1
1000500c:	4698      	mov	r8, r3
1000500e:	2718      	movs	r7, #24
10005010:	0089      	lsls	r1, r1, #2
10005012:	1846      	adds	r6, r0, r1
10005014:	4643      	mov	r3, r8
10005016:	6821      	ldr	r1, [r4, #0]
10005018:	8818      	ldrh	r0, [r3, #0]
1000501a:	883b      	ldrh	r3, [r7, #0]
1000501c:	4798      	blx	r3
1000501e:	c401      	stmia	r4!, {r0}
10005020:	1e43      	subs	r3, r0, #1
10005022:	4198      	sbcs	r0, r3
10005024:	4240      	negs	r0, r0
10005026:	4005      	ands	r5, r0
10005028:	42a6      	cmp	r6, r4
1000502a:	d1f3      	bne.n	10005014 <rom_funcs_lookup+0x18>
1000502c:	0028      	movs	r0, r5
1000502e:	bc04      	pop	{r2}
10005030:	4690      	mov	r8, r2
10005032:	bdf0      	pop	{r4, r5, r6, r7, pc}
10005034:	2501      	movs	r5, #1
10005036:	e7f9      	b.n	1000502c <rom_funcs_lookup+0x30>

10005038 <__wrap___aeabi_idiv>:
10005038:	4a12      	ldr	r2, [pc, #72]	; (10005084 <divmod_s32s32_savestate+0x18>)
1000503a:	6f93      	ldr	r3, [r2, #120]	; 0x78
1000503c:	089b      	lsrs	r3, r3, #2
1000503e:	d215      	bcs.n	1000506c <divmod_s32s32_savestate>

10005040 <divmod_s32s32_unsafe>:
10005040:	6690      	str	r0, [r2, #104]	; 0x68
10005042:	66d1      	str	r1, [r2, #108]	; 0x6c
10005044:	2900      	cmp	r1, #0
10005046:	d005      	beq.n	10005054 <divmod_s32s32_unsafe+0x14>
10005048:	e7ff      	b.n	1000504a <divmod_s32s32_unsafe+0xa>
1000504a:	e7ff      	b.n	1000504c <divmod_s32s32_unsafe+0xc>
1000504c:	e7ff      	b.n	1000504e <divmod_s32s32_unsafe+0xe>
1000504e:	6f51      	ldr	r1, [r2, #116]	; 0x74
10005050:	6f10      	ldr	r0, [r2, #112]	; 0x70
10005052:	4770      	bx	lr
10005054:	b504      	push	{r2, lr}
10005056:	2180      	movs	r1, #128	; 0x80
10005058:	0609      	lsls	r1, r1, #24
1000505a:	17c2      	asrs	r2, r0, #31
1000505c:	4051      	eors	r1, r2
1000505e:	2800      	cmp	r0, #0
10005060:	d000      	beq.n	10005064 <divmod_s32s32_unsafe+0x24>
10005062:	43c8      	mvns	r0, r1
10005064:	f004 fb58 	bl	10009718 <____aeabi_idiv0_veneer>
10005068:	2100      	movs	r1, #0
1000506a:	bd04      	pop	{r2, pc}

1000506c <divmod_s32s32_savestate>:
1000506c:	b5f0      	push	{r4, r5, r6, r7, lr}
1000506e:	6e14      	ldr	r4, [r2, #96]	; 0x60
10005070:	6e55      	ldr	r5, [r2, #100]	; 0x64
10005072:	6f57      	ldr	r7, [r2, #116]	; 0x74
10005074:	6f16      	ldr	r6, [r2, #112]	; 0x70
10005076:	f7ff ffe3 	bl	10005040 <divmod_s32s32_unsafe>
1000507a:	6614      	str	r4, [r2, #96]	; 0x60
1000507c:	6655      	str	r5, [r2, #100]	; 0x64
1000507e:	6757      	str	r7, [r2, #116]	; 0x74
10005080:	6716      	str	r6, [r2, #112]	; 0x70
10005082:	bdf0      	pop	{r4, r5, r6, r7, pc}
10005084:	d0000000 	.word	0xd0000000

10005088 <__wrap___aeabi_uidiv>:
10005088:	4a11      	ldr	r2, [pc, #68]	; (100050d0 <divmod_u32u32_savestate+0x18>)
1000508a:	6f93      	ldr	r3, [r2, #120]	; 0x78
1000508c:	089b      	lsrs	r3, r3, #2
1000508e:	d213      	bcs.n	100050b8 <divmod_u32u32_savestate>

10005090 <divmod_u32u32_unsafe>:
10005090:	6610      	str	r0, [r2, #96]	; 0x60
10005092:	6651      	str	r1, [r2, #100]	; 0x64
10005094:	2900      	cmp	r1, #0
10005096:	d005      	beq.n	100050a4 <divmod_u32u32_unsafe+0x14>
10005098:	e7ff      	b.n	1000509a <divmod_u32u32_unsafe+0xa>
1000509a:	e7ff      	b.n	1000509c <divmod_u32u32_unsafe+0xc>
1000509c:	e7ff      	b.n	1000509e <divmod_u32u32_unsafe+0xe>
1000509e:	6f51      	ldr	r1, [r2, #116]	; 0x74
100050a0:	6f10      	ldr	r0, [r2, #112]	; 0x70
100050a2:	4770      	bx	lr
100050a4:	b504      	push	{r2, lr}
100050a6:	2800      	cmp	r0, #0
100050a8:	d001      	beq.n	100050ae <divmod_u32u32_unsafe+0x1e>
100050aa:	2000      	movs	r0, #0
100050ac:	43c0      	mvns	r0, r0
100050ae:	f004 fb33 	bl	10009718 <____aeabi_idiv0_veneer>
100050b2:	2100      	movs	r1, #0
100050b4:	bd04      	pop	{r2, pc}
100050b6:	46c0      	nop			; (mov r8, r8)

100050b8 <divmod_u32u32_savestate>:
100050b8:	b5f0      	push	{r4, r5, r6, r7, lr}
100050ba:	6e14      	ldr	r4, [r2, #96]	; 0x60
100050bc:	6e55      	ldr	r5, [r2, #100]	; 0x64
100050be:	6f57      	ldr	r7, [r2, #116]	; 0x74
100050c0:	6f16      	ldr	r6, [r2, #112]	; 0x70
100050c2:	f7ff ffe5 	bl	10005090 <divmod_u32u32_unsafe>
100050c6:	6614      	str	r4, [r2, #96]	; 0x60
100050c8:	6655      	str	r5, [r2, #100]	; 0x64
100050ca:	6757      	str	r7, [r2, #116]	; 0x74
100050cc:	6716      	str	r6, [r2, #112]	; 0x70
100050ce:	bdf0      	pop	{r4, r5, r6, r7, pc}
100050d0:	d0000000 	.word	0xd0000000

100050d4 <__wrap___aeabi_ldivmod>:
100050d4:	4694      	mov	ip, r2
100050d6:	4a4e      	ldr	r2, [pc, #312]	; (10005210 <udiv0+0x1a>)
100050d8:	6f92      	ldr	r2, [r2, #120]	; 0x78
100050da:	0892      	lsrs	r2, r2, #2
100050dc:	4662      	mov	r2, ip
100050de:	d201      	bcs.n	100050e4 <divmod_s64s64_savestate>
100050e0:	e030      	b.n	10005144 <divmod_s64s64_unsafe>
100050e2:	46c0      	nop			; (mov r8, r8)

100050e4 <divmod_s64s64_savestate>:
100050e4:	b5f0      	push	{r4, r5, r6, r7, lr}
100050e6:	4e4a      	ldr	r6, [pc, #296]	; (10005210 <udiv0+0x1a>)
100050e8:	6fb5      	ldr	r5, [r6, #120]	; 0x78
100050ea:	086d      	lsrs	r5, r5, #1
100050ec:	d3fc      	bcc.n	100050e8 <divmod_s64s64_savestate+0x4>
100050ee:	6e34      	ldr	r4, [r6, #96]	; 0x60
100050f0:	6e75      	ldr	r5, [r6, #100]	; 0x64
100050f2:	6f77      	ldr	r7, [r6, #116]	; 0x74
100050f4:	6f36      	ldr	r6, [r6, #112]	; 0x70
100050f6:	f000 f825 	bl	10005144 <divmod_s64s64_unsafe>
100050fa:	4694      	mov	ip, r2
100050fc:	4a44      	ldr	r2, [pc, #272]	; (10005210 <udiv0+0x1a>)
100050fe:	6614      	str	r4, [r2, #96]	; 0x60
10005100:	6655      	str	r5, [r2, #100]	; 0x64
10005102:	6757      	str	r7, [r2, #116]	; 0x74
10005104:	6716      	str	r6, [r2, #112]	; 0x70
10005106:	4662      	mov	r2, ip
10005108:	bdf0      	pop	{r4, r5, r6, r7, pc}
1000510a:	46c0      	nop			; (mov r8, r8)

1000510c <__wrap___aeabi_uldivmod>:
1000510c:	4694      	mov	ip, r2
1000510e:	4a40      	ldr	r2, [pc, #256]	; (10005210 <udiv0+0x1a>)
10005110:	6f92      	ldr	r2, [r2, #120]	; 0x78
10005112:	0892      	lsrs	r2, r2, #2
10005114:	4662      	mov	r2, ip
10005116:	d201      	bcs.n	1000511c <divmod_u64u64_savestate>
10005118:	e058      	b.n	100051cc <divmod_u64u64_unsafe>
1000511a:	46c0      	nop			; (mov r8, r8)

1000511c <divmod_u64u64_savestate>:
1000511c:	b5f0      	push	{r4, r5, r6, r7, lr}
1000511e:	4e3c      	ldr	r6, [pc, #240]	; (10005210 <udiv0+0x1a>)
10005120:	6fb5      	ldr	r5, [r6, #120]	; 0x78
10005122:	086d      	lsrs	r5, r5, #1
10005124:	d3fc      	bcc.n	10005120 <divmod_u64u64_savestate+0x4>
10005126:	6e34      	ldr	r4, [r6, #96]	; 0x60
10005128:	6e75      	ldr	r5, [r6, #100]	; 0x64
1000512a:	6f77      	ldr	r7, [r6, #116]	; 0x74
1000512c:	6f36      	ldr	r6, [r6, #112]	; 0x70
1000512e:	f000 f84d 	bl	100051cc <divmod_u64u64_unsafe>
10005132:	4694      	mov	ip, r2
10005134:	4a36      	ldr	r2, [pc, #216]	; (10005210 <udiv0+0x1a>)
10005136:	6614      	str	r4, [r2, #96]	; 0x60
10005138:	6655      	str	r5, [r2, #100]	; 0x64
1000513a:	6757      	str	r7, [r2, #116]	; 0x74
1000513c:	6716      	str	r6, [r2, #112]	; 0x70
1000513e:	4662      	mov	r2, ip
10005140:	bdf0      	pop	{r4, r5, r6, r7, pc}
10005142:	46c0      	nop			; (mov r8, r8)

10005144 <divmod_s64s64_unsafe>:
10005144:	2b00      	cmp	r3, #0
10005146:	db24      	blt.n	10005192 <l41_1+0x26>
10005148:	d011      	beq.n	1000516e <l41_1+0x2>
1000514a:	2900      	cmp	r1, #0
1000514c:	da3e      	bge.n	100051cc <divmod_u64u64_unsafe>
1000514e:	b500      	push	{lr}
10005150:	43c9      	mvns	r1, r1
10005152:	4240      	negs	r0, r0
10005154:	d100      	bne.n	10005158 <l39_1>
10005156:	3101      	adds	r1, #1

10005158 <l39_1>:
10005158:	f000 f838 	bl	100051cc <divmod_u64u64_unsafe>
1000515c:	43c9      	mvns	r1, r1
1000515e:	4240      	negs	r0, r0
10005160:	d100      	bne.n	10005164 <l40_1>
10005162:	3101      	adds	r1, #1

10005164 <l40_1>:
10005164:	43db      	mvns	r3, r3
10005166:	4252      	negs	r2, r2
10005168:	d100      	bne.n	1000516c <l41_1>
1000516a:	3301      	adds	r3, #1

1000516c <l41_1>:
1000516c:	bd00      	pop	{pc}
1000516e:	2a00      	cmp	r2, #0
10005170:	d1eb      	bne.n	1000514a <divmod_s64s64_unsafe+0x6>
10005172:	2800      	cmp	r0, #0
10005174:	d101      	bne.n	1000517a <l41_1+0xe>
10005176:	2900      	cmp	r1, #0
10005178:	d005      	beq.n	10005186 <l41_1+0x1a>
1000517a:	2000      	movs	r0, #0
1000517c:	0fc9      	lsrs	r1, r1, #31
1000517e:	07c9      	lsls	r1, r1, #31
10005180:	d101      	bne.n	10005186 <l41_1+0x1a>
10005182:	43c0      	mvns	r0, r0
10005184:	0841      	lsrs	r1, r0, #1
10005186:	b500      	push	{lr}
10005188:	f004 fabe 	bl	10009708 <____aeabi_ldiv0_veneer>
1000518c:	2200      	movs	r2, #0
1000518e:	2300      	movs	r3, #0
10005190:	bd00      	pop	{pc}
10005192:	b500      	push	{lr}
10005194:	2900      	cmp	r1, #0
10005196:	db0a      	blt.n	100051ae <l43_1+0x2>
10005198:	43db      	mvns	r3, r3
1000519a:	4252      	negs	r2, r2
1000519c:	d100      	bne.n	100051a0 <l42_1>
1000519e:	3301      	adds	r3, #1

100051a0 <l42_1>:
100051a0:	f000 f814 	bl	100051cc <divmod_u64u64_unsafe>
100051a4:	43c9      	mvns	r1, r1
100051a6:	4240      	negs	r0, r0
100051a8:	d100      	bne.n	100051ac <l43_1>
100051aa:	3101      	adds	r1, #1

100051ac <l43_1>:
100051ac:	bd00      	pop	{pc}
100051ae:	43c9      	mvns	r1, r1
100051b0:	4240      	negs	r0, r0
100051b2:	d100      	bne.n	100051b6 <l44_1>
100051b4:	3101      	adds	r1, #1

100051b6 <l44_1>:
100051b6:	43db      	mvns	r3, r3
100051b8:	4252      	negs	r2, r2
100051ba:	d100      	bne.n	100051be <l45_1>
100051bc:	3301      	adds	r3, #1

100051be <l45_1>:
100051be:	f000 f805 	bl	100051cc <divmod_u64u64_unsafe>
100051c2:	43db      	mvns	r3, r3
100051c4:	4252      	negs	r2, r2
100051c6:	d100      	bne.n	100051ca <l46_1>
100051c8:	3301      	adds	r3, #1

100051ca <l46_1>:
100051ca:	bd00      	pop	{pc}

100051cc <divmod_u64u64_unsafe>:
100051cc:	2900      	cmp	r1, #0
100051ce:	d123      	bne.n	10005218 <y64>
100051d0:	2b00      	cmp	r3, #0
100051d2:	d118      	bne.n	10005206 <udiv0+0x10>
100051d4:	2a00      	cmp	r2, #0
100051d6:	d00c      	beq.n	100051f2 <divmod_u64u64_unsafe+0x26>
100051d8:	46bc      	mov	ip, r7
100051da:	4f0d      	ldr	r7, [pc, #52]	; (10005210 <udiv0+0x1a>)
100051dc:	6638      	str	r0, [r7, #96]	; 0x60
100051de:	667a      	str	r2, [r7, #100]	; 0x64
100051e0:	2100      	movs	r1, #0
100051e2:	2300      	movs	r3, #0
100051e4:	e7ff      	b.n	100051e6 <divmod_u64u64_unsafe+0x1a>
100051e6:	e7ff      	b.n	100051e8 <divmod_u64u64_unsafe+0x1c>
100051e8:	e7ff      	b.n	100051ea <divmod_u64u64_unsafe+0x1e>
100051ea:	6f7a      	ldr	r2, [r7, #116]	; 0x74
100051ec:	6f38      	ldr	r0, [r7, #112]	; 0x70
100051ee:	4667      	mov	r7, ip
100051f0:	4770      	bx	lr
100051f2:	2800      	cmp	r0, #0
100051f4:	d001      	beq.n	100051fa <udiv0+0x4>

100051f6 <udiv0>:
100051f6:	4807      	ldr	r0, [pc, #28]	; (10005214 <udiv0+0x1e>)
100051f8:	0001      	movs	r1, r0
100051fa:	b500      	push	{lr}
100051fc:	f004 fa84 	bl	10009708 <____aeabi_ldiv0_veneer>
10005200:	2200      	movs	r2, #0
10005202:	2300      	movs	r3, #0
10005204:	bd00      	pop	{pc}
10005206:	0002      	movs	r2, r0
10005208:	000b      	movs	r3, r1
1000520a:	2000      	movs	r0, #0
1000520c:	2100      	movs	r1, #0
1000520e:	4770      	bx	lr
10005210:	d0000000 	.word	0xd0000000
10005214:	ffffffff 	.word	0xffffffff

10005218 <y64>:
10005218:	2b00      	cmp	r3, #0
1000521a:	d000      	beq.n	1000521e <y64+0x6>
1000521c:	e0bf      	b.n	1000539e <y64_x48>
1000521e:	0c13      	lsrs	r3, r2, #16
10005220:	d128      	bne.n	10005274 <y64_x32>
10005222:	2a00      	cmp	r2, #0
10005224:	d0e7      	beq.n	100051f6 <udiv0>
10005226:	b480      	push	{r7}
10005228:	4f11      	ldr	r7, [pc, #68]	; (10005270 <y64+0x58>)
1000522a:	6639      	str	r1, [r7, #96]	; 0x60
1000522c:	667a      	str	r2, [r7, #100]	; 0x64
1000522e:	e7ff      	b.n	10005230 <y64+0x18>
10005230:	e7ff      	b.n	10005232 <y64+0x1a>
10005232:	b430      	push	{r4, r5}
10005234:	0c04      	lsrs	r4, r0, #16
10005236:	6f7b      	ldr	r3, [r7, #116]	; 0x74
10005238:	6f39      	ldr	r1, [r7, #112]	; 0x70
1000523a:	041b      	lsls	r3, r3, #16
1000523c:	4323      	orrs	r3, r4
1000523e:	663b      	str	r3, [r7, #96]	; 0x60
10005240:	667a      	str	r2, [r7, #100]	; 0x64
10005242:	e7ff      	b.n	10005244 <y64+0x2c>
10005244:	e7ff      	b.n	10005246 <y64+0x2e>
10005246:	e7ff      	b.n	10005248 <y64+0x30>
10005248:	46c0      	nop			; (mov r8, r8)
1000524a:	b284      	uxth	r4, r0
1000524c:	6f7b      	ldr	r3, [r7, #116]	; 0x74
1000524e:	6f3d      	ldr	r5, [r7, #112]	; 0x70
10005250:	041b      	lsls	r3, r3, #16
10005252:	4323      	orrs	r3, r4
10005254:	663b      	str	r3, [r7, #96]	; 0x60
10005256:	667a      	str	r2, [r7, #100]	; 0x64
10005258:	e7ff      	b.n	1000525a <y64+0x42>
1000525a:	e7ff      	b.n	1000525c <y64+0x44>
1000525c:	46c0      	nop			; (mov r8, r8)
1000525e:	2300      	movs	r3, #0
10005260:	042c      	lsls	r4, r5, #16
10005262:	0c2d      	lsrs	r5, r5, #16
10005264:	6f7a      	ldr	r2, [r7, #116]	; 0x74
10005266:	6f38      	ldr	r0, [r7, #112]	; 0x70
10005268:	1900      	adds	r0, r0, r4
1000526a:	4169      	adcs	r1, r5
1000526c:	bcb0      	pop	{r4, r5, r7}
1000526e:	4770      	bx	lr
10005270:	d0000000 	.word	0xd0000000

10005274 <y64_x32>:
10005274:	b5f0      	push	{r4, r5, r6, r7, lr}
10005276:	4694      	mov	ip, r2
10005278:	2500      	movs	r5, #0
1000527a:	0e14      	lsrs	r4, r2, #24
1000527c:	d101      	bne.n	10005282 <y64_x32+0xe>
1000527e:	0212      	lsls	r2, r2, #8
10005280:	3508      	adds	r5, #8
10005282:	0f14      	lsrs	r4, r2, #28
10005284:	d101      	bne.n	1000528a <y64_x32+0x16>
10005286:	0112      	lsls	r2, r2, #4
10005288:	3504      	adds	r5, #4
1000528a:	0f94      	lsrs	r4, r2, #30
1000528c:	d101      	bne.n	10005292 <y64_x32+0x1e>
1000528e:	0092      	lsls	r2, r2, #2
10005290:	3502      	adds	r5, #2
10005292:	0fd4      	lsrs	r4, r2, #31
10005294:	d101      	bne.n	1000529a <y64_x32+0x26>
10005296:	0052      	lsls	r2, r2, #1
10005298:	3501      	adds	r5, #1
1000529a:	0bd4      	lsrs	r4, r2, #15
1000529c:	3401      	adds	r4, #1
1000529e:	4f25      	ldr	r7, [pc, #148]	; (10005334 <y64_x32+0xc0>)
100052a0:	667c      	str	r4, [r7, #100]	; 0x64
100052a2:	4c25      	ldr	r4, [pc, #148]	; (10005338 <y64_x32+0xc4>)
100052a4:	663c      	str	r4, [r7, #96]	; 0x60
100052a6:	0c0e      	lsrs	r6, r1, #16
100052a8:	b293      	uxth	r3, r2
100052aa:	e7ff      	b.n	100052ac <y64_x32+0x38>
100052ac:	e7ff      	b.n	100052ae <y64_x32+0x3a>
100052ae:	e7ff      	b.n	100052b0 <y64_x32+0x3c>
100052b0:	6f3c      	ldr	r4, [r7, #112]	; 0x70
100052b2:	4366      	muls	r6, r4
100052b4:	0c36      	lsrs	r6, r6, #16
100052b6:	0377      	lsls	r7, r6, #13
100052b8:	46be      	mov	lr, r7
100052ba:	4373      	muls	r3, r6
100052bc:	0bdf      	lsrs	r7, r3, #15
100052be:	045b      	lsls	r3, r3, #17
100052c0:	1ac0      	subs	r0, r0, r3
100052c2:	41b9      	sbcs	r1, r7
100052c4:	0c13      	lsrs	r3, r2, #16
100052c6:	4373      	muls	r3, r6
100052c8:	18db      	adds	r3, r3, r3
100052ca:	1ac9      	subs	r1, r1, r3
100052cc:	08ce      	lsrs	r6, r1, #3
100052ce:	4366      	muls	r6, r4
100052d0:	0c36      	lsrs	r6, r6, #16
100052d2:	44b6      	add	lr, r6
100052d4:	b293      	uxth	r3, r2
100052d6:	4373      	muls	r3, r6
100052d8:	0f1f      	lsrs	r7, r3, #28
100052da:	011b      	lsls	r3, r3, #4
100052dc:	1ac0      	subs	r0, r0, r3
100052de:	41b9      	sbcs	r1, r7
100052e0:	0c13      	lsrs	r3, r2, #16
100052e2:	4373      	muls	r3, r6
100052e4:	0b1f      	lsrs	r7, r3, #12
100052e6:	051b      	lsls	r3, r3, #20
100052e8:	1ac0      	subs	r0, r0, r3
100052ea:	41b9      	sbcs	r1, r7
100052ec:	0d86      	lsrs	r6, r0, #22
100052ee:	028f      	lsls	r7, r1, #10
100052f0:	433e      	orrs	r6, r7
100052f2:	4366      	muls	r6, r4
100052f4:	0c36      	lsrs	r6, r6, #16
100052f6:	2d09      	cmp	r5, #9
100052f8:	db24      	blt.n	10005344 <last0>
100052fa:	0a52      	lsrs	r2, r2, #9
100052fc:	4372      	muls	r2, r6
100052fe:	1a80      	subs	r0, r0, r2
10005300:	0377      	lsls	r7, r6, #13
10005302:	0a46      	lsrs	r6, r0, #9
10005304:	4366      	muls	r6, r4
10005306:	0c36      	lsrs	r6, r6, #16
10005308:	2316      	movs	r3, #22
1000530a:	1b5b      	subs	r3, r3, r5
1000530c:	40de      	lsrs	r6, r3
1000530e:	40df      	lsrs	r7, r3
10005310:	19bf      	adds	r7, r7, r6
10005312:	4664      	mov	r4, ip
10005314:	4366      	muls	r6, r4
10005316:	1b82      	subs	r2, r0, r6
10005318:	4670      	mov	r0, lr
1000531a:	3504      	adds	r5, #4
1000531c:	3306      	adds	r3, #6
1000531e:	0001      	movs	r1, r0
10005320:	40d9      	lsrs	r1, r3
10005322:	40a8      	lsls	r0, r5
10005324:	19c0      	adds	r0, r0, r7
10005326:	d300      	bcc.n	1000532a <y64_x32+0xb6>
10005328:	3101      	adds	r1, #1
1000532a:	42a2      	cmp	r2, r4
1000532c:	d206      	bcs.n	1000533c <y64_x32+0xc8>
1000532e:	2300      	movs	r3, #0
10005330:	bdf0      	pop	{r4, r5, r6, r7, pc}
10005332:	0000      	.short	0x0000
10005334:	d0000000 	.word	0xd0000000
10005338:	ffffffff 	.word	0xffffffff
1000533c:	1b12      	subs	r2, r2, r4
1000533e:	3001      	adds	r0, #1
10005340:	d3f3      	bcc.n	1000532a <y64_x32+0xb6>
10005342:	e7f1      	b.n	10005328 <y64_x32+0xb4>

10005344 <last0>:
10005344:	2709      	movs	r7, #9
10005346:	1b7f      	subs	r7, r7, r5
10005348:	40fe      	lsrs	r6, r7
1000534a:	4664      	mov	r4, ip
1000534c:	b2a2      	uxth	r2, r4
1000534e:	4372      	muls	r2, r6
10005350:	1a80      	subs	r0, r0, r2
10005352:	d200      	bcs.n	10005356 <last0+0x12>
10005354:	3901      	subs	r1, #1
10005356:	0c22      	lsrs	r2, r4, #16
10005358:	4372      	muls	r2, r6
1000535a:	0c13      	lsrs	r3, r2, #16
1000535c:	0412      	lsls	r2, r2, #16
1000535e:	1a82      	subs	r2, r0, r2
10005360:	4199      	sbcs	r1, r3
10005362:	000b      	movs	r3, r1
10005364:	4670      	mov	r0, lr
10005366:	3504      	adds	r5, #4
10005368:	3713      	adds	r7, #19
1000536a:	0001      	movs	r1, r0
1000536c:	40f9      	lsrs	r1, r7
1000536e:	40a8      	lsls	r0, r5
10005370:	1980      	adds	r0, r0, r6
10005372:	d300      	bcc.n	10005376 <last0+0x32>
10005374:	3101      	adds	r1, #1
10005376:	2b00      	cmp	r3, #0
10005378:	d102      	bne.n	10005380 <last0+0x3c>
1000537a:	42a2      	cmp	r2, r4
1000537c:	d20a      	bcs.n	10005394 <last0+0x50>
1000537e:	bdf0      	pop	{r4, r5, r6, r7, pc}
10005380:	3001      	adds	r0, #1
10005382:	d300      	bcc.n	10005386 <last0+0x42>
10005384:	3101      	adds	r1, #1
10005386:	1b12      	subs	r2, r2, r4
10005388:	d2fa      	bcs.n	10005380 <last0+0x3c>
1000538a:	3b01      	subs	r3, #1
1000538c:	d1f8      	bne.n	10005380 <last0+0x3c>
1000538e:	42a2      	cmp	r2, r4
10005390:	d200      	bcs.n	10005394 <last0+0x50>
10005392:	bdf0      	pop	{r4, r5, r6, r7, pc}
10005394:	3001      	adds	r0, #1
10005396:	d300      	bcc.n	1000539a <last0+0x56>
10005398:	3101      	adds	r1, #1
1000539a:	1b12      	subs	r2, r2, r4
1000539c:	e7f7      	b.n	1000538e <last0+0x4a>

1000539e <y64_x48>:
1000539e:	b5f0      	push	{r4, r5, r6, r7, lr}
100053a0:	0c1c      	lsrs	r4, r3, #16
100053a2:	d000      	beq.n	100053a6 <y64_x48+0x8>
100053a4:	e080      	b.n	100054a8 <y64_x64>
100053a6:	b40c      	push	{r2, r3}
100053a8:	2500      	movs	r5, #0
100053aa:	0a1c      	lsrs	r4, r3, #8
100053ac:	d104      	bne.n	100053b8 <y64_x48+0x1a>
100053ae:	021b      	lsls	r3, r3, #8
100053b0:	0e16      	lsrs	r6, r2, #24
100053b2:	4333      	orrs	r3, r6
100053b4:	0212      	lsls	r2, r2, #8
100053b6:	3508      	adds	r5, #8
100053b8:	0b1c      	lsrs	r4, r3, #12
100053ba:	d104      	bne.n	100053c6 <y64_x48+0x28>
100053bc:	011b      	lsls	r3, r3, #4
100053be:	0f16      	lsrs	r6, r2, #28
100053c0:	4333      	orrs	r3, r6
100053c2:	0112      	lsls	r2, r2, #4
100053c4:	3504      	adds	r5, #4
100053c6:	0b9c      	lsrs	r4, r3, #14
100053c8:	d104      	bne.n	100053d4 <y64_x48+0x36>
100053ca:	009b      	lsls	r3, r3, #2
100053cc:	0f96      	lsrs	r6, r2, #30
100053ce:	4333      	orrs	r3, r6
100053d0:	0092      	lsls	r2, r2, #2
100053d2:	3502      	adds	r5, #2
100053d4:	0bdc      	lsrs	r4, r3, #15
100053d6:	d102      	bne.n	100053de <y64_x48+0x40>
100053d8:	1892      	adds	r2, r2, r2
100053da:	415b      	adcs	r3, r3
100053dc:	3501      	adds	r5, #1
100053de:	001c      	movs	r4, r3
100053e0:	1897      	adds	r7, r2, r2
100053e2:	4164      	adcs	r4, r4
100053e4:	3401      	adds	r4, #1
100053e6:	4f46      	ldr	r7, [pc, #280]	; (10005500 <y64_x64+0x58>)
100053e8:	667c      	str	r4, [r7, #100]	; 0x64
100053ea:	4c46      	ldr	r4, [pc, #280]	; (10005504 <y64_x64+0x5c>)
100053ec:	663c      	str	r4, [r7, #96]	; 0x60
100053ee:	0c0e      	lsrs	r6, r1, #16
100053f0:	e7ff      	b.n	100053f2 <y64_x48+0x54>
100053f2:	e7ff      	b.n	100053f4 <y64_x48+0x56>
100053f4:	e7ff      	b.n	100053f6 <y64_x48+0x58>
100053f6:	46c0      	nop			; (mov r8, r8)
100053f8:	6f3c      	ldr	r4, [r7, #112]	; 0x70
100053fa:	4366      	muls	r6, r4
100053fc:	0c36      	lsrs	r6, r6, #16
100053fe:	0377      	lsls	r7, r6, #13
10005400:	46be      	mov	lr, r7
10005402:	b297      	uxth	r7, r2
10005404:	4377      	muls	r7, r6
10005406:	1bc0      	subs	r0, r0, r7
10005408:	d200      	bcs.n	1000540c <y64_x48+0x6e>
1000540a:	3901      	subs	r1, #1
1000540c:	1bc0      	subs	r0, r0, r7
1000540e:	d200      	bcs.n	10005412 <y64_x48+0x74>
10005410:	3901      	subs	r1, #1
10005412:	b29f      	uxth	r7, r3
10005414:	4377      	muls	r7, r6
10005416:	1bc9      	subs	r1, r1, r7
10005418:	1bc9      	subs	r1, r1, r7
1000541a:	0c17      	lsrs	r7, r2, #16
1000541c:	4377      	muls	r7, r6
1000541e:	047e      	lsls	r6, r7, #17
10005420:	0bff      	lsrs	r7, r7, #15
10005422:	1b80      	subs	r0, r0, r6
10005424:	41b9      	sbcs	r1, r7
10005426:	08ce      	lsrs	r6, r1, #3
10005428:	4366      	muls	r6, r4
1000542a:	0c36      	lsrs	r6, r6, #16
1000542c:	2d0c      	cmp	r5, #12
1000542e:	db33      	blt.n	10005498 <last1>
10005430:	44b6      	add	lr, r6
10005432:	0b12      	lsrs	r2, r2, #12
10005434:	051f      	lsls	r7, r3, #20
10005436:	433a      	orrs	r2, r7
10005438:	0b1b      	lsrs	r3, r3, #12
1000543a:	b297      	uxth	r7, r2
1000543c:	4377      	muls	r7, r6
1000543e:	1bc0      	subs	r0, r0, r7
10005440:	d200      	bcs.n	10005444 <y64_x48+0xa6>
10005442:	3901      	subs	r1, #1
10005444:	b29f      	uxth	r7, r3
10005446:	4377      	muls	r7, r6
10005448:	1bc9      	subs	r1, r1, r7
1000544a:	0c17      	lsrs	r7, r2, #16
1000544c:	4377      	muls	r7, r6
1000544e:	043e      	lsls	r6, r7, #16
10005450:	0c3f      	lsrs	r7, r7, #16
10005452:	1b80      	subs	r0, r0, r6
10005454:	41b9      	sbcs	r1, r7
10005456:	0d86      	lsrs	r6, r0, #22
10005458:	028f      	lsls	r7, r1, #10
1000545a:	433e      	orrs	r6, r7
1000545c:	4366      	muls	r6, r4
1000545e:	2729      	movs	r7, #41	; 0x29
10005460:	1b7f      	subs	r7, r7, r5
10005462:	40fe      	lsrs	r6, r7
10005464:	3d0c      	subs	r5, #12
10005466:	4677      	mov	r7, lr
10005468:	40af      	lsls	r7, r5
1000546a:	19bf      	adds	r7, r7, r6
1000546c:	bc30      	pop	{r4, r5}
1000546e:	b2a2      	uxth	r2, r4
10005470:	b2ab      	uxth	r3, r5
10005472:	4372      	muls	r2, r6
10005474:	4373      	muls	r3, r6
10005476:	1a80      	subs	r0, r0, r2
10005478:	4199      	sbcs	r1, r3
1000547a:	0c22      	lsrs	r2, r4, #16
1000547c:	4372      	muls	r2, r6
1000547e:	0c13      	lsrs	r3, r2, #16
10005480:	0412      	lsls	r2, r2, #16
10005482:	1a80      	subs	r0, r0, r2
10005484:	4199      	sbcs	r1, r3
10005486:	0002      	movs	r2, r0
10005488:	000b      	movs	r3, r1
1000548a:	3701      	adds	r7, #1
1000548c:	1b00      	subs	r0, r0, r4
1000548e:	41a9      	sbcs	r1, r5
10005490:	d2f9      	bcs.n	10005486 <y64_x48+0xe8>
10005492:	1e78      	subs	r0, r7, #1
10005494:	2100      	movs	r1, #0
10005496:	bdf0      	pop	{r4, r5, r6, r7, pc}

10005498 <last1>:
10005498:	270c      	movs	r7, #12
1000549a:	1b7f      	subs	r7, r7, r5
1000549c:	40fe      	lsrs	r6, r7
1000549e:	4677      	mov	r7, lr
100054a0:	0b7f      	lsrs	r7, r7, #13
100054a2:	40af      	lsls	r7, r5
100054a4:	19ff      	adds	r7, r7, r7
100054a6:	e7e0      	b.n	1000546a <y64_x48+0xcc>

100054a8 <y64_x64>:
100054a8:	2400      	movs	r4, #0
100054aa:	1c5d      	adds	r5, r3, #1
100054ac:	d007      	beq.n	100054be <y64_x64+0x16>
100054ae:	4f14      	ldr	r7, [pc, #80]	; (10005500 <y64_x64+0x58>)
100054b0:	667d      	str	r5, [r7, #100]	; 0x64
100054b2:	6639      	str	r1, [r7, #96]	; 0x60
100054b4:	e7ff      	b.n	100054b6 <y64_x64+0xe>
100054b6:	e7ff      	b.n	100054b8 <y64_x64+0x10>
100054b8:	e7ff      	b.n	100054ba <y64_x64+0x12>
100054ba:	e7ff      	b.n	100054bc <y64_x64+0x14>
100054bc:	6f3c      	ldr	r4, [r7, #112]	; 0x70
100054be:	b295      	uxth	r5, r2
100054c0:	b29e      	uxth	r6, r3
100054c2:	4365      	muls	r5, r4
100054c4:	4366      	muls	r6, r4
100054c6:	1b40      	subs	r0, r0, r5
100054c8:	41b1      	sbcs	r1, r6
100054ca:	0c15      	lsrs	r5, r2, #16
100054cc:	0c1e      	lsrs	r6, r3, #16
100054ce:	4365      	muls	r5, r4
100054d0:	4366      	muls	r6, r4
100054d2:	0436      	lsls	r6, r6, #16
100054d4:	0c2f      	lsrs	r7, r5, #16
100054d6:	433e      	orrs	r6, r7
100054d8:	042d      	lsls	r5, r5, #16
100054da:	1b40      	subs	r0, r0, r5
100054dc:	41b1      	sbcs	r1, r6
100054de:	4299      	cmp	r1, r3
100054e0:	d204      	bcs.n	100054ec <y64_x64+0x44>
100054e2:	0002      	movs	r2, r0
100054e4:	000b      	movs	r3, r1
100054e6:	0020      	movs	r0, r4
100054e8:	2100      	movs	r1, #0
100054ea:	bdf0      	pop	{r4, r5, r6, r7, pc}
100054ec:	d101      	bne.n	100054f2 <y64_x64+0x4a>
100054ee:	4290      	cmp	r0, r2
100054f0:	d3f7      	bcc.n	100054e2 <y64_x64+0x3a>
100054f2:	1a80      	subs	r0, r0, r2
100054f4:	4199      	sbcs	r1, r3
100054f6:	3401      	adds	r4, #1
100054f8:	4299      	cmp	r1, r3
100054fa:	d3f2      	bcc.n	100054e2 <y64_x64+0x3a>
100054fc:	e7f6      	b.n	100054ec <y64_x64+0x44>
100054fe:	0000      	.short	0x0000
10005500:	d0000000 	.word	0xd0000000
10005504:	ffffffff 	.word	0xffffffff

10005508 <__wrap___aeabi_drsub>:
10005508:	4048      	eors	r0, r1
1000550a:	4041      	eors	r1, r0
1000550c:	4048      	eors	r0, r1

1000550e <__wrap___aeabi_dsub>:
1000550e:	b418      	push	{r3, r4}
10005510:	4b1b      	ldr	r3, [pc, #108]	; (10005580 <__wrap___aeabi_dmul+0x12>)
10005512:	685b      	ldr	r3, [r3, #4]
10005514:	46fc      	mov	ip, pc
10005516:	9301      	str	r3, [sp, #4]
10005518:	bd08      	pop	{r3, pc}
1000551a:	df04      	.short	0xdf04
1000551c:	100057d3 	.word	0x100057d3

10005520 <__wrap___aeabi_dadd>:
10005520:	b418      	push	{r3, r4}
10005522:	4b17      	ldr	r3, [pc, #92]	; (10005580 <__wrap___aeabi_dmul+0x12>)
10005524:	681b      	ldr	r3, [r3, #0]
10005526:	46fc      	mov	ip, pc
10005528:	9301      	str	r3, [sp, #4]
1000552a:	bd08      	pop	{r3, pc}
1000552c:	57dddf00 	.word	0x57dddf00
10005530:	1000      	.short	0x1000

10005532 <__wrap___aeabi_ddiv>:
10005532:	4694      	mov	ip, r2
10005534:	4a13      	ldr	r2, [pc, #76]	; (10005584 <__wrap___aeabi_dmul+0x16>)
10005536:	6f92      	ldr	r2, [r2, #120]	; 0x78
10005538:	0892      	lsrs	r2, r2, #2
1000553a:	d209      	bcs.n	10005550 <ddiv_save_state>
1000553c:	4662      	mov	r2, ip

1000553e <ddiv_shim_call>:
1000553e:	b418      	push	{r3, r4}
10005540:	4b0f      	ldr	r3, [pc, #60]	; (10005580 <__wrap___aeabi_dmul+0x12>)
10005542:	68db      	ldr	r3, [r3, #12]
10005544:	46fc      	mov	ip, pc
10005546:	9301      	str	r3, [sp, #4]
10005548:	bd08      	pop	{r3, pc}
1000554a:	df0c      	.short	0xdf0c
1000554c:	10005a95 	.word	0x10005a95

10005550 <ddiv_save_state>:
10005550:	4a0c      	ldr	r2, [pc, #48]	; (10005584 <__wrap___aeabi_dmul+0x16>)
10005552:	b5f0      	push	{r4, r5, r6, r7, lr}
10005554:	6e14      	ldr	r4, [r2, #96]	; 0x60
10005556:	6e55      	ldr	r5, [r2, #100]	; 0x64
10005558:	6f57      	ldr	r7, [r2, #116]	; 0x74
1000555a:	6f16      	ldr	r6, [r2, #112]	; 0x70
1000555c:	4662      	mov	r2, ip
1000555e:	f7ff ffee 	bl	1000553e <ddiv_shim_call>
10005562:	4a08      	ldr	r2, [pc, #32]	; (10005584 <__wrap___aeabi_dmul+0x16>)
10005564:	6614      	str	r4, [r2, #96]	; 0x60
10005566:	6655      	str	r5, [r2, #100]	; 0x64
10005568:	6757      	str	r7, [r2, #116]	; 0x74
1000556a:	6716      	str	r6, [r2, #112]	; 0x70
1000556c:	bdf0      	pop	{r4, r5, r6, r7, pc}

1000556e <__wrap___aeabi_dmul>:
1000556e:	b418      	push	{r3, r4}
10005570:	4b03      	ldr	r3, [pc, #12]	; (10005580 <__wrap___aeabi_dmul+0x12>)
10005572:	689b      	ldr	r3, [r3, #8]
10005574:	46fc      	mov	ip, pc
10005576:	9301      	str	r3, [sp, #4]
10005578:	bd08      	pop	{r3, pc}
1000557a:	df08      	.short	0xdf08
1000557c:	10005939 	.word	0x10005939
10005580:	200018b0 	.word	0x200018b0
10005584:	d0000000 	.word	0xd0000000

10005588 <__wrap___aeabi_cdrcmple>:
10005588:	b5ff      	push	{r0, r1, r2, r3, r4, r5, r6, r7, lr}
1000558a:	4050      	eors	r0, r2
1000558c:	4042      	eors	r2, r0
1000558e:	4050      	eors	r0, r2
10005590:	4059      	eors	r1, r3
10005592:	404b      	eors	r3, r1
10005594:	4059      	eors	r1, r3
10005596:	e000      	b.n	1000559a <__aeabi_dfcmple_guts>

10005598 <__wrap___aeabi_cdcmpeq>:
10005598:	b5ff      	push	{r0, r1, r2, r3, r4, r5, r6, r7, lr}

1000559a <__aeabi_dfcmple_guts>:
1000559a:	4f15      	ldr	r7, [pc, #84]	; (100055f0 <__aeabi_dfcmple_guts+0x56>)
1000559c:	004c      	lsls	r4, r1, #1
1000559e:	0d64      	lsrs	r4, r4, #21
100055a0:	d003      	beq.n	100055aa <__aeabi_dfcmple_guts+0x10>
100055a2:	42bc      	cmp	r4, r7
100055a4:	d104      	bne.n	100055b0 <__aeabi_dfcmple_guts+0x16>
100055a6:	030c      	lsls	r4, r1, #12
100055a8:	d814      	bhi.n	100055d4 <__aeabi_dfcmple_guts+0x3a>
100055aa:	2000      	movs	r0, #0
100055ac:	0d09      	lsrs	r1, r1, #20
100055ae:	0509      	lsls	r1, r1, #20
100055b0:	005c      	lsls	r4, r3, #1
100055b2:	0d64      	lsrs	r4, r4, #21
100055b4:	d003      	beq.n	100055be <__aeabi_dfcmple_guts+0x24>
100055b6:	42bc      	cmp	r4, r7
100055b8:	d104      	bne.n	100055c4 <__aeabi_dfcmple_guts+0x2a>
100055ba:	031c      	lsls	r4, r3, #12
100055bc:	d80a      	bhi.n	100055d4 <__aeabi_dfcmple_guts+0x3a>
100055be:	2200      	movs	r2, #0
100055c0:	0d1b      	lsrs	r3, r3, #20
100055c2:	051b      	lsls	r3, r3, #20
100055c4:	2601      	movs	r6, #1
100055c6:	404b      	eors	r3, r1
100055c8:	d409      	bmi.n	100055de <__aeabi_dfcmple_guts+0x44>
100055ca:	404b      	eors	r3, r1
100055cc:	d503      	bpl.n	100055d6 <__aeabi_dfcmple_guts+0x3c>
100055ce:	428b      	cmp	r3, r1
100055d0:	d100      	bne.n	100055d4 <__aeabi_dfcmple_guts+0x3a>
100055d2:	4282      	cmp	r2, r0
100055d4:	bdff      	pop	{r0, r1, r2, r3, r4, r5, r6, r7, pc}
100055d6:	4299      	cmp	r1, r3
100055d8:	d1fc      	bne.n	100055d4 <__aeabi_dfcmple_guts+0x3a>
100055da:	4290      	cmp	r0, r2
100055dc:	bdff      	pop	{r0, r1, r2, r3, r4, r5, r6, r7, pc}
100055de:	430b      	orrs	r3, r1
100055e0:	18db      	adds	r3, r3, r3
100055e2:	4303      	orrs	r3, r0
100055e4:	4313      	orrs	r3, r2
100055e6:	d0f5      	beq.n	100055d4 <__aeabi_dfcmple_guts+0x3a>
100055e8:	43c9      	mvns	r1, r1
100055ea:	1849      	adds	r1, r1, r1
100055ec:	bdff      	pop	{r0, r1, r2, r3, r4, r5, r6, r7, pc}
100055ee:	0000      	.short	0x0000
100055f0:	000007ff 	.word	0x000007ff

100055f4 <__wrap___aeabi_dcmplt>:
100055f4:	b500      	push	{lr}
100055f6:	f7ff ffcf 	bl	10005598 <__wrap___aeabi_cdcmpeq>
100055fa:	4180      	sbcs	r0, r0
100055fc:	bd00      	pop	{pc}
100055fe:	46c0      	nop			; (mov r8, r8)

10005600 <__wrap___aeabi_dcmple>:
10005600:	b500      	push	{lr}
10005602:	f7ff ffc9 	bl	10005598 <__wrap___aeabi_cdcmpeq>
10005606:	d901      	bls.n	1000560c <__wrap___aeabi_dcmple+0xc>
10005608:	2000      	movs	r0, #0
1000560a:	bd00      	pop	{pc}
1000560c:	2001      	movs	r0, #1
1000560e:	bd00      	pop	{pc}

10005610 <__wrap___aeabi_dcmpge>:
10005610:	b500      	push	{lr}
10005612:	f7ff ffb9 	bl	10005588 <__wrap___aeabi_cdrcmple>
10005616:	d901      	bls.n	1000561c <__wrap___aeabi_dcmpge+0xc>
10005618:	2000      	movs	r0, #0
1000561a:	bd00      	pop	{pc}
1000561c:	2001      	movs	r0, #1
1000561e:	bd00      	pop	{pc}

10005620 <__wrap___aeabi_dcmpgt>:
10005620:	b500      	push	{lr}
10005622:	f7ff ffb1 	bl	10005588 <__wrap___aeabi_cdrcmple>
10005626:	4180      	sbcs	r0, r0
10005628:	bd00      	pop	{pc}

1000562a <__wrap___aeabi_dcmpun>:
1000562a:	2001      	movs	r0, #1
1000562c:	0540      	lsls	r0, r0, #21
1000562e:	004a      	lsls	r2, r1, #1
10005630:	1812      	adds	r2, r2, r0
10005632:	d804      	bhi.n	1000563e <__wrap___aeabi_dcmpun+0x14>
10005634:	005a      	lsls	r2, r3, #1
10005636:	1812      	adds	r2, r2, r0
10005638:	d801      	bhi.n	1000563e <__wrap___aeabi_dcmpun+0x14>
1000563a:	2000      	movs	r0, #0
1000563c:	4770      	bx	lr
1000563e:	2001      	movs	r0, #1
10005640:	4770      	bx	lr
10005642:	2000      	movs	r0, #0
10005644:	4770      	bx	lr
	...

10005648 <__wrap___aeabi_ui2d>:
10005648:	2100      	movs	r1, #0
1000564a:	2800      	cmp	r0, #0
1000564c:	d105      	bne.n	1000565a <__wrap___aeabi_i2d+0xa>
1000564e:	4770      	bx	lr

10005650 <__wrap___aeabi_i2d>:
10005650:	17c1      	asrs	r1, r0, #31
10005652:	4048      	eors	r0, r1
10005654:	1a40      	subs	r0, r0, r1
10005656:	d0fa      	beq.n	1000564e <__wrap___aeabi_ui2d+0x6>
10005658:	07c9      	lsls	r1, r1, #31
1000565a:	b513      	push	{r0, r1, r4, lr}
1000565c:	4b06      	ldr	r3, [pc, #24]	; (10005678 <__wrap___aeabi_i2d+0x28>)
1000565e:	681b      	ldr	r3, [r3, #0]
10005660:	4798      	blx	r3
10005662:	bc0c      	pop	{r2, r3}
10005664:	1c44      	adds	r4, r0, #1
10005666:	40a2      	lsls	r2, r4
10005668:	0510      	lsls	r0, r2, #20
1000566a:	0b12      	lsrs	r2, r2, #12
1000566c:	4903      	ldr	r1, [pc, #12]	; (1000567c <__wrap___aeabi_i2d+0x2c>)
1000566e:	1b09      	subs	r1, r1, r4
10005670:	0509      	lsls	r1, r1, #20
10005672:	4319      	orrs	r1, r3
10005674:	4311      	orrs	r1, r2
10005676:	bd10      	pop	{r4, pc}
10005678:	20001874 	.word	0x20001874
1000567c:	0000041f 	.word	0x0000041f

10005680 <__wrap___aeabi_d2iz>:
10005680:	b510      	push	{r4, lr}
10005682:	004c      	lsls	r4, r1, #1
10005684:	0d62      	lsrs	r2, r4, #21
10005686:	2380      	movs	r3, #128	; 0x80
10005688:	18d2      	adds	r2, r2, r3
1000568a:	00db      	lsls	r3, r3, #3
1000568c:	1ad2      	subs	r2, r2, r3
1000568e:	055b      	lsls	r3, r3, #21
10005690:	2a7e      	cmp	r2, #126	; 0x7e
10005692:	dd10      	ble.n	100056b6 <__wrap___aeabi_d2iz+0x36>
10005694:	3a9e      	subs	r2, #158	; 0x9e
10005696:	da13      	bge.n	100056c0 <__wrap___aeabi_d2iz+0x40>
10005698:	17cc      	asrs	r4, r1, #31
1000569a:	0309      	lsls	r1, r1, #12
1000569c:	0849      	lsrs	r1, r1, #1
1000569e:	4319      	orrs	r1, r3
100056a0:	4252      	negs	r2, r2
100056a2:	40d1      	lsrs	r1, r2
100056a4:	0064      	lsls	r4, r4, #1
100056a6:	3401      	adds	r4, #1
100056a8:	3215      	adds	r2, #21
100056aa:	2a20      	cmp	r2, #32
100056ac:	da05      	bge.n	100056ba <__wrap___aeabi_d2iz+0x3a>
100056ae:	40d0      	lsrs	r0, r2
100056b0:	4308      	orrs	r0, r1
100056b2:	4360      	muls	r0, r4
100056b4:	bd10      	pop	{r4, pc}
100056b6:	2000      	movs	r0, #0
100056b8:	bd10      	pop	{r4, pc}
100056ba:	4608      	mov	r0, r1
100056bc:	4360      	muls	r0, r4
100056be:	bd10      	pop	{r4, pc}
100056c0:	0fc8      	lsrs	r0, r1, #31
100056c2:	18c0      	adds	r0, r0, r3
100056c4:	3801      	subs	r0, #1
100056c6:	bd10      	pop	{r4, pc}

100056c8 <__wrap___aeabi_d2uiz>:
100056c8:	b418      	push	{r3, r4}
100056ca:	4b04      	ldr	r3, [pc, #16]	; (100056dc <__wrap___aeabi_d2uiz+0x14>)
100056cc:	6a5b      	ldr	r3, [r3, #36]	; 0x24
100056ce:	46fc      	mov	ip, pc
100056d0:	9301      	str	r3, [sp, #4]
100056d2:	bd08      	pop	{r3, pc}
100056d4:	5c45df24 	.word	0x5c45df24
100056d8:	00001000 	.word	0x00001000
100056dc:	200018b0 	.word	0x200018b0

100056e0 <__aeabi_double_init>:
100056e0:	2313      	movs	r3, #19
100056e2:	b570      	push	{r4, r5, r6, lr}
100056e4:	781d      	ldrb	r5, [r3, #0]
100056e6:	2d01      	cmp	r5, #1
100056e8:	d015      	beq.n	10005716 <__aeabi_double_init+0x36>
100056ea:	dd10      	ble.n	1000570e <__aeabi_double_init+0x2e>
100056ec:	4827      	ldr	r0, [pc, #156]	; (1000578c <__aeabi_double_init+0xac>)
100056ee:	f7ff fc7d 	bl	10004fec <rom_data_lookup>
100056f2:	4c27      	ldr	r4, [pc, #156]	; (10005790 <__aeabi_double_init+0xb0>)
100056f4:	0001      	movs	r1, r0
100056f6:	2280      	movs	r2, #128	; 0x80
100056f8:	0020      	movs	r0, r4
100056fa:	f000 fb75 	bl	10005de8 <__wrap___aeabi_memcpy>
100056fe:	2d02      	cmp	r5, #2
10005700:	d006      	beq.n	10005710 <__aeabi_double_init+0x30>
10005702:	4824      	ldr	r0, [pc, #144]	; (10005794 <__aeabi_double_init+0xb4>)
10005704:	f7ff fc6a 	bl	10004fdc <rom_func_lookup>
10005708:	4b23      	ldr	r3, [pc, #140]	; (10005798 <__aeabi_double_init+0xb8>)
1000570a:	6018      	str	r0, [r3, #0]
1000570c:	bd70      	pop	{r4, r5, r6, pc}
1000570e:	4c20      	ldr	r4, [pc, #128]	; (10005790 <__aeabi_double_init+0xb0>)
10005710:	4a22      	ldr	r2, [pc, #136]	; (1000579c <__aeabi_double_init+0xbc>)
10005712:	64a2      	str	r2, [r4, #72]	; 0x48
10005714:	e7f5      	b.n	10005702 <__aeabi_double_init+0x22>
10005716:	002e      	movs	r6, r5
10005718:	4c1d      	ldr	r4, [pc, #116]	; (10005790 <__aeabi_double_init+0xb0>)
1000571a:	4a20      	ldr	r2, [pc, #128]	; (1000579c <__aeabi_double_init+0xbc>)
1000571c:	08a3      	lsrs	r3, r4, #2
1000571e:	425b      	negs	r3, r3
10005720:	401e      	ands	r6, r3
10005722:	421d      	tst	r5, r3
10005724:	d02f      	beq.n	10005786 <__aeabi_double_init+0xa6>
10005726:	0033      	movs	r3, r6
10005728:	6022      	str	r2, [r4, #0]
1000572a:	2020      	movs	r0, #32
1000572c:	00b1      	lsls	r1, r6, #2
1000572e:	1861      	adds	r1, r4, r1
10005730:	1b80      	subs	r0, r0, r6
10005732:	600a      	str	r2, [r1, #0]
10005734:	604a      	str	r2, [r1, #4]
10005736:	608a      	str	r2, [r1, #8]
10005738:	60ca      	str	r2, [r1, #12]
1000573a:	610a      	str	r2, [r1, #16]
1000573c:	614a      	str	r2, [r1, #20]
1000573e:	618a      	str	r2, [r1, #24]
10005740:	61ca      	str	r2, [r1, #28]
10005742:	620a      	str	r2, [r1, #32]
10005744:	624a      	str	r2, [r1, #36]	; 0x24
10005746:	628a      	str	r2, [r1, #40]	; 0x28
10005748:	62ca      	str	r2, [r1, #44]	; 0x2c
1000574a:	630a      	str	r2, [r1, #48]	; 0x30
1000574c:	634a      	str	r2, [r1, #52]	; 0x34
1000574e:	638a      	str	r2, [r1, #56]	; 0x38
10005750:	63ca      	str	r2, [r1, #60]	; 0x3c
10005752:	640a      	str	r2, [r1, #64]	; 0x40
10005754:	644a      	str	r2, [r1, #68]	; 0x44
10005756:	648a      	str	r2, [r1, #72]	; 0x48
10005758:	64ca      	str	r2, [r1, #76]	; 0x4c
1000575a:	650a      	str	r2, [r1, #80]	; 0x50
1000575c:	654a      	str	r2, [r1, #84]	; 0x54
1000575e:	658a      	str	r2, [r1, #88]	; 0x58
10005760:	65ca      	str	r2, [r1, #92]	; 0x5c
10005762:	660a      	str	r2, [r1, #96]	; 0x60
10005764:	664a      	str	r2, [r1, #100]	; 0x64
10005766:	668a      	str	r2, [r1, #104]	; 0x68
10005768:	66ca      	str	r2, [r1, #108]	; 0x6c
1000576a:	670a      	str	r2, [r1, #112]	; 0x70
1000576c:	674a      	str	r2, [r1, #116]	; 0x74
1000576e:	0840      	lsrs	r0, r0, #1
10005770:	2810      	cmp	r0, #16
10005772:	d103      	bne.n	1000577c <__aeabi_double_init+0x9c>
10005774:	678a      	str	r2, [r1, #120]	; 0x78
10005776:	67ca      	str	r2, [r1, #124]	; 0x7c
10005778:	64a2      	str	r2, [r4, #72]	; 0x48
1000577a:	e7c2      	b.n	10005702 <__aeabi_double_init+0x22>
1000577c:	331e      	adds	r3, #30
1000577e:	009b      	lsls	r3, r3, #2
10005780:	50e2      	str	r2, [r4, r3]
10005782:	64a2      	str	r2, [r4, #72]	; 0x48
10005784:	e7bd      	b.n	10005702 <__aeabi_double_init+0x22>
10005786:	2300      	movs	r3, #0
10005788:	e7cf      	b.n	1000572a <__aeabi_double_init+0x4a>
1000578a:	46c0      	nop			; (mov r8, r8)
1000578c:	00004453 	.word	0x00004453
10005790:	200018b0 	.word	0x200018b0
10005794:	0000334c 	.word	0x0000334c
10005798:	20001874 	.word	0x20001874
1000579c:	100057a1 	.word	0x100057a1

100057a0 <double_table_shim_on_use_helper>:
100057a0:	b507      	push	{r0, r1, r2, lr}
100057a2:	4660      	mov	r0, ip
100057a4:	8801      	ldrh	r1, [r0, #0]
100057a6:	0a0a      	lsrs	r2, r1, #8
100057a8:	3002      	adds	r0, #2
100057aa:	2adf      	cmp	r2, #223	; 0xdf
100057ac:	d1fa      	bne.n	100057a4 <double_table_shim_on_use_helper+0x4>
100057ae:	b2c9      	uxtb	r1, r1
100057b0:	0882      	lsrs	r2, r0, #2
100057b2:	d304      	bcc.n	100057be <double_table_shim_on_use_helper+0x1e>
100057b4:	8802      	ldrh	r2, [r0, #0]
100057b6:	8840      	ldrh	r0, [r0, #2]
100057b8:	0400      	lsls	r0, r0, #16
100057ba:	4310      	orrs	r0, r2
100057bc:	e000      	b.n	100057c0 <double_table_shim_on_use_helper+0x20>
100057be:	6800      	ldr	r0, [r0, #0]
100057c0:	4a01      	ldr	r2, [pc, #4]	; (100057c8 <double_table_shim_on_use_helper+0x28>)
100057c2:	5050      	str	r0, [r2, r1]
100057c4:	9003      	str	r0, [sp, #12]
100057c6:	bd07      	pop	{r0, r1, r2, pc}
100057c8:	200018b0 	.word	0x200018b0

100057cc <drsub_shim>:
100057cc:	b40f      	push	{r0, r1, r2, r3}
100057ce:	bc03      	pop	{r0, r1}
100057d0:	bc0c      	pop	{r2, r3}

100057d2 <dsub_shim>:
100057d2:	b5f0      	push	{r4, r5, r6, r7, lr}
100057d4:	2401      	movs	r4, #1
100057d6:	07e4      	lsls	r4, r4, #31
100057d8:	4063      	eors	r3, r4
100057da:	e000      	b.n	100057de <da_entry>

100057dc <dadd_shim>:
100057dc:	b5f0      	push	{r4, r5, r6, r7, lr}

100057de <da_entry>:
100057de:	0d0c      	lsrs	r4, r1, #20
100057e0:	0fcf      	lsrs	r7, r1, #31
100057e2:	1e66      	subs	r6, r4, #1
100057e4:	0536      	lsls	r6, r6, #20
100057e6:	1b89      	subs	r1, r1, r6
100057e8:	0564      	lsls	r4, r4, #21
100057ea:	d303      	bcc.n	100057f4 <l7_1>
100057ec:	43c9      	mvns	r1, r1
100057ee:	4240      	negs	r0, r0
100057f0:	d300      	bcc.n	100057f4 <l7_1>
100057f2:	3101      	adds	r1, #1

100057f4 <l7_1>:
100057f4:	0d64      	lsrs	r4, r4, #21
100057f6:	d003      	beq.n	10005800 <l7_2>
100057f8:	1c66      	adds	r6, r4, #1
100057fa:	0af6      	lsrs	r6, r6, #11
100057fc:	d007      	beq.n	1000580e <l7_3>
100057fe:	1be4      	subs	r4, r4, r7

10005800 <l7_2>:
10005800:	2000      	movs	r0, #0
10005802:	007f      	lsls	r7, r7, #1
10005804:	1c79      	adds	r1, r7, #1
10005806:	0789      	lsls	r1, r1, #30
10005808:	1289      	asrs	r1, r1, #10
1000580a:	3c80      	subs	r4, #128	; 0x80
1000580c:	0324      	lsls	r4, r4, #12

1000580e <l7_3>:
1000580e:	0d1d      	lsrs	r5, r3, #20
10005810:	0fdf      	lsrs	r7, r3, #31
10005812:	1e6e      	subs	r6, r5, #1
10005814:	0536      	lsls	r6, r6, #20
10005816:	1b9b      	subs	r3, r3, r6
10005818:	056d      	lsls	r5, r5, #21
1000581a:	d303      	bcc.n	10005824 <l8_1>
1000581c:	43db      	mvns	r3, r3
1000581e:	4252      	negs	r2, r2
10005820:	d300      	bcc.n	10005824 <l8_1>
10005822:	3301      	adds	r3, #1

10005824 <l8_1>:
10005824:	0d6d      	lsrs	r5, r5, #21
10005826:	d003      	beq.n	10005830 <l8_2>
10005828:	1c6e      	adds	r6, r5, #1
1000582a:	0af6      	lsrs	r6, r6, #11
1000582c:	d007      	beq.n	1000583e <l8_3>
1000582e:	1bed      	subs	r5, r5, r7

10005830 <l8_2>:
10005830:	2200      	movs	r2, #0
10005832:	007f      	lsls	r7, r7, #1
10005834:	1c7b      	adds	r3, r7, #1
10005836:	079b      	lsls	r3, r3, #30
10005838:	129b      	asrs	r3, r3, #10
1000583a:	3d80      	subs	r5, #128	; 0x80
1000583c:	032d      	lsls	r5, r5, #12

1000583e <l8_3>:
1000583e:	1b2f      	subs	r7, r5, r4
10005840:	1b66      	subs	r6, r4, r5
10005842:	d458      	bmi.n	100058f6 <da_ygtx>
10005844:	46a4      	mov	ip, r4
10005846:	2e20      	cmp	r6, #32
10005848:	da46      	bge.n	100058d8 <da_xrgty>
1000584a:	3720      	adds	r7, #32
1000584c:	0014      	movs	r4, r2
1000584e:	40bc      	lsls	r4, r7

10005850 <da_xgty0>:
10005850:	001d      	movs	r5, r3
10005852:	40bd      	lsls	r5, r7
10005854:	40f2      	lsrs	r2, r6
10005856:	4133      	asrs	r3, r6
10005858:	432a      	orrs	r2, r5

1000585a <da_add>:
1000585a:	1880      	adds	r0, r0, r2
1000585c:	4159      	adcs	r1, r3

1000585e <da_pack>:
1000585e:	0fcb      	lsrs	r3, r1, #31
10005860:	d005      	beq.n	1000586e <da_pack+0x10>
10005862:	43c9      	mvns	r1, r1
10005864:	43c0      	mvns	r0, r0
10005866:	2200      	movs	r2, #0
10005868:	4264      	negs	r4, r4
1000586a:	4150      	adcs	r0, r2
1000586c:	4151      	adcs	r1, r2
1000586e:	4662      	mov	r2, ip
10005870:	0d4d      	lsrs	r5, r1, #21
10005872:	d128      	bne.n	100058c6 <da_0>
10005874:	0d0d      	lsrs	r5, r1, #20
10005876:	d107      	bne.n	10005888 <da_1>
10005878:	2800      	cmp	r0, #0
1000587a:	d01f      	beq.n	100058bc <da_5>

1000587c <da_2>:
1000587c:	1924      	adds	r4, r4, r4
1000587e:	4140      	adcs	r0, r0
10005880:	4149      	adcs	r1, r1
10005882:	3a01      	subs	r2, #1
10005884:	0d0d      	lsrs	r5, r1, #20
10005886:	d0f9      	beq.n	1000587c <da_2>

10005888 <da_1>:
10005888:	0064      	lsls	r4, r4, #1
1000588a:	d306      	bcc.n	1000589a <da_3>

1000588c <da_4>:
1000588c:	3001      	adds	r0, #1
1000588e:	d300      	bcc.n	10005892 <da_4+0x6>
10005890:	3101      	adds	r1, #1
10005892:	2c00      	cmp	r4, #0
10005894:	d101      	bne.n	1000589a <da_3>
10005896:	0840      	lsrs	r0, r0, #1
10005898:	0040      	lsls	r0, r0, #1

1000589a <da_3>:
1000589a:	3a01      	subs	r2, #1
1000589c:	d40b      	bmi.n	100058b6 <da_6>
1000589e:	1c94      	adds	r4, r2, #2
100058a0:	0ae4      	lsrs	r4, r4, #11
100058a2:	d104      	bne.n	100058ae <da_7>
100058a4:	0512      	lsls	r2, r2, #20
100058a6:	4411      	add	r1, r2
100058a8:	07db      	lsls	r3, r3, #31
100058aa:	4419      	add	r1, r3
100058ac:	bdf0      	pop	{r4, r5, r6, r7, pc}

100058ae <da_7>:
100058ae:	07d9      	lsls	r1, r3, #31
100058b0:	4b20      	ldr	r3, [pc, #128]	; (10005934 <da_xmgty+0x4>)
100058b2:	4319      	orrs	r1, r3
100058b4:	e000      	b.n	100058b8 <da_6+0x2>

100058b6 <da_6>:
100058b6:	07d9      	lsls	r1, r3, #31
100058b8:	2000      	movs	r0, #0
100058ba:	bdf0      	pop	{r4, r5, r6, r7, pc}

100058bc <da_5>:
100058bc:	2900      	cmp	r1, #0
100058be:	d1dd      	bne.n	1000587c <da_2>
100058c0:	2c00      	cmp	r4, #0
100058c2:	d1db      	bne.n	1000587c <da_2>
100058c4:	bdf0      	pop	{r4, r5, r6, r7, pc}

100058c6 <da_0>:
100058c6:	3201      	adds	r2, #1
100058c8:	07c6      	lsls	r6, r0, #31
100058ca:	0840      	lsrs	r0, r0, #1
100058cc:	07cd      	lsls	r5, r1, #31
100058ce:	4328      	orrs	r0, r5
100058d0:	0849      	lsrs	r1, r1, #1
100058d2:	2e00      	cmp	r6, #0
100058d4:	d0e1      	beq.n	1000589a <da_3>
100058d6:	e7d9      	b.n	1000588c <da_4>

100058d8 <da_xrgty>:
100058d8:	2e3c      	cmp	r6, #60	; 0x3c
100058da:	da29      	bge.n	10005930 <da_xmgty>
100058dc:	3e20      	subs	r6, #32
100058de:	3740      	adds	r7, #64	; 0x40
100058e0:	0014      	movs	r4, r2
100058e2:	40bc      	lsls	r4, r7
100058e4:	d000      	beq.n	100058e8 <da_xrgty+0x10>
100058e6:	2401      	movs	r4, #1
100058e8:	40f2      	lsrs	r2, r6
100058ea:	4314      	orrs	r4, r2
100058ec:	001a      	movs	r2, r3
100058ee:	40bb      	lsls	r3, r7
100058f0:	431c      	orrs	r4, r3
100058f2:	17d3      	asrs	r3, r2, #31
100058f4:	e7ac      	b.n	10005850 <da_xgty0>

100058f6 <da_ygtx>:
100058f6:	46ac      	mov	ip, r5
100058f8:	2f20      	cmp	r7, #32
100058fa:	da08      	bge.n	1000590e <da_yrgtx>
100058fc:	3620      	adds	r6, #32
100058fe:	0004      	movs	r4, r0
10005900:	40b4      	lsls	r4, r6

10005902 <da_ygtx0>:
10005902:	000d      	movs	r5, r1
10005904:	40b5      	lsls	r5, r6
10005906:	40f8      	lsrs	r0, r7
10005908:	4139      	asrs	r1, r7
1000590a:	4328      	orrs	r0, r5
1000590c:	e7a5      	b.n	1000585a <da_add>

1000590e <da_yrgtx>:
1000590e:	2f3c      	cmp	r7, #60	; 0x3c
10005910:	da0c      	bge.n	1000592c <da_ymgtx>
10005912:	3f20      	subs	r7, #32
10005914:	3640      	adds	r6, #64	; 0x40
10005916:	0004      	movs	r4, r0
10005918:	40b4      	lsls	r4, r6
1000591a:	d000      	beq.n	1000591e <da_yrgtx+0x10>
1000591c:	2401      	movs	r4, #1
1000591e:	40f8      	lsrs	r0, r7
10005920:	4304      	orrs	r4, r0
10005922:	0008      	movs	r0, r1
10005924:	40b1      	lsls	r1, r6
10005926:	430c      	orrs	r4, r1
10005928:	17c1      	asrs	r1, r0, #31
1000592a:	e7ea      	b.n	10005902 <da_ygtx0>

1000592c <da_ymgtx>:
1000592c:	0010      	movs	r0, r2
1000592e:	0019      	movs	r1, r3

10005930 <da_xmgty>:
10005930:	2400      	movs	r4, #0
10005932:	e794      	b.n	1000585e <da_pack>
10005934:	7ff00000 	.word	0x7ff00000

10005938 <dmul_shim>:
10005938:	b5f0      	push	{r4, r5, r6, r7, lr}
1000593a:	0d0c      	lsrs	r4, r1, #20
1000593c:	1e66      	subs	r6, r4, #1
1000593e:	0536      	lsls	r6, r6, #20
10005940:	1b89      	subs	r1, r1, r6
10005942:	0ae6      	lsrs	r6, r4, #11
10005944:	0564      	lsls	r4, r4, #21
10005946:	0d64      	lsrs	r4, r4, #21
10005948:	d002      	beq.n	10005950 <l11_1>
1000594a:	1c65      	adds	r5, r4, #1
1000594c:	0aed      	lsrs	r5, r5, #11
1000594e:	d004      	beq.n	1000595a <l11_2>

10005950 <l11_1>:
10005950:	2000      	movs	r0, #0
10005952:	2101      	movs	r1, #1
10005954:	0509      	lsls	r1, r1, #20
10005956:	3c80      	subs	r4, #128	; 0x80
10005958:	0324      	lsls	r4, r4, #12

1000595a <l11_2>:
1000595a:	46a4      	mov	ip, r4
1000595c:	0d1c      	lsrs	r4, r3, #20
1000595e:	1e67      	subs	r7, r4, #1
10005960:	053f      	lsls	r7, r7, #20
10005962:	1bdb      	subs	r3, r3, r7
10005964:	0ae7      	lsrs	r7, r4, #11
10005966:	0564      	lsls	r4, r4, #21
10005968:	0d64      	lsrs	r4, r4, #21
1000596a:	d002      	beq.n	10005972 <l12_1>
1000596c:	1c65      	adds	r5, r4, #1
1000596e:	0aed      	lsrs	r5, r5, #11
10005970:	d004      	beq.n	1000597c <l12_2>

10005972 <l12_1>:
10005972:	2200      	movs	r2, #0
10005974:	2301      	movs	r3, #1
10005976:	051b      	lsls	r3, r3, #20
10005978:	3c80      	subs	r4, #128	; 0x80
1000597a:	0324      	lsls	r4, r4, #12

1000597c <l12_2>:
1000597c:	4077      	eors	r7, r6
1000597e:	4464      	add	r4, ip
10005980:	b497      	push	{r0, r1, r2, r4, r7}
10005982:	b284      	uxth	r4, r0
10005984:	b296      	uxth	r6, r2
10005986:	4374      	muls	r4, r6
10005988:	0c07      	lsrs	r7, r0, #16
1000598a:	437e      	muls	r6, r7
1000598c:	0c15      	lsrs	r5, r2, #16
1000598e:	436f      	muls	r7, r5
10005990:	b280      	uxth	r0, r0
10005992:	4368      	muls	r0, r5
10005994:	1836      	adds	r6, r6, r0
10005996:	d302      	bcc.n	1000599e <l13_1>
10005998:	2001      	movs	r0, #1
1000599a:	0400      	lsls	r0, r0, #16
1000599c:	183f      	adds	r7, r7, r0

1000599e <l13_1>:
1000599e:	0430      	lsls	r0, r6, #16
100059a0:	0c35      	lsrs	r5, r6, #16
100059a2:	1900      	adds	r0, r0, r4
100059a4:	417d      	adcs	r5, r7
100059a6:	4684      	mov	ip, r0
100059a8:	b288      	uxth	r0, r1
100059aa:	b29a      	uxth	r2, r3
100059ac:	4350      	muls	r0, r2
100059ae:	0c0c      	lsrs	r4, r1, #16
100059b0:	4362      	muls	r2, r4
100059b2:	0c1f      	lsrs	r7, r3, #16
100059b4:	437c      	muls	r4, r7
100059b6:	b28e      	uxth	r6, r1
100059b8:	437e      	muls	r6, r7
100059ba:	1992      	adds	r2, r2, r6
100059bc:	d302      	bcc.n	100059c4 <l14_1>
100059be:	2601      	movs	r6, #1
100059c0:	0436      	lsls	r6, r6, #16
100059c2:	19a4      	adds	r4, r4, r6

100059c4 <l14_1>:
100059c4:	0416      	lsls	r6, r2, #16
100059c6:	0c17      	lsrs	r7, r2, #16
100059c8:	1836      	adds	r6, r6, r0
100059ca:	4167      	adcs	r7, r4
100059cc:	bc01      	pop	{r0}
100059ce:	b281      	uxth	r1, r0
100059d0:	b29a      	uxth	r2, r3
100059d2:	4351      	muls	r1, r2
100059d4:	0c04      	lsrs	r4, r0, #16
100059d6:	4362      	muls	r2, r4
100059d8:	0c1b      	lsrs	r3, r3, #16
100059da:	435c      	muls	r4, r3
100059dc:	b280      	uxth	r0, r0
100059de:	4358      	muls	r0, r3
100059e0:	1812      	adds	r2, r2, r0
100059e2:	d302      	bcc.n	100059ea <l15_1>
100059e4:	2001      	movs	r0, #1
100059e6:	0400      	lsls	r0, r0, #16
100059e8:	1824      	adds	r4, r4, r0

100059ea <l15_1>:
100059ea:	0410      	lsls	r0, r2, #16
100059ec:	0c13      	lsrs	r3, r2, #16
100059ee:	1840      	adds	r0, r0, r1
100059f0:	4163      	adcs	r3, r4
100059f2:	182d      	adds	r5, r5, r0
100059f4:	415e      	adcs	r6, r3
100059f6:	2000      	movs	r0, #0
100059f8:	4147      	adcs	r7, r0
100059fa:	bc06      	pop	{r1, r2}
100059fc:	b288      	uxth	r0, r1
100059fe:	b293      	uxth	r3, r2
10005a00:	4358      	muls	r0, r3
10005a02:	0c0c      	lsrs	r4, r1, #16
10005a04:	4363      	muls	r3, r4
10005a06:	0c12      	lsrs	r2, r2, #16
10005a08:	4354      	muls	r4, r2
10005a0a:	b289      	uxth	r1, r1
10005a0c:	4351      	muls	r1, r2
10005a0e:	185b      	adds	r3, r3, r1
10005a10:	d302      	bcc.n	10005a18 <l16_1>
10005a12:	2101      	movs	r1, #1
10005a14:	0409      	lsls	r1, r1, #16
10005a16:	1864      	adds	r4, r4, r1

10005a18 <l16_1>:
10005a18:	0419      	lsls	r1, r3, #16
10005a1a:	0c1a      	lsrs	r2, r3, #16
10005a1c:	1809      	adds	r1, r1, r0
10005a1e:	4162      	adcs	r2, r4
10005a20:	186d      	adds	r5, r5, r1
10005a22:	4156      	adcs	r6, r2
10005a24:	2000      	movs	r0, #0
10005a26:	4147      	adcs	r7, r0
10005a28:	bc18      	pop	{r3, r4}
10005a2a:	02f9      	lsls	r1, r7, #11
10005a2c:	0d72      	lsrs	r2, r6, #21
10005a2e:	4311      	orrs	r1, r2
10005a30:	02f0      	lsls	r0, r6, #11
10005a32:	0d6a      	lsrs	r2, r5, #21
10005a34:	4310      	orrs	r0, r2
10005a36:	02ed      	lsls	r5, r5, #11
10005a38:	0d0a      	lsrs	r2, r1, #20
10005a3a:	d103      	bne.n	10005a44 <l16_1+0x2c>
10005a3c:	196d      	adds	r5, r5, r5
10005a3e:	4140      	adcs	r0, r0
10005a40:	4149      	adcs	r1, r1
10005a42:	3b01      	subs	r3, #1
10005a44:	4e12      	ldr	r6, [pc, #72]	; (10005a90 <dm_1+0xa>)
10005a46:	1b9b      	subs	r3, r3, r6
10005a48:	0076      	lsls	r6, r6, #1
10005a4a:	42b3      	cmp	r3, r6
10005a4c:	d20e      	bcs.n	10005a6c <dm_0>
10005a4e:	006d      	lsls	r5, r5, #1
10005a50:	d307      	bcc.n	10005a62 <l16_1+0x4a>
10005a52:	3001      	adds	r0, #1
10005a54:	2600      	movs	r6, #0
10005a56:	4171      	adcs	r1, r6
10005a58:	4666      	mov	r6, ip
10005a5a:	4335      	orrs	r5, r6
10005a5c:	d101      	bne.n	10005a62 <l16_1+0x4a>
10005a5e:	0840      	lsrs	r0, r0, #1
10005a60:	0040      	lsls	r0, r0, #1
10005a62:	051b      	lsls	r3, r3, #20
10005a64:	18c9      	adds	r1, r1, r3

10005a66 <dm_2>:
10005a66:	07e4      	lsls	r4, r4, #31
10005a68:	4421      	add	r1, r4
10005a6a:	bdf0      	pop	{r4, r5, r6, r7, pc}

10005a6c <dm_0>:
10005a6c:	da0b      	bge.n	10005a86 <dm_1>
10005a6e:	3301      	adds	r3, #1
10005a70:	d106      	bne.n	10005a80 <dm_0+0x14>
10005a72:	3001      	adds	r0, #1
10005a74:	d104      	bne.n	10005a80 <dm_0+0x14>
10005a76:	3101      	adds	r1, #1
10005a78:	0d4f      	lsrs	r7, r1, #21
10005a7a:	d001      	beq.n	10005a80 <dm_0+0x14>
10005a7c:	0849      	lsrs	r1, r1, #1
10005a7e:	e7f2      	b.n	10005a66 <dm_2>
10005a80:	07e1      	lsls	r1, r4, #31
10005a82:	2000      	movs	r0, #0
10005a84:	bdf0      	pop	{r4, r5, r6, r7, pc}

10005a86 <dm_1>:
10005a86:	3601      	adds	r6, #1
10005a88:	0531      	lsls	r1, r6, #20
10005a8a:	2000      	movs	r0, #0
10005a8c:	e7eb      	b.n	10005a66 <dm_2>
10005a8e:	0000      	.short	0x0000
10005a90:	000003ff 	.word	0x000003ff

10005a94 <ddiv_shim>:
10005a94:	b5f0      	push	{r4, r5, r6, r7, lr}

10005a96 <ddiv0>:
10005a96:	0d1c      	lsrs	r4, r3, #20
10005a98:	1e67      	subs	r7, r4, #1
10005a9a:	053f      	lsls	r7, r7, #20
10005a9c:	1bdb      	subs	r3, r3, r7
10005a9e:	0ae7      	lsrs	r7, r4, #11
10005aa0:	0564      	lsls	r4, r4, #21
10005aa2:	0d64      	lsrs	r4, r4, #21
10005aa4:	d002      	beq.n	10005aac <l19_1>
10005aa6:	1c66      	adds	r6, r4, #1
10005aa8:	0af6      	lsrs	r6, r6, #11
10005aaa:	d004      	beq.n	10005ab6 <l19_2>

10005aac <l19_1>:
10005aac:	2200      	movs	r2, #0
10005aae:	2301      	movs	r3, #1
10005ab0:	051b      	lsls	r3, r3, #20
10005ab2:	3c80      	subs	r4, #128	; 0x80
10005ab4:	0324      	lsls	r4, r4, #12

10005ab6 <l19_2>:
10005ab6:	25d0      	movs	r5, #208	; 0xd0
10005ab8:	062d      	lsls	r5, r5, #24
10005aba:	2600      	movs	r6, #0
10005abc:	43f6      	mvns	r6, r6
10005abe:	662e      	str	r6, [r5, #96]	; 0x60
10005ac0:	091e      	lsrs	r6, r3, #4
10005ac2:	666e      	str	r6, [r5, #100]	; 0x64
10005ac4:	0fce      	lsrs	r6, r1, #31
10005ac6:	19f6      	adds	r6, r6, r7
10005ac8:	46b4      	mov	ip, r6
10005aca:	0049      	lsls	r1, r1, #1
10005acc:	0d4f      	lsrs	r7, r1, #21
10005ace:	d002      	beq.n	10005ad6 <l19_2+0x20>
10005ad0:	1c7e      	adds	r6, r7, #1
10005ad2:	0af6      	lsrs	r6, r6, #11
10005ad4:	d003      	beq.n	10005ade <l19_2+0x28>
10005ad6:	2000      	movs	r0, #0
10005ad8:	2100      	movs	r1, #0
10005ada:	3f40      	subs	r7, #64	; 0x40
10005adc:	033f      	lsls	r7, r7, #12
10005ade:	1b3e      	subs	r6, r7, r4
10005ae0:	00b6      	lsls	r6, r6, #2
10005ae2:	44b4      	add	ip, r6
10005ae4:	3f01      	subs	r7, #1
10005ae6:	057f      	lsls	r7, r7, #21
10005ae8:	1bc9      	subs	r1, r1, r7
10005aea:	0849      	lsrs	r1, r1, #1
10005aec:	6f2e      	ldr	r6, [r5, #112]	; 0x70
10005aee:	3601      	adds	r6, #1
10005af0:	0876      	lsrs	r6, r6, #1
10005af2:	029c      	lsls	r4, r3, #10
10005af4:	0d95      	lsrs	r5, r2, #22
10005af6:	4325      	orrs	r5, r4
10005af8:	4375      	muls	r5, r6
10005afa:	13ed      	asrs	r5, r5, #15
10005afc:	4375      	muls	r5, r6
10005afe:	13ad      	asrs	r5, r5, #14
10005b00:	3501      	adds	r5, #1
10005b02:	106d      	asrs	r5, r5, #1
10005b04:	03f6      	lsls	r6, r6, #15
10005b06:	1b76      	subs	r6, r6, r5
10005b08:	b40c      	push	{r2, r3}
10005b0a:	02cc      	lsls	r4, r1, #11
10005b0c:	0d45      	lsrs	r5, r0, #21
10005b0e:	432c      	orrs	r4, r5
10005b10:	b2a2      	uxth	r2, r4
10005b12:	b2b3      	uxth	r3, r6
10005b14:	435a      	muls	r2, r3
10005b16:	0c27      	lsrs	r7, r4, #16
10005b18:	437b      	muls	r3, r7
10005b1a:	0c35      	lsrs	r5, r6, #16
10005b1c:	436f      	muls	r7, r5
10005b1e:	b2a4      	uxth	r4, r4
10005b20:	436c      	muls	r4, r5
10005b22:	191b      	adds	r3, r3, r4
10005b24:	d302      	bcc.n	10005b2c <l20_1>
10005b26:	2401      	movs	r4, #1
10005b28:	0424      	lsls	r4, r4, #16
10005b2a:	193f      	adds	r7, r7, r4

10005b2c <l20_1>:
10005b2c:	041c      	lsls	r4, r3, #16
10005b2e:	0c1d      	lsrs	r5, r3, #16
10005b30:	18a4      	adds	r4, r4, r2
10005b32:	417d      	adcs	r5, r7
10005b34:	1924      	adds	r4, r4, r4
10005b36:	416d      	adcs	r5, r5
10005b38:	9a00      	ldr	r2, [sp, #0]
10005b3a:	b291      	uxth	r1, r2
10005b3c:	b2ac      	uxth	r4, r5
10005b3e:	4361      	muls	r1, r4
10005b40:	0c17      	lsrs	r7, r2, #16
10005b42:	437c      	muls	r4, r7
10005b44:	0c2b      	lsrs	r3, r5, #16
10005b46:	435f      	muls	r7, r3
10005b48:	b292      	uxth	r2, r2
10005b4a:	435a      	muls	r2, r3
10005b4c:	18a4      	adds	r4, r4, r2
10005b4e:	d302      	bcc.n	10005b56 <l21_1>
10005b50:	2201      	movs	r2, #1
10005b52:	0412      	lsls	r2, r2, #16
10005b54:	18bf      	adds	r7, r7, r2

10005b56 <l21_1>:
10005b56:	0422      	lsls	r2, r4, #16
10005b58:	0c23      	lsrs	r3, r4, #16
10005b5a:	1852      	adds	r2, r2, r1
10005b5c:	417b      	adcs	r3, r7
10005b5e:	9c01      	ldr	r4, [sp, #4]
10005b60:	436c      	muls	r4, r5
10005b62:	191b      	adds	r3, r3, r4
10005b64:	0e52      	lsrs	r2, r2, #25
10005b66:	01d9      	lsls	r1, r3, #7
10005b68:	430a      	orrs	r2, r1
10005b6a:	0144      	lsls	r4, r0, #5
10005b6c:	1aa0      	subs	r0, r4, r2
10005b6e:	b281      	uxth	r1, r0
10005b70:	b2b2      	uxth	r2, r6
10005b72:	4351      	muls	r1, r2
10005b74:	1403      	asrs	r3, r0, #16
10005b76:	435a      	muls	r2, r3
10005b78:	0c36      	lsrs	r6, r6, #16
10005b7a:	4373      	muls	r3, r6
10005b7c:	b287      	uxth	r7, r0
10005b7e:	4377      	muls	r7, r6
10005b80:	17d6      	asrs	r6, r2, #31
10005b82:	19d2      	adds	r2, r2, r7
10005b84:	2700      	movs	r7, #0
10005b86:	417e      	adcs	r6, r7
10005b88:	0436      	lsls	r6, r6, #16
10005b8a:	199b      	adds	r3, r3, r6
10005b8c:	0417      	lsls	r7, r2, #16
10005b8e:	0c16      	lsrs	r6, r2, #16
10005b90:	187f      	adds	r7, r7, r1
10005b92:	415e      	adcs	r6, r3
10005b94:	1673      	asrs	r3, r6, #25
10005b96:	18ed      	adds	r5, r5, r3
10005b98:	01f3      	lsls	r3, r6, #7
10005b9a:	2600      	movs	r6, #0
10005b9c:	3380      	adds	r3, #128	; 0x80
10005b9e:	4175      	adcs	r5, r6
10005ba0:	0fa9      	lsrs	r1, r5, #30
10005ba2:	d106      	bne.n	10005bb2 <dd_0>
10005ba4:	0064      	lsls	r4, r4, #1
10005ba6:	0a69      	lsrs	r1, r5, #9
10005ba8:	05e8      	lsls	r0, r5, #23
10005baa:	0a5b      	lsrs	r3, r3, #9
10005bac:	4318      	orrs	r0, r3
10005bae:	d209      	bcs.n	10005bc4 <dd_1>
10005bb0:	e02f      	b.n	10005c12 <dd_2>

10005bb2 <dd_0>:
10005bb2:	2204      	movs	r2, #4
10005bb4:	4494      	add	ip, r2
10005bb6:	3380      	adds	r3, #128	; 0x80
10005bb8:	4175      	adcs	r5, r6
10005bba:	0aa9      	lsrs	r1, r5, #10
10005bbc:	05a8      	lsls	r0, r5, #22
10005bbe:	0a9b      	lsrs	r3, r3, #10
10005bc0:	4318      	orrs	r0, r3
10005bc2:	d326      	bcc.n	10005c12 <dd_2>

10005bc4 <dd_1>:
10005bc4:	4140      	adcs	r0, r0
10005bc6:	4149      	adcs	r1, r1
10005bc8:	0424      	lsls	r4, r4, #16
10005bca:	9a00      	ldr	r2, [sp, #0]
10005bcc:	9b01      	ldr	r3, [sp, #4]
10005bce:	000d      	movs	r5, r1
10005bd0:	4355      	muls	r5, r2
10005bd2:	1b64      	subs	r4, r4, r5
10005bd4:	4343      	muls	r3, r0
10005bd6:	1ae4      	subs	r4, r4, r3
10005bd8:	b295      	uxth	r5, r2
10005bda:	b286      	uxth	r6, r0
10005bdc:	4375      	muls	r5, r6
10005bde:	0c17      	lsrs	r7, r2, #16
10005be0:	437e      	muls	r6, r7
10005be2:	0c03      	lsrs	r3, r0, #16
10005be4:	435f      	muls	r7, r3
10005be6:	b292      	uxth	r2, r2
10005be8:	435a      	muls	r2, r3
10005bea:	18b6      	adds	r6, r6, r2
10005bec:	d302      	bcc.n	10005bf4 <l23_1>
10005bee:	2201      	movs	r2, #1
10005bf0:	0412      	lsls	r2, r2, #16
10005bf2:	18bf      	adds	r7, r7, r2

10005bf4 <l23_1>:
10005bf4:	0432      	lsls	r2, r6, #16
10005bf6:	0c33      	lsrs	r3, r6, #16
10005bf8:	1952      	adds	r2, r2, r5
10005bfa:	417b      	adcs	r3, r7
10005bfc:	4252      	negs	r2, r2
10005bfe:	419c      	sbcs	r4, r3
10005c00:	2c00      	cmp	r4, #0
10005c02:	d402      	bmi.n	10005c0a <l23_1+0x16>
10005c04:	2200      	movs	r2, #0
10005c06:	3001      	adds	r0, #1
10005c08:	4151      	adcs	r1, r2
10005c0a:	0840      	lsrs	r0, r0, #1
10005c0c:	07ca      	lsls	r2, r1, #31
10005c0e:	4310      	orrs	r0, r2
10005c10:	0849      	lsrs	r1, r1, #1

10005c12 <dd_2>:
10005c12:	b002      	add	sp, #8
10005c14:	4662      	mov	r2, ip
10005c16:	07d7      	lsls	r7, r2, #31
10005c18:	1092      	asrs	r2, r2, #2
10005c1a:	4b08      	ldr	r3, [pc, #32]	; (10005c3c <dd_4+0x6>)
10005c1c:	18d2      	adds	r2, r2, r3
10005c1e:	4b08      	ldr	r3, [pc, #32]	; (10005c40 <dd_4+0xa>)
10005c20:	429a      	cmp	r2, r3
10005c22:	d203      	bcs.n	10005c2c <dd_3>
10005c24:	0512      	lsls	r2, r2, #20
10005c26:	1889      	adds	r1, r1, r2

10005c28 <dd_5>:
10005c28:	19c9      	adds	r1, r1, r7
10005c2a:	bdf0      	pop	{r4, r5, r6, r7, pc}

10005c2c <dd_3>:
10005c2c:	2000      	movs	r0, #0
10005c2e:	2a00      	cmp	r2, #0
10005c30:	dc01      	bgt.n	10005c36 <dd_4>
10005c32:	0039      	movs	r1, r7
10005c34:	bdf0      	pop	{r4, r5, r6, r7, pc}

10005c36 <dd_4>:
10005c36:	3301      	adds	r3, #1
10005c38:	0519      	lsls	r1, r3, #20
10005c3a:	e7f5      	b.n	10005c28 <dd_5>
10005c3c:	000003fd 	.word	0x000003fd
10005c40:	000007fe 	.word	0x000007fe

10005c44 <double2uint_shim>:
10005c44:	2200      	movs	r2, #0

10005c46 <double2ufix_shim>:
10005c46:	b500      	push	{lr}
10005c48:	3220      	adds	r2, #32
10005c4a:	f000 f804 	bl	10005c56 <double2ufix64_shim>
10005c4e:	0008      	movs	r0, r1
10005c50:	bd00      	pop	{pc}
	...

10005c54 <double2uint64_shim>:
10005c54:	2200      	movs	r2, #0

10005c56 <double2ufix64_shim>:
10005c56:	150b      	asrs	r3, r1, #20
10005c58:	d40a      	bmi.n	10005c70 <ret_dzero>

10005c5a <d2fix>:
10005c5a:	b510      	push	{r4, lr}
10005c5c:	4694      	mov	ip, r2
10005c5e:	f000 f831 	bl	10005cc4 <dunpacks>
10005c62:	1414      	asrs	r4, r2, #16
10005c64:	3401      	adds	r4, #1
10005c66:	da00      	bge.n	10005c6a <d2fix+0x10>
10005c68:	2100      	movs	r1, #0
10005c6a:	17cb      	asrs	r3, r1, #31
10005c6c:	4c14      	ldr	r4, [pc, #80]	; (10005cc0 <d2fix_a+0x4a>)
10005c6e:	4720      	bx	r4

10005c70 <ret_dzero>:
10005c70:	2000      	movs	r0, #0
10005c72:	2100      	movs	r1, #0
10005c74:	4770      	bx	lr

10005c76 <d2fix_a>:
10005c76:	4462      	add	r2, ip
10005c78:	3a34      	subs	r2, #52	; 0x34
10005c7a:	d40c      	bmi.n	10005c96 <d2fix_a+0x20>
10005c7c:	2a0c      	cmp	r2, #12
10005c7e:	da07      	bge.n	10005c90 <d2fix_a+0x1a>
10005c80:	0004      	movs	r4, r0
10005c82:	4091      	lsls	r1, r2
10005c84:	4090      	lsls	r0, r2
10005c86:	4252      	negs	r2, r2
10005c88:	3220      	adds	r2, #32
10005c8a:	40d4      	lsrs	r4, r2
10005c8c:	4321      	orrs	r1, r4
10005c8e:	bd10      	pop	{r4, pc}
10005c90:	43d8      	mvns	r0, r3
10005c92:	43d9      	mvns	r1, r3
10005c94:	bd10      	pop	{r4, pc}
10005c96:	3220      	adds	r2, #32
10005c98:	d407      	bmi.n	10005caa <d2fix_a+0x34>
10005c9a:	460c      	mov	r4, r1
10005c9c:	4094      	lsls	r4, r2
10005c9e:	4252      	negs	r2, r2
10005ca0:	3220      	adds	r2, #32
10005ca2:	4111      	asrs	r1, r2
10005ca4:	40d0      	lsrs	r0, r2
10005ca6:	4320      	orrs	r0, r4
10005ca8:	bd10      	pop	{r4, pc}
10005caa:	0008      	movs	r0, r1
10005cac:	17c9      	asrs	r1, r1, #31
10005cae:	3220      	adds	r2, #32
10005cb0:	d403      	bmi.n	10005cba <d2fix_a+0x44>
10005cb2:	4252      	negs	r2, r2
10005cb4:	3220      	adds	r2, #32
10005cb6:	4110      	asrs	r0, r2
10005cb8:	bd10      	pop	{r4, pc}
10005cba:	0018      	movs	r0, r3
10005cbc:	0019      	movs	r1, r3
10005cbe:	bd10      	pop	{r4, pc}
10005cc0:	10005c77 	.word	0x10005c77

10005cc4 <dunpacks>:
10005cc4:	0d0a      	lsrs	r2, r1, #20
10005cc6:	0fcc      	lsrs	r4, r1, #31
10005cc8:	1e53      	subs	r3, r2, #1
10005cca:	051b      	lsls	r3, r3, #20
10005ccc:	1ac9      	subs	r1, r1, r3
10005cce:	0552      	lsls	r2, r2, #21
10005cd0:	d303      	bcc.n	10005cda <l60_1>
10005cd2:	43c9      	mvns	r1, r1
10005cd4:	4240      	negs	r0, r0
10005cd6:	d300      	bcc.n	10005cda <l60_1>
10005cd8:	3101      	adds	r1, #1

10005cda <l60_1>:
10005cda:	0d52      	lsrs	r2, r2, #21
10005cdc:	d003      	beq.n	10005ce6 <l60_2>
10005cde:	1c53      	adds	r3, r2, #1
10005ce0:	0adb      	lsrs	r3, r3, #11
10005ce2:	d007      	beq.n	10005cf4 <l60_3>
10005ce4:	1b12      	subs	r2, r2, r4

10005ce6 <l60_2>:
10005ce6:	2000      	movs	r0, #0
10005ce8:	0064      	lsls	r4, r4, #1
10005cea:	1c61      	adds	r1, r4, #1
10005cec:	0789      	lsls	r1, r1, #30
10005cee:	1289      	asrs	r1, r1, #10
10005cf0:	3a80      	subs	r2, #128	; 0x80
10005cf2:	0312      	lsls	r2, r2, #12

10005cf4 <l60_3>:
10005cf4:	4b01      	ldr	r3, [pc, #4]	; (10005cfc <l60_3+0x8>)
10005cf6:	1ad2      	subs	r2, r2, r3
10005cf8:	4770      	bx	lr
10005cfa:	0000      	.short	0x0000
10005cfc:	000003ff 	.word	0x000003ff

10005d00 <__wrap___aeabi_lmul>:
10005d00:	4351      	muls	r1, r2
10005d02:	4343      	muls	r3, r0
10005d04:	18c9      	adds	r1, r1, r3
10005d06:	468c      	mov	ip, r1
10005d08:	0c11      	lsrs	r1, r2, #16
10005d0a:	b283      	uxth	r3, r0
10005d0c:	434b      	muls	r3, r1
10005d0e:	b410      	push	{r4}
10005d10:	0c04      	lsrs	r4, r0, #16
10005d12:	4361      	muls	r1, r4
10005d14:	b292      	uxth	r2, r2
10005d16:	b280      	uxth	r0, r0
10005d18:	4350      	muls	r0, r2
10005d1a:	4362      	muls	r2, r4
10005d1c:	041c      	lsls	r4, r3, #16
10005d1e:	0c1b      	lsrs	r3, r3, #16
10005d20:	1900      	adds	r0, r0, r4
10005d22:	bc10      	pop	{r4}
10005d24:	4159      	adcs	r1, r3
10005d26:	0413      	lsls	r3, r2, #16
10005d28:	0c12      	lsrs	r2, r2, #16
10005d2a:	18c0      	adds	r0, r0, r3
10005d2c:	4151      	adcs	r1, r2
10005d2e:	4461      	add	r1, ip
10005d30:	4770      	bx	lr
	...

10005d34 <__aeabi_float_init>:
10005d34:	2313      	movs	r3, #19
10005d36:	b510      	push	{r4, lr}
10005d38:	4812      	ldr	r0, [pc, #72]	; (10005d84 <__aeabi_float_init+0x50>)
10005d3a:	781c      	ldrb	r4, [r3, #0]
10005d3c:	f7ff f956 	bl	10004fec <rom_data_lookup>
10005d40:	0001      	movs	r1, r0
10005d42:	2c01      	cmp	r4, #1
10005d44:	d00a      	beq.n	10005d5c <__aeabi_float_init+0x28>
10005d46:	dd03      	ble.n	10005d50 <__aeabi_float_init+0x1c>
10005d48:	2280      	movs	r2, #128	; 0x80
10005d4a:	480f      	ldr	r0, [pc, #60]	; (10005d88 <__aeabi_float_init+0x54>)
10005d4c:	f000 f84c 	bl	10005de8 <__wrap___aeabi_memcpy>
10005d50:	480e      	ldr	r0, [pc, #56]	; (10005d8c <__aeabi_float_init+0x58>)
10005d52:	f7ff f943 	bl	10004fdc <rom_func_lookup>
10005d56:	4b0e      	ldr	r3, [pc, #56]	; (10005d90 <__aeabi_float_init+0x5c>)
10005d58:	6018      	str	r0, [r3, #0]
10005d5a:	bd10      	pop	{r4, pc}
10005d5c:	4c0a      	ldr	r4, [pc, #40]	; (10005d88 <__aeabi_float_init+0x54>)
10005d5e:	2254      	movs	r2, #84	; 0x54
10005d60:	0020      	movs	r0, r4
10005d62:	f000 f841 	bl	10005de8 <__wrap___aeabi_memcpy>
10005d66:	4b0b      	ldr	r3, [pc, #44]	; (10005d94 <__aeabi_float_init+0x60>)
10005d68:	6563      	str	r3, [r4, #84]	; 0x54
10005d6a:	65a3      	str	r3, [r4, #88]	; 0x58
10005d6c:	65e3      	str	r3, [r4, #92]	; 0x5c
10005d6e:	6623      	str	r3, [r4, #96]	; 0x60
10005d70:	6663      	str	r3, [r4, #100]	; 0x64
10005d72:	66a3      	str	r3, [r4, #104]	; 0x68
10005d74:	66e3      	str	r3, [r4, #108]	; 0x6c
10005d76:	6723      	str	r3, [r4, #112]	; 0x70
10005d78:	6763      	str	r3, [r4, #116]	; 0x74
10005d7a:	67a3      	str	r3, [r4, #120]	; 0x78
10005d7c:	67e3      	str	r3, [r4, #124]	; 0x7c
10005d7e:	6223      	str	r3, [r4, #32]
10005d80:	61e3      	str	r3, [r4, #28]
10005d82:	e7e5      	b.n	10005d50 <__aeabi_float_init+0x1c>
10005d84:	00004653 	.word	0x00004653
10005d88:	200019b0 	.word	0x200019b0
10005d8c:	0000334c 	.word	0x0000334c
10005d90:	20001874 	.word	0x20001874
10005d94:	10005d99 	.word	0x10005d99

10005d98 <float_table_shim_on_use_helper>:
10005d98:	b507      	push	{r0, r1, r2, lr}
10005d9a:	4660      	mov	r0, ip
10005d9c:	8801      	ldrh	r1, [r0, #0]
10005d9e:	0a0a      	lsrs	r2, r1, #8
10005da0:	3002      	adds	r0, #2
10005da2:	2adf      	cmp	r2, #223	; 0xdf
10005da4:	d1fa      	bne.n	10005d9c <float_table_shim_on_use_helper+0x4>
10005da6:	b2c9      	uxtb	r1, r1
10005da8:	0882      	lsrs	r2, r0, #2
10005daa:	d304      	bcc.n	10005db6 <float_table_shim_on_use_helper+0x1e>
10005dac:	8802      	ldrh	r2, [r0, #0]
10005dae:	8840      	ldrh	r0, [r0, #2]
10005db0:	0400      	lsls	r0, r0, #16
10005db2:	4310      	orrs	r0, r2
10005db4:	e000      	b.n	10005db8 <float_table_shim_on_use_helper+0x20>
10005db6:	6800      	ldr	r0, [r0, #0]
10005db8:	4a01      	ldr	r2, [pc, #4]	; (10005dc0 <float_table_shim_on_use_helper+0x28>)
10005dba:	5050      	str	r0, [r2, r1]
10005dbc:	9003      	str	r0, [sp, #12]
10005dbe:	bd07      	pop	{r0, r1, r2, pc}
10005dc0:	200019b0 	.word	0x200019b0

10005dc4 <__wrap_free>:
10005dc4:	b510      	push	{r4, lr}
10005dc6:	f003 f833 	bl	10008e30 <free>
10005dca:	bd10      	pop	{r4, pc}

10005dcc <__aeabi_mem_init>:
10005dcc:	4801      	ldr	r0, [pc, #4]	; (10005dd4 <__aeabi_mem_init+0x8>)
10005dce:	2104      	movs	r1, #4
10005dd0:	4b01      	ldr	r3, [pc, #4]	; (10005dd8 <__aeabi_mem_init+0xc>)
10005dd2:	4718      	bx	r3
10005dd4:	20000480 	.word	0x20000480
10005dd8:	10004ffd 	.word	0x10004ffd

10005ddc <__wrap_memset>:
10005ddc:	4b01      	ldr	r3, [pc, #4]	; (10005de4 <__wrap_memset+0x8>)
10005dde:	681b      	ldr	r3, [r3, #0]
10005de0:	4718      	bx	r3
10005de2:	0000      	.short	0x0000
10005de4:	20000480 	.word	0x20000480

10005de8 <__wrap___aeabi_memcpy>:
10005de8:	4b01      	ldr	r3, [pc, #4]	; (10005df0 <__wrap___aeabi_memcpy+0x8>)
10005dea:	685b      	ldr	r3, [r3, #4]
10005dec:	4718      	bx	r3
10005dee:	0000      	.short	0x0000
10005df0:	20000480 	.word	0x20000480

10005df4 <_ZdlPvj>:
10005df4:	b510      	push	{r4, lr}
10005df6:	f7ff ffe5 	bl	10005dc4 <__wrap_free>
10005dfa:	bd10      	pop	{r4, pc}

10005dfc <stdio_out_chars_no_crlf>:
10005dfc:	0003      	movs	r3, r0
10005dfe:	b510      	push	{r4, lr}
10005e00:	0008      	movs	r0, r1
10005e02:	681b      	ldr	r3, [r3, #0]
10005e04:	0011      	movs	r1, r2
10005e06:	4798      	blx	r3
10005e08:	bd10      	pop	{r4, pc}
10005e0a:	46c0      	nop			; (mov r8, r8)

10005e0c <stdio_out_chars_crlf>:
10005e0c:	b5f8      	push	{r3, r4, r5, r6, r7, lr}
10005e0e:	4647      	mov	r7, r8
10005e10:	46ce      	mov	lr, r9
10005e12:	b580      	push	{r7, lr}
10005e14:	7c43      	ldrb	r3, [r0, #17]
10005e16:	0007      	movs	r7, r0
10005e18:	000d      	movs	r5, r1
10005e1a:	0016      	movs	r6, r2
10005e1c:	2b00      	cmp	r3, #0
10005e1e:	d037      	beq.n	10005e90 <stdio_out_chars_crlf+0x84>
10005e20:	2400      	movs	r4, #0
10005e22:	2000      	movs	r0, #0
10005e24:	2a00      	cmp	r2, #0
10005e26:	dd1e      	ble.n	10005e66 <stdio_out_chars_crlf+0x5a>
10005e28:	1e4b      	subs	r3, r1, #1
10005e2a:	4698      	mov	r8, r3
10005e2c:	4b1b      	ldr	r3, [pc, #108]	; (10005e9c <stdio_out_chars_crlf+0x90>)
10005e2e:	4699      	mov	r9, r3
10005e30:	2c00      	cmp	r4, #0
10005e32:	d02b      	beq.n	10005e8c <stdio_out_chars_crlf+0x80>
10005e34:	4643      	mov	r3, r8
10005e36:	5d1b      	ldrb	r3, [r3, r4]
10005e38:	3b0d      	subs	r3, #13
10005e3a:	425a      	negs	r2, r3
10005e3c:	4153      	adcs	r3, r2
10005e3e:	b2db      	uxtb	r3, r3
10005e40:	5d2a      	ldrb	r2, [r5, r4]
10005e42:	2a0a      	cmp	r2, #10
10005e44:	d013      	beq.n	10005e6e <stdio_out_chars_crlf+0x62>
10005e46:	3401      	adds	r4, #1
10005e48:	42a6      	cmp	r6, r4
10005e4a:	dcf1      	bgt.n	10005e30 <stdio_out_chars_crlf+0x24>
10005e4c:	4286      	cmp	r6, r0
10005e4e:	dd03      	ble.n	10005e58 <stdio_out_chars_crlf+0x4c>
10005e50:	1a31      	subs	r1, r6, r0
10005e52:	683b      	ldr	r3, [r7, #0]
10005e54:	1828      	adds	r0, r5, r0
10005e56:	4798      	blx	r3
10005e58:	19ad      	adds	r5, r5, r6
10005e5a:	3d01      	subs	r5, #1
10005e5c:	782b      	ldrb	r3, [r5, #0]
10005e5e:	3b0d      	subs	r3, #13
10005e60:	425a      	negs	r2, r3
10005e62:	4153      	adcs	r3, r2
10005e64:	743b      	strb	r3, [r7, #16]
10005e66:	bc0c      	pop	{r2, r3}
10005e68:	4690      	mov	r8, r2
10005e6a:	4699      	mov	r9, r3
10005e6c:	bdf8      	pop	{r3, r4, r5, r6, r7, pc}
10005e6e:	2b00      	cmp	r3, #0
10005e70:	d1e9      	bne.n	10005e46 <stdio_out_chars_crlf+0x3a>
10005e72:	42a0      	cmp	r0, r4
10005e74:	da03      	bge.n	10005e7e <stdio_out_chars_crlf+0x72>
10005e76:	1a21      	subs	r1, r4, r0
10005e78:	683b      	ldr	r3, [r7, #0]
10005e7a:	1828      	adds	r0, r5, r0
10005e7c:	4798      	blx	r3
10005e7e:	4648      	mov	r0, r9
10005e80:	2102      	movs	r1, #2
10005e82:	683b      	ldr	r3, [r7, #0]
10005e84:	3401      	adds	r4, #1
10005e86:	4798      	blx	r3
10005e88:	0020      	movs	r0, r4
10005e8a:	e7dd      	b.n	10005e48 <stdio_out_chars_crlf+0x3c>
10005e8c:	7c3b      	ldrb	r3, [r7, #16]
10005e8e:	e7d7      	b.n	10005e40 <stdio_out_chars_crlf+0x34>
10005e90:	6803      	ldr	r3, [r0, #0]
10005e92:	0011      	movs	r1, r2
10005e94:	0028      	movs	r0, r5
10005e96:	4798      	blx	r3
10005e98:	e7e5      	b.n	10005e66 <stdio_out_chars_crlf+0x5a>
10005e9a:	46c0      	nop			; (mov r8, r8)
10005e9c:	10009ce8 	.word	0x10009ce8

10005ea0 <stdio_buffered_printer>:
10005ea0:	b5f0      	push	{r4, r5, r6, r7, lr}
10005ea2:	46c6      	mov	lr, r8
10005ea4:	000c      	movs	r4, r1
10005ea6:	6809      	ldr	r1, [r1, #0]
10005ea8:	0006      	movs	r6, r0
10005eaa:	b500      	push	{lr}
10005eac:	2980      	cmp	r1, #128	; 0x80
10005eae:	d006      	beq.n	10005ebe <stdio_buffered_printer+0x1e>
10005eb0:	1c4b      	adds	r3, r1, #1
10005eb2:	6023      	str	r3, [r4, #0]
10005eb4:	1864      	adds	r4, r4, r1
10005eb6:	7126      	strb	r6, [r4, #4]
10005eb8:	bc04      	pop	{r2}
10005eba:	4690      	mov	r8, r2
10005ebc:	bdf0      	pop	{r4, r5, r6, r7, pc}
10005ebe:	4b0f      	ldr	r3, [pc, #60]	; (10005efc <stdio_buffered_printer+0x5c>)
10005ec0:	681d      	ldr	r5, [r3, #0]
10005ec2:	2d00      	cmp	r5, #0
10005ec4:	d016      	beq.n	10005ef4 <stdio_buffered_printer+0x54>
10005ec6:	1d23      	adds	r3, r4, #4
10005ec8:	4698      	mov	r8, r3
10005eca:	4f0d      	ldr	r7, [pc, #52]	; (10005f00 <stdio_buffered_printer+0x60>)
10005ecc:	e002      	b.n	10005ed4 <stdio_buffered_printer+0x34>
10005ece:	68ed      	ldr	r5, [r5, #12]
10005ed0:	2d00      	cmp	r5, #0
10005ed2:	d00f      	beq.n	10005ef4 <stdio_buffered_printer+0x54>
10005ed4:	682b      	ldr	r3, [r5, #0]
10005ed6:	2b00      	cmp	r3, #0
10005ed8:	d0f9      	beq.n	10005ece <stdio_buffered_printer+0x2e>
10005eda:	683b      	ldr	r3, [r7, #0]
10005edc:	2b00      	cmp	r3, #0
10005ede:	d001      	beq.n	10005ee4 <stdio_buffered_printer+0x44>
10005ee0:	42ab      	cmp	r3, r5
10005ee2:	d1f4      	bne.n	10005ece <stdio_buffered_printer+0x2e>
10005ee4:	0028      	movs	r0, r5
10005ee6:	4641      	mov	r1, r8
10005ee8:	6822      	ldr	r2, [r4, #0]
10005eea:	f7ff ff8f 	bl	10005e0c <stdio_out_chars_crlf>
10005eee:	68ed      	ldr	r5, [r5, #12]
10005ef0:	2d00      	cmp	r5, #0
10005ef2:	d1ef      	bne.n	10005ed4 <stdio_buffered_printer+0x34>
10005ef4:	2301      	movs	r3, #1
10005ef6:	2100      	movs	r1, #0
10005ef8:	e7db      	b.n	10005eb2 <stdio_buffered_printer+0x12>
10005efa:	46c0      	nop			; (mov r8, r8)
10005efc:	200013d4 	.word	0x200013d4
10005f00:	200013d8 	.word	0x200013d8

10005f04 <stdio_put_string>:
10005f04:	b5f0      	push	{r4, r5, r6, r7, lr}
10005f06:	4657      	mov	r7, sl
10005f08:	464e      	mov	r6, r9
10005f0a:	4645      	mov	r5, r8
10005f0c:	46de      	mov	lr, fp
10005f0e:	001c      	movs	r4, r3
10005f10:	23d0      	movs	r3, #208	; 0xd0
10005f12:	b5e0      	push	{r5, r6, r7, lr}
10005f14:	061b      	lsls	r3, r3, #24
10005f16:	681f      	ldr	r7, [r3, #0]
10005f18:	4b35      	ldr	r3, [pc, #212]	; (10005ff0 <stdio_put_string+0xec>)
10005f1a:	b083      	sub	sp, #12
10005f1c:	0006      	movs	r6, r0
10005f1e:	000d      	movs	r5, r1
10005f20:	0018      	movs	r0, r3
10005f22:	a901      	add	r1, sp, #4
10005f24:	4691      	mov	r9, r2
10005f26:	469a      	mov	sl, r3
10005f28:	f003 fbfe 	bl	10009728 <__mutex_try_enter_veneer>
10005f2c:	4680      	mov	r8, r0
10005f2e:	2800      	cmp	r0, #0
10005f30:	d108      	bne.n	10005f44 <stdio_put_string+0x40>
10005f32:	9b01      	ldr	r3, [sp, #4]
10005f34:	b27f      	sxtb	r7, r7
10005f36:	429f      	cmp	r7, r3
10005f38:	d004      	beq.n	10005f44 <stdio_put_string+0x40>
10005f3a:	4650      	mov	r0, sl
10005f3c:	f003 fc0c 	bl	10009758 <__mutex_enter_blocking_veneer>
10005f40:	2301      	movs	r3, #1
10005f42:	4698      	mov	r8, r3
10005f44:	1c6b      	adds	r3, r5, #1
10005f46:	d103      	bne.n	10005f50 <stdio_put_string+0x4c>
10005f48:	0030      	movs	r0, r6
10005f4a:	f003 fa57 	bl	100093fc <strlen>
10005f4e:	0005      	movs	r5, r0
10005f50:	2c00      	cmp	r4, #0
10005f52:	d12a      	bne.n	10005faa <stdio_put_string+0xa6>
10005f54:	4f27      	ldr	r7, [pc, #156]	; (10005ff4 <stdio_put_string+0xf0>)
10005f56:	4b28      	ldr	r3, [pc, #160]	; (10005ff8 <stdio_put_string+0xf4>)
10005f58:	681c      	ldr	r4, [r3, #0]
10005f5a:	2c00      	cmp	r4, #0
10005f5c:	d018      	beq.n	10005f90 <stdio_put_string+0x8c>
10005f5e:	464b      	mov	r3, r9
10005f60:	2b00      	cmp	r3, #0
10005f62:	d124      	bne.n	10005fae <stdio_put_string+0xaa>
10005f64:	4b25      	ldr	r3, [pc, #148]	; (10005ffc <stdio_put_string+0xf8>)
10005f66:	4699      	mov	r9, r3
10005f68:	e002      	b.n	10005f70 <stdio_put_string+0x6c>
10005f6a:	68e4      	ldr	r4, [r4, #12]
10005f6c:	2c00      	cmp	r4, #0
10005f6e:	d00f      	beq.n	10005f90 <stdio_put_string+0x8c>
10005f70:	6823      	ldr	r3, [r4, #0]
10005f72:	2b00      	cmp	r3, #0
10005f74:	d0f9      	beq.n	10005f6a <stdio_put_string+0x66>
10005f76:	464b      	mov	r3, r9
10005f78:	681b      	ldr	r3, [r3, #0]
10005f7a:	2b00      	cmp	r3, #0
10005f7c:	d001      	beq.n	10005f82 <stdio_put_string+0x7e>
10005f7e:	42a3      	cmp	r3, r4
10005f80:	d1f3      	bne.n	10005f6a <stdio_put_string+0x66>
10005f82:	0020      	movs	r0, r4
10005f84:	002a      	movs	r2, r5
10005f86:	0031      	movs	r1, r6
10005f88:	47b8      	blx	r7
10005f8a:	68e4      	ldr	r4, [r4, #12]
10005f8c:	2c00      	cmp	r4, #0
10005f8e:	d1ef      	bne.n	10005f70 <stdio_put_string+0x6c>
10005f90:	4643      	mov	r3, r8
10005f92:	2b00      	cmp	r3, #0
10005f94:	d128      	bne.n	10005fe8 <stdio_put_string+0xe4>
10005f96:	1e68      	subs	r0, r5, #1
10005f98:	4185      	sbcs	r5, r0
10005f9a:	b2e8      	uxtb	r0, r5
10005f9c:	b003      	add	sp, #12
10005f9e:	bc3c      	pop	{r2, r3, r4, r5}
10005fa0:	4690      	mov	r8, r2
10005fa2:	4699      	mov	r9, r3
10005fa4:	46a2      	mov	sl, r4
10005fa6:	46ab      	mov	fp, r5
10005fa8:	bdf0      	pop	{r4, r5, r6, r7, pc}
10005faa:	4f15      	ldr	r7, [pc, #84]	; (10006000 <stdio_put_string+0xfc>)
10005fac:	e7d3      	b.n	10005f56 <stdio_put_string+0x52>
10005fae:	4b13      	ldr	r3, [pc, #76]	; (10005ffc <stdio_put_string+0xf8>)
10005fb0:	4699      	mov	r9, r3
10005fb2:	230a      	movs	r3, #10
10005fb4:	469b      	mov	fp, r3
10005fb6:	e002      	b.n	10005fbe <stdio_put_string+0xba>
10005fb8:	68e4      	ldr	r4, [r4, #12]
10005fba:	2c00      	cmp	r4, #0
10005fbc:	d0e8      	beq.n	10005f90 <stdio_put_string+0x8c>
10005fbe:	6823      	ldr	r3, [r4, #0]
10005fc0:	2b00      	cmp	r3, #0
10005fc2:	d0f9      	beq.n	10005fb8 <stdio_put_string+0xb4>
10005fc4:	464b      	mov	r3, r9
10005fc6:	681b      	ldr	r3, [r3, #0]
10005fc8:	2b00      	cmp	r3, #0
10005fca:	d001      	beq.n	10005fd0 <stdio_put_string+0xcc>
10005fcc:	42a3      	cmp	r3, r4
10005fce:	d1f3      	bne.n	10005fb8 <stdio_put_string+0xb4>
10005fd0:	002a      	movs	r2, r5
10005fd2:	0031      	movs	r1, r6
10005fd4:	0020      	movs	r0, r4
10005fd6:	47b8      	blx	r7
10005fd8:	465a      	mov	r2, fp
10005fda:	466b      	mov	r3, sp
10005fdc:	0020      	movs	r0, r4
10005fde:	711a      	strb	r2, [r3, #4]
10005fe0:	a901      	add	r1, sp, #4
10005fe2:	2201      	movs	r2, #1
10005fe4:	47b8      	blx	r7
10005fe6:	e7e7      	b.n	10005fb8 <stdio_put_string+0xb4>
10005fe8:	4650      	mov	r0, sl
10005fea:	f003 fb85 	bl	100096f8 <__mutex_exit_veneer>
10005fee:	e7d2      	b.n	10005f96 <stdio_put_string+0x92>
10005ff0:	20000d10 	.word	0x20000d10
10005ff4:	10005e0d 	.word	0x10005e0d
10005ff8:	200013d4 	.word	0x200013d4
10005ffc:	200013d8 	.word	0x200013d8
10006000:	10005dfd 	.word	0x10005dfd

10006004 <__wrap_putchar>:
10006004:	b5f0      	push	{r4, r5, r6, r7, lr}
10006006:	4647      	mov	r7, r8
10006008:	46ce      	mov	lr, r9
1000600a:	b580      	push	{r7, lr}
1000600c:	b083      	sub	sp, #12
1000600e:	466b      	mov	r3, sp
10006010:	1cdf      	adds	r7, r3, #3
10006012:	23d0      	movs	r3, #208	; 0xd0
10006014:	7038      	strb	r0, [r7, #0]
10006016:	061b      	lsls	r3, r3, #24
10006018:	681c      	ldr	r4, [r3, #0]
1000601a:	4b20      	ldr	r3, [pc, #128]	; (1000609c <__wrap_putchar+0x98>)
1000601c:	0006      	movs	r6, r0
1000601e:	a901      	add	r1, sp, #4
10006020:	0018      	movs	r0, r3
10006022:	4698      	mov	r8, r3
10006024:	f003 fb80 	bl	10009728 <__mutex_try_enter_veneer>
10006028:	1e05      	subs	r5, r0, #0
1000602a:	d022      	beq.n	10006072 <__wrap_putchar+0x6e>
1000602c:	4b1c      	ldr	r3, [pc, #112]	; (100060a0 <__wrap_putchar+0x9c>)
1000602e:	681c      	ldr	r4, [r3, #0]
10006030:	2c00      	cmp	r4, #0
10006032:	d02a      	beq.n	1000608a <__wrap_putchar+0x86>
10006034:	4b1b      	ldr	r3, [pc, #108]	; (100060a4 <__wrap_putchar+0xa0>)
10006036:	4699      	mov	r9, r3
10006038:	e002      	b.n	10006040 <__wrap_putchar+0x3c>
1000603a:	68e4      	ldr	r4, [r4, #12]
1000603c:	2c00      	cmp	r4, #0
1000603e:	d010      	beq.n	10006062 <__wrap_putchar+0x5e>
10006040:	6823      	ldr	r3, [r4, #0]
10006042:	2b00      	cmp	r3, #0
10006044:	d0f9      	beq.n	1000603a <__wrap_putchar+0x36>
10006046:	464b      	mov	r3, r9
10006048:	681b      	ldr	r3, [r3, #0]
1000604a:	2b00      	cmp	r3, #0
1000604c:	d001      	beq.n	10006052 <__wrap_putchar+0x4e>
1000604e:	42a3      	cmp	r3, r4
10006050:	d1f3      	bne.n	1000603a <__wrap_putchar+0x36>
10006052:	0020      	movs	r0, r4
10006054:	2201      	movs	r2, #1
10006056:	0039      	movs	r1, r7
10006058:	f7ff fed8 	bl	10005e0c <stdio_out_chars_crlf>
1000605c:	68e4      	ldr	r4, [r4, #12]
1000605e:	2c00      	cmp	r4, #0
10006060:	d1ee      	bne.n	10006040 <__wrap_putchar+0x3c>
10006062:	2d00      	cmp	r5, #0
10006064:	d111      	bne.n	1000608a <__wrap_putchar+0x86>
10006066:	0030      	movs	r0, r6
10006068:	b003      	add	sp, #12
1000606a:	bc0c      	pop	{r2, r3}
1000606c:	4690      	mov	r8, r2
1000606e:	4699      	mov	r9, r3
10006070:	bdf0      	pop	{r4, r5, r6, r7, pc}
10006072:	9b01      	ldr	r3, [sp, #4]
10006074:	b264      	sxtb	r4, r4
10006076:	429c      	cmp	r4, r3
10006078:	d00b      	beq.n	10006092 <__wrap_putchar+0x8e>
1000607a:	4640      	mov	r0, r8
1000607c:	f003 fb6c 	bl	10009758 <__mutex_enter_blocking_veneer>
10006080:	4b07      	ldr	r3, [pc, #28]	; (100060a0 <__wrap_putchar+0x9c>)
10006082:	2501      	movs	r5, #1
10006084:	681c      	ldr	r4, [r3, #0]
10006086:	2c00      	cmp	r4, #0
10006088:	d1d4      	bne.n	10006034 <__wrap_putchar+0x30>
1000608a:	4640      	mov	r0, r8
1000608c:	f003 fb34 	bl	100096f8 <__mutex_exit_veneer>
10006090:	e7e9      	b.n	10006066 <__wrap_putchar+0x62>
10006092:	4b03      	ldr	r3, [pc, #12]	; (100060a0 <__wrap_putchar+0x9c>)
10006094:	681c      	ldr	r4, [r3, #0]
10006096:	2c00      	cmp	r4, #0
10006098:	d1cc      	bne.n	10006034 <__wrap_putchar+0x30>
1000609a:	e7e4      	b.n	10006066 <__wrap_putchar+0x62>
1000609c:	20000d10 	.word	0x20000d10
100060a0:	200013d4 	.word	0x200013d4
100060a4:	200013d8 	.word	0x200013d8

100060a8 <__wrap_puts>:
100060a8:	b570      	push	{r4, r5, r6, lr}
100060aa:	0004      	movs	r4, r0
100060ac:	f003 f9a6 	bl	100093fc <strlen>
100060b0:	2300      	movs	r3, #0
100060b2:	0001      	movs	r1, r0
100060b4:	0005      	movs	r5, r0
100060b6:	2201      	movs	r2, #1
100060b8:	0020      	movs	r0, r4
100060ba:	f7ff ff23 	bl	10005f04 <stdio_put_string>
100060be:	4b08      	ldr	r3, [pc, #32]	; (100060e0 <__wrap_puts+0x38>)
100060c0:	681c      	ldr	r4, [r3, #0]
100060c2:	2c00      	cmp	r4, #0
100060c4:	d006      	beq.n	100060d4 <__wrap_puts+0x2c>
100060c6:	6863      	ldr	r3, [r4, #4]
100060c8:	2b00      	cmp	r3, #0
100060ca:	d005      	beq.n	100060d8 <__wrap_puts+0x30>
100060cc:	4798      	blx	r3
100060ce:	68e4      	ldr	r4, [r4, #12]
100060d0:	2c00      	cmp	r4, #0
100060d2:	d1f8      	bne.n	100060c6 <__wrap_puts+0x1e>
100060d4:	0028      	movs	r0, r5
100060d6:	bd70      	pop	{r4, r5, r6, pc}
100060d8:	68e4      	ldr	r4, [r4, #12]
100060da:	2c00      	cmp	r4, #0
100060dc:	d1f3      	bne.n	100060c6 <__wrap_puts+0x1e>
100060de:	e7f9      	b.n	100060d4 <__wrap_puts+0x2c>
100060e0:	200013d4 	.word	0x200013d4

100060e4 <stdio_set_driver_enabled>:
100060e4:	4a0d      	ldr	r2, [pc, #52]	; (1000611c <stdio_set_driver_enabled+0x38>)
100060e6:	6813      	ldr	r3, [r2, #0]
100060e8:	2b00      	cmp	r3, #0
100060ea:	d013      	beq.n	10006114 <stdio_set_driver_enabled+0x30>
100060ec:	4283      	cmp	r3, r0
100060ee:	d102      	bne.n	100060f6 <stdio_set_driver_enabled+0x12>
100060f0:	e009      	b.n	10006106 <stdio_set_driver_enabled+0x22>
100060f2:	4298      	cmp	r0, r3
100060f4:	d008      	beq.n	10006108 <stdio_set_driver_enabled+0x24>
100060f6:	001a      	movs	r2, r3
100060f8:	68db      	ldr	r3, [r3, #12]
100060fa:	2b00      	cmp	r3, #0
100060fc:	d1f9      	bne.n	100060f2 <stdio_set_driver_enabled+0xe>
100060fe:	2900      	cmp	r1, #0
10006100:	d000      	beq.n	10006104 <stdio_set_driver_enabled+0x20>
10006102:	60d0      	str	r0, [r2, #12]
10006104:	4770      	bx	lr
10006106:	001a      	movs	r2, r3
10006108:	2900      	cmp	r1, #0
1000610a:	d1fb      	bne.n	10006104 <stdio_set_driver_enabled+0x20>
1000610c:	68db      	ldr	r3, [r3, #12]
1000610e:	60d3      	str	r3, [r2, #12]
10006110:	60c1      	str	r1, [r0, #12]
10006112:	e7f7      	b.n	10006104 <stdio_set_driver_enabled+0x20>
10006114:	2900      	cmp	r1, #0
10006116:	d0f5      	beq.n	10006104 <stdio_set_driver_enabled+0x20>
10006118:	6010      	str	r0, [r2, #0]
1000611a:	e7f3      	b.n	10006104 <stdio_set_driver_enabled+0x20>
1000611c:	200013d4 	.word	0x200013d4

10006120 <__wrap_vprintf>:
10006120:	b5f0      	push	{r4, r5, r6, r7, lr}
10006122:	4647      	mov	r7, r8
10006124:	46ce      	mov	lr, r9
10006126:	23d0      	movs	r3, #208	; 0xd0
10006128:	b580      	push	{r7, lr}
1000612a:	061b      	lsls	r3, r3, #24
1000612c:	681d      	ldr	r5, [r3, #0]
1000612e:	4b2e      	ldr	r3, [pc, #184]	; (100061e8 <__wrap_vprintf+0xc8>)
10006130:	b0a5      	sub	sp, #148	; 0x94
10006132:	0007      	movs	r7, r0
10006134:	000c      	movs	r4, r1
10006136:	0018      	movs	r0, r3
10006138:	a903      	add	r1, sp, #12
1000613a:	4698      	mov	r8, r3
1000613c:	f003 faf4 	bl	10009728 <__mutex_try_enter_veneer>
10006140:	1e06      	subs	r6, r0, #0
10006142:	d107      	bne.n	10006154 <__wrap_vprintf+0x34>
10006144:	9b03      	ldr	r3, [sp, #12]
10006146:	b26d      	sxtb	r5, r5
10006148:	429d      	cmp	r5, r3
1000614a:	d003      	beq.n	10006154 <__wrap_vprintf+0x34>
1000614c:	4640      	mov	r0, r8
1000614e:	f003 fb03 	bl	10009758 <__mutex_enter_blocking_veneer>
10006152:	3601      	adds	r6, #1
10006154:	2284      	movs	r2, #132	; 0x84
10006156:	2100      	movs	r1, #0
10006158:	a803      	add	r0, sp, #12
1000615a:	f7ff fe3f 	bl	10005ddc <__wrap_memset>
1000615e:	0023      	movs	r3, r4
10006160:	003a      	movs	r2, r7
10006162:	4822      	ldr	r0, [pc, #136]	; (100061ec <__wrap_vprintf+0xcc>)
10006164:	a903      	add	r1, sp, #12
10006166:	f7fe ff09 	bl	10004f7c <vfctprintf>
1000616a:	9b03      	ldr	r3, [sp, #12]
1000616c:	0007      	movs	r7, r0
1000616e:	2b00      	cmp	r3, #0
10006170:	d114      	bne.n	1000619c <__wrap_vprintf+0x7c>
10006172:	4b1f      	ldr	r3, [pc, #124]	; (100061f0 <__wrap_vprintf+0xd0>)
10006174:	681c      	ldr	r4, [r3, #0]
10006176:	2c00      	cmp	r4, #0
10006178:	d006      	beq.n	10006188 <__wrap_vprintf+0x68>
1000617a:	6863      	ldr	r3, [r4, #4]
1000617c:	2b00      	cmp	r3, #0
1000617e:	d00b      	beq.n	10006198 <__wrap_vprintf+0x78>
10006180:	4798      	blx	r3
10006182:	68e4      	ldr	r4, [r4, #12]
10006184:	2c00      	cmp	r4, #0
10006186:	d1f8      	bne.n	1000617a <__wrap_vprintf+0x5a>
10006188:	2e00      	cmp	r6, #0
1000618a:	d127      	bne.n	100061dc <__wrap_vprintf+0xbc>
1000618c:	0038      	movs	r0, r7
1000618e:	b025      	add	sp, #148	; 0x94
10006190:	bc0c      	pop	{r2, r3}
10006192:	4690      	mov	r8, r2
10006194:	4699      	mov	r9, r3
10006196:	bdf0      	pop	{r4, r5, r6, r7, pc}
10006198:	68e4      	ldr	r4, [r4, #12]
1000619a:	e7ec      	b.n	10006176 <__wrap_vprintf+0x56>
1000619c:	4b14      	ldr	r3, [pc, #80]	; (100061f0 <__wrap_vprintf+0xd0>)
1000619e:	681d      	ldr	r5, [r3, #0]
100061a0:	4699      	mov	r9, r3
100061a2:	2d00      	cmp	r5, #0
100061a4:	d01e      	beq.n	100061e4 <__wrap_vprintf+0xc4>
100061a6:	4c13      	ldr	r4, [pc, #76]	; (100061f4 <__wrap_vprintf+0xd4>)
100061a8:	e002      	b.n	100061b0 <__wrap_vprintf+0x90>
100061aa:	68ed      	ldr	r5, [r5, #12]
100061ac:	2d00      	cmp	r5, #0
100061ae:	d011      	beq.n	100061d4 <__wrap_vprintf+0xb4>
100061b0:	682b      	ldr	r3, [r5, #0]
100061b2:	2b00      	cmp	r3, #0
100061b4:	d0f9      	beq.n	100061aa <__wrap_vprintf+0x8a>
100061b6:	6823      	ldr	r3, [r4, #0]
100061b8:	2b00      	cmp	r3, #0
100061ba:	d001      	beq.n	100061c0 <__wrap_vprintf+0xa0>
100061bc:	42ab      	cmp	r3, r5
100061be:	d1f4      	bne.n	100061aa <__wrap_vprintf+0x8a>
100061c0:	9b03      	ldr	r3, [sp, #12]
100061c2:	0028      	movs	r0, r5
100061c4:	001a      	movs	r2, r3
100061c6:	a904      	add	r1, sp, #16
100061c8:	9301      	str	r3, [sp, #4]
100061ca:	f7ff fe1f 	bl	10005e0c <stdio_out_chars_crlf>
100061ce:	68ed      	ldr	r5, [r5, #12]
100061d0:	2d00      	cmp	r5, #0
100061d2:	d1ed      	bne.n	100061b0 <__wrap_vprintf+0x90>
100061d4:	464b      	mov	r3, r9
100061d6:	9503      	str	r5, [sp, #12]
100061d8:	681c      	ldr	r4, [r3, #0]
100061da:	e7cc      	b.n	10006176 <__wrap_vprintf+0x56>
100061dc:	4640      	mov	r0, r8
100061de:	f003 fa8b 	bl	100096f8 <__mutex_exit_veneer>
100061e2:	e7d3      	b.n	1000618c <__wrap_vprintf+0x6c>
100061e4:	9503      	str	r5, [sp, #12]
100061e6:	e7cf      	b.n	10006188 <__wrap_vprintf+0x68>
100061e8:	20000d10 	.word	0x20000d10
100061ec:	10005ea1 	.word	0x10005ea1
100061f0:	200013d4 	.word	0x200013d4
100061f4:	200013d8 	.word	0x200013d8

100061f8 <__wrap_printf>:
100061f8:	b40f      	push	{r0, r1, r2, r3}
100061fa:	b500      	push	{lr}
100061fc:	b083      	sub	sp, #12
100061fe:	a904      	add	r1, sp, #16
10006200:	c901      	ldmia	r1!, {r0}
10006202:	9101      	str	r1, [sp, #4]
10006204:	f7ff ff8c 	bl	10006120 <__wrap_vprintf>
10006208:	b003      	add	sp, #12
1000620a:	bc08      	pop	{r3}
1000620c:	b004      	add	sp, #16
1000620e:	4718      	bx	r3

10006210 <stdio_init_all>:
10006210:	b510      	push	{r4, lr}
10006212:	f000 f9c3 	bl	1000659c <stdio_usb_init>
10006216:	bd10      	pop	{r4, pc}

10006218 <__wrap_getchar>:
10006218:	b570      	push	{r4, r5, r6, lr}
1000621a:	4b19      	ldr	r3, [pc, #100]	; (10006280 <__wrap_getchar+0x68>)
1000621c:	b084      	sub	sp, #16
1000621e:	681a      	ldr	r2, [r3, #0]
10006220:	685b      	ldr	r3, [r3, #4]
10006222:	4e18      	ldr	r6, [pc, #96]	; (10006284 <__wrap_getchar+0x6c>)
10006224:	4d18      	ldr	r5, [pc, #96]	; (10006288 <__wrap_getchar+0x70>)
10006226:	9201      	str	r2, [sp, #4]
10006228:	9300      	str	r3, [sp, #0]
1000622a:	6834      	ldr	r4, [r6, #0]
1000622c:	2c00      	cmp	r4, #0
1000622e:	d103      	bne.n	10006238 <__wrap_getchar+0x20>
10006230:	e013      	b.n	1000625a <__wrap_getchar+0x42>
10006232:	68e4      	ldr	r4, [r4, #12]
10006234:	2c00      	cmp	r4, #0
10006236:	d010      	beq.n	1000625a <__wrap_getchar+0x42>
10006238:	682b      	ldr	r3, [r5, #0]
1000623a:	2b00      	cmp	r3, #0
1000623c:	d001      	beq.n	10006242 <__wrap_getchar+0x2a>
1000623e:	42a3      	cmp	r3, r4
10006240:	d1f7      	bne.n	10006232 <__wrap_getchar+0x1a>
10006242:	68a3      	ldr	r3, [r4, #8]
10006244:	2b00      	cmp	r3, #0
10006246:	d0f4      	beq.n	10006232 <__wrap_getchar+0x1a>
10006248:	2101      	movs	r1, #1
1000624a:	a803      	add	r0, sp, #12
1000624c:	4798      	blx	r3
1000624e:	2800      	cmp	r0, #0
10006250:	ddef      	ble.n	10006232 <__wrap_getchar+0x1a>
10006252:	ab02      	add	r3, sp, #8
10006254:	7918      	ldrb	r0, [r3, #4]
10006256:	b004      	add	sp, #16
10006258:	bd70      	pop	{r4, r5, r6, pc}
1000625a:	2100      	movs	r1, #0
1000625c:	2001      	movs	r0, #1
1000625e:	f7fc fbdf 	bl	10002a20 <busy_wait_us>
10006262:	4b0a      	ldr	r3, [pc, #40]	; (1000628c <__wrap_getchar+0x74>)
10006264:	9900      	ldr	r1, [sp, #0]
10006266:	6a5a      	ldr	r2, [r3, #36]	; 0x24
10006268:	4291      	cmp	r1, r2
1000626a:	d8de      	bhi.n	1000622a <__wrap_getchar+0x12>
1000626c:	6a9b      	ldr	r3, [r3, #40]	; 0x28
1000626e:	9901      	ldr	r1, [sp, #4]
10006270:	428b      	cmp	r3, r1
10006272:	d202      	bcs.n	1000627a <__wrap_getchar+0x62>
10006274:	9b00      	ldr	r3, [sp, #0]
10006276:	4293      	cmp	r3, r2
10006278:	d0d7      	beq.n	1000622a <__wrap_getchar+0x12>
1000627a:	2001      	movs	r0, #1
1000627c:	4240      	negs	r0, r0
1000627e:	e7ea      	b.n	10006256 <__wrap_getchar+0x3e>
10006280:	100099e8 	.word	0x100099e8
10006284:	200013d4 	.word	0x200013d4
10006288:	200013d8 	.word	0x200013d8
1000628c:	40054000 	.word	0x40054000

10006290 <getchar_timeout_us>:
10006290:	b5f0      	push	{r4, r5, r6, r7, lr}
10006292:	46ce      	mov	lr, r9
10006294:	4647      	mov	r7, r8
10006296:	b580      	push	{r7, lr}
10006298:	b083      	sub	sp, #12
1000629a:	0006      	movs	r6, r0
1000629c:	f7fc fbb6 	bl	10002a0c <time_us_64>
100062a0:	0034      	movs	r4, r6
100062a2:	0002      	movs	r2, r0
100062a4:	000b      	movs	r3, r1
100062a6:	2500      	movs	r5, #0
100062a8:	18a4      	adds	r4, r4, r2
100062aa:	415d      	adcs	r5, r3
100062ac:	42a9      	cmp	r1, r5
100062ae:	d834      	bhi.n	1000631a <getchar_timeout_us+0x8a>
100062b0:	d031      	beq.n	10006316 <getchar_timeout_us+0x86>
100062b2:	002f      	movs	r7, r5
100062b4:	4b1c      	ldr	r3, [pc, #112]	; (10006328 <getchar_timeout_us+0x98>)
100062b6:	4699      	mov	r9, r3
100062b8:	4b1c      	ldr	r3, [pc, #112]	; (1000632c <getchar_timeout_us+0x9c>)
100062ba:	4698      	mov	r8, r3
100062bc:	464b      	mov	r3, r9
100062be:	681e      	ldr	r6, [r3, #0]
100062c0:	2e00      	cmp	r6, #0
100062c2:	d103      	bne.n	100062cc <getchar_timeout_us+0x3c>
100062c4:	e017      	b.n	100062f6 <getchar_timeout_us+0x66>
100062c6:	68f6      	ldr	r6, [r6, #12]
100062c8:	2e00      	cmp	r6, #0
100062ca:	d014      	beq.n	100062f6 <getchar_timeout_us+0x66>
100062cc:	4643      	mov	r3, r8
100062ce:	681b      	ldr	r3, [r3, #0]
100062d0:	2b00      	cmp	r3, #0
100062d2:	d001      	beq.n	100062d8 <getchar_timeout_us+0x48>
100062d4:	42b3      	cmp	r3, r6
100062d6:	d1f6      	bne.n	100062c6 <getchar_timeout_us+0x36>
100062d8:	68b3      	ldr	r3, [r6, #8]
100062da:	2b00      	cmp	r3, #0
100062dc:	d0f3      	beq.n	100062c6 <getchar_timeout_us+0x36>
100062de:	2101      	movs	r1, #1
100062e0:	a801      	add	r0, sp, #4
100062e2:	4798      	blx	r3
100062e4:	2800      	cmp	r0, #0
100062e6:	ddee      	ble.n	100062c6 <getchar_timeout_us+0x36>
100062e8:	466b      	mov	r3, sp
100062ea:	7918      	ldrb	r0, [r3, #4]
100062ec:	b003      	add	sp, #12
100062ee:	bc0c      	pop	{r2, r3}
100062f0:	4690      	mov	r8, r2
100062f2:	4699      	mov	r9, r3
100062f4:	bdf0      	pop	{r4, r5, r6, r7, pc}
100062f6:	2001      	movs	r0, #1
100062f8:	2100      	movs	r1, #0
100062fa:	f7fc fb91 	bl	10002a20 <busy_wait_us>
100062fe:	4b0c      	ldr	r3, [pc, #48]	; (10006330 <getchar_timeout_us+0xa0>)
10006300:	6a5a      	ldr	r2, [r3, #36]	; 0x24
10006302:	42ba      	cmp	r2, r7
10006304:	d3da      	bcc.n	100062bc <getchar_timeout_us+0x2c>
10006306:	6a9b      	ldr	r3, [r3, #40]	; 0x28
10006308:	42a3      	cmp	r3, r4
1000630a:	d201      	bcs.n	10006310 <getchar_timeout_us+0x80>
1000630c:	42ba      	cmp	r2, r7
1000630e:	d0d5      	beq.n	100062bc <getchar_timeout_us+0x2c>
10006310:	2001      	movs	r0, #1
10006312:	4240      	negs	r0, r0
10006314:	e7ea      	b.n	100062ec <getchar_timeout_us+0x5c>
10006316:	42a0      	cmp	r0, r4
10006318:	d9cb      	bls.n	100062b2 <getchar_timeout_us+0x22>
1000631a:	2701      	movs	r7, #1
1000631c:	2401      	movs	r4, #1
1000631e:	4264      	negs	r4, r4
10006320:	17e5      	asrs	r5, r4, #31
10006322:	427f      	negs	r7, r7
10006324:	e7c6      	b.n	100062b4 <getchar_timeout_us+0x24>
10006326:	46c0      	nop			; (mov r8, r8)
10006328:	200013d4 	.word	0x200013d4
1000632c:	200013d8 	.word	0x200013d8
10006330:	40054000 	.word	0x40054000

10006334 <resetd_init>:
10006334:	4770      	bx	lr
10006336:	46c0      	nop			; (mov r8, r8)

10006338 <resetd_reset>:
10006338:	2200      	movs	r2, #0
1000633a:	4b01      	ldr	r3, [pc, #4]	; (10006340 <resetd_reset+0x8>)
1000633c:	701a      	strb	r2, [r3, #0]
1000633e:	4770      	bx	lr
10006340:	200018aa 	.word	0x200018aa

10006344 <resetd_open>:
10006344:	794b      	ldrb	r3, [r1, #5]
10006346:	2000      	movs	r0, #0
10006348:	2bff      	cmp	r3, #255	; 0xff
1000634a:	d10b      	bne.n	10006364 <resetd_open+0x20>
1000634c:	798b      	ldrb	r3, [r1, #6]
1000634e:	2b00      	cmp	r3, #0
10006350:	d108      	bne.n	10006364 <resetd_open+0x20>
10006352:	79cb      	ldrb	r3, [r1, #7]
10006354:	2b01      	cmp	r3, #1
10006356:	d105      	bne.n	10006364 <resetd_open+0x20>
10006358:	2a08      	cmp	r2, #8
1000635a:	d903      	bls.n	10006364 <resetd_open+0x20>
1000635c:	788a      	ldrb	r2, [r1, #2]
1000635e:	4b02      	ldr	r3, [pc, #8]	; (10006368 <resetd_open+0x24>)
10006360:	3009      	adds	r0, #9
10006362:	701a      	strb	r2, [r3, #0]
10006364:	4770      	bx	lr
10006366:	46c0      	nop			; (mov r8, r8)
10006368:	200018aa 	.word	0x200018aa

1000636c <resetd_xfer_cb>:
1000636c:	2001      	movs	r0, #1
1000636e:	4770      	bx	lr

10006370 <resetd_control_xfer_cb>:
10006370:	b570      	push	{r4, r5, r6, lr}
10006372:	2900      	cmp	r1, #0
10006374:	d115      	bne.n	100063a2 <resetd_control_xfer_cb+0x32>
10006376:	4915      	ldr	r1, [pc, #84]	; (100063cc <resetd_control_xfer_cb+0x5c>)
10006378:	7953      	ldrb	r3, [r2, #5]
1000637a:	7910      	ldrb	r0, [r2, #4]
1000637c:	7809      	ldrb	r1, [r1, #0]
1000637e:	021b      	lsls	r3, r3, #8
10006380:	4303      	orrs	r3, r0
10006382:	2000      	movs	r0, #0
10006384:	4299      	cmp	r1, r3
10006386:	d000      	beq.n	1000638a <resetd_control_xfer_cb+0x1a>
10006388:	bd70      	pop	{r4, r5, r6, pc}
1000638a:	7853      	ldrb	r3, [r2, #1]
1000638c:	2b01      	cmp	r3, #1
1000638e:	d00a      	beq.n	100063a6 <resetd_control_xfer_cb+0x36>
10006390:	2b02      	cmp	r3, #2
10006392:	d1f9      	bne.n	10006388 <resetd_control_xfer_cb+0x18>
10006394:	2000      	movs	r0, #0
10006396:	2264      	movs	r2, #100	; 0x64
10006398:	2100      	movs	r1, #0
1000639a:	f7fd fa7d 	bl	10003898 <watchdog_reboot>
1000639e:	2001      	movs	r0, #1
100063a0:	e7f2      	b.n	10006388 <resetd_control_xfer_cb+0x18>
100063a2:	2001      	movs	r0, #1
100063a4:	e7f0      	b.n	10006388 <resetd_control_xfer_cb+0x18>
100063a6:	7894      	ldrb	r4, [r2, #2]
100063a8:	78d2      	ldrb	r2, [r2, #3]
100063aa:	0005      	movs	r5, r0
100063ac:	0212      	lsls	r2, r2, #8
100063ae:	4314      	orrs	r4, r2
100063b0:	05d2      	lsls	r2, r2, #23
100063b2:	d502      	bpl.n	100063ba <resetd_control_xfer_cb+0x4a>
100063b4:	0a62      	lsrs	r2, r4, #9
100063b6:	4093      	lsls	r3, r2
100063b8:	001d      	movs	r5, r3
100063ba:	4805      	ldr	r0, [pc, #20]	; (100063d0 <resetd_control_xfer_cb+0x60>)
100063bc:	f7fe fe0e 	bl	10004fdc <rom_func_lookup>
100063c0:	217f      	movs	r1, #127	; 0x7f
100063c2:	0003      	movs	r3, r0
100063c4:	4021      	ands	r1, r4
100063c6:	0028      	movs	r0, r5
100063c8:	4798      	blx	r3
100063ca:	46c0      	nop			; (mov r8, r8)
100063cc:	200018aa 	.word	0x200018aa
100063d0:	00004255 	.word	0x00004255

100063d4 <usbd_app_driver_get_cb>:
100063d4:	2301      	movs	r3, #1
100063d6:	7003      	strb	r3, [r0, #0]
100063d8:	4800      	ldr	r0, [pc, #0]	; (100063dc <usbd_app_driver_get_cb+0x8>)
100063da:	4770      	bx	lr
100063dc:	10009cec 	.word	0x10009cec

100063e0 <tud_cdc_line_coding_cb>:
100063e0:	784a      	ldrb	r2, [r1, #1]
100063e2:	780b      	ldrb	r3, [r1, #0]
100063e4:	0212      	lsls	r2, r2, #8
100063e6:	431a      	orrs	r2, r3
100063e8:	788b      	ldrb	r3, [r1, #2]
100063ea:	b510      	push	{r4, lr}
100063ec:	041b      	lsls	r3, r3, #16
100063ee:	431a      	orrs	r2, r3
100063f0:	78cb      	ldrb	r3, [r1, #3]
100063f2:	061b      	lsls	r3, r3, #24
100063f4:	4313      	orrs	r3, r2
100063f6:	2296      	movs	r2, #150	; 0x96
100063f8:	00d2      	lsls	r2, r2, #3
100063fa:	4293      	cmp	r3, r2
100063fc:	d000      	beq.n	10006400 <tud_cdc_line_coding_cb+0x20>
100063fe:	bd10      	pop	{r4, pc}
10006400:	4803      	ldr	r0, [pc, #12]	; (10006410 <tud_cdc_line_coding_cb+0x30>)
10006402:	f7fe fdeb 	bl	10004fdc <rom_func_lookup>
10006406:	2100      	movs	r1, #0
10006408:	0003      	movs	r3, r0
1000640a:	0008      	movs	r0, r1
1000640c:	4798      	blx	r3
1000640e:	46c0      	nop			; (mov r8, r8)
10006410:	00004255 	.word	0x00004255

10006414 <stdio_usb_in_chars>:
10006414:	b570      	push	{r4, r5, r6, lr}
10006416:	4c18      	ldr	r4, [pc, #96]	; (10006478 <stdio_usb_in_chars+0x64>)
10006418:	b082      	sub	sp, #8
1000641a:	0006      	movs	r6, r0
1000641c:	000d      	movs	r5, r1
1000641e:	0020      	movs	r0, r4
10006420:	a901      	add	r1, sp, #4
10006422:	f003 f981 	bl	10009728 <__mutex_try_enter_veneer>
10006426:	2800      	cmp	r0, #0
10006428:	d108      	bne.n	1000643c <stdio_usb_in_chars+0x28>
1000642a:	23d0      	movs	r3, #208	; 0xd0
1000642c:	061b      	lsls	r3, r3, #24
1000642e:	681b      	ldr	r3, [r3, #0]
10006430:	9a01      	ldr	r2, [sp, #4]
10006432:	429a      	cmp	r2, r3
10006434:	d01c      	beq.n	10006470 <stdio_usb_in_chars+0x5c>
10006436:	0020      	movs	r0, r4
10006438:	f003 f98e 	bl	10009758 <__mutex_enter_blocking_veneer>
1000643c:	2000      	movs	r0, #0
1000643e:	f001 fe03 	bl	10008048 <tud_cdc_n_connected>
10006442:	2800      	cmp	r0, #0
10006444:	d107      	bne.n	10006456 <stdio_usb_in_chars+0x42>
10006446:	2503      	movs	r5, #3
10006448:	426d      	negs	r5, r5
1000644a:	0020      	movs	r0, r4
1000644c:	f003 f954 	bl	100096f8 <__mutex_exit_veneer>
10006450:	0028      	movs	r0, r5
10006452:	b002      	add	sp, #8
10006454:	bd70      	pop	{r4, r5, r6, pc}
10006456:	2000      	movs	r0, #0
10006458:	f001 fe0e 	bl	10008078 <tud_cdc_n_available>
1000645c:	2800      	cmp	r0, #0
1000645e:	d0f2      	beq.n	10006446 <stdio_usb_in_chars+0x32>
10006460:	002a      	movs	r2, r5
10006462:	0031      	movs	r1, r6
10006464:	2000      	movs	r0, #0
10006466:	f001 fe13 	bl	10008090 <tud_cdc_n_read>
1000646a:	1e05      	subs	r5, r0, #0
1000646c:	d0eb      	beq.n	10006446 <stdio_usb_in_chars+0x32>
1000646e:	e7ec      	b.n	1000644a <stdio_usb_in_chars+0x36>
10006470:	2503      	movs	r5, #3
10006472:	426d      	negs	r5, r5
10006474:	e7ec      	b.n	10006450 <stdio_usb_in_chars+0x3c>
10006476:	46c0      	nop			; (mov r8, r8)
10006478:	2000187c 	.word	0x2000187c

1000647c <stdio_usb_out_chars>:
1000647c:	b5f0      	push	{r4, r5, r6, r7, lr}
1000647e:	464f      	mov	r7, r9
10006480:	46d6      	mov	lr, sl
10006482:	4646      	mov	r6, r8
10006484:	b5c0      	push	{r6, r7, lr}
10006486:	4b35      	ldr	r3, [pc, #212]	; (1000655c <stdio_usb_out_chars+0xe0>)
10006488:	b082      	sub	sp, #8
1000648a:	0007      	movs	r7, r0
1000648c:	000d      	movs	r5, r1
1000648e:	0018      	movs	r0, r3
10006490:	a901      	add	r1, sp, #4
10006492:	4699      	mov	r9, r3
10006494:	f003 f948 	bl	10009728 <__mutex_try_enter_veneer>
10006498:	2800      	cmp	r0, #0
1000649a:	d108      	bne.n	100064ae <stdio_usb_out_chars+0x32>
1000649c:	23d0      	movs	r3, #208	; 0xd0
1000649e:	061b      	lsls	r3, r3, #24
100064a0:	681b      	ldr	r3, [r3, #0]
100064a2:	9a01      	ldr	r2, [sp, #4]
100064a4:	429a      	cmp	r2, r3
100064a6:	d052      	beq.n	1000654e <stdio_usb_out_chars+0xd2>
100064a8:	4648      	mov	r0, r9
100064aa:	f003 f955 	bl	10009758 <__mutex_enter_blocking_veneer>
100064ae:	2000      	movs	r0, #0
100064b0:	f001 fdca 	bl	10008048 <tud_cdc_n_connected>
100064b4:	2800      	cmp	r0, #0
100064b6:	d042      	beq.n	1000653e <stdio_usb_out_chars+0xc2>
100064b8:	2400      	movs	r4, #0
100064ba:	2d00      	cmp	r5, #0
100064bc:	dd44      	ble.n	10006548 <stdio_usb_out_chars+0xcc>
100064be:	4b28      	ldr	r3, [pc, #160]	; (10006560 <stdio_usb_out_chars+0xe4>)
100064c0:	469a      	mov	sl, r3
100064c2:	4698      	mov	r8, r3
100064c4:	e011      	b.n	100064ea <stdio_usb_out_chars+0x6e>
100064c6:	1939      	adds	r1, r7, r4
100064c8:	2000      	movs	r0, #0
100064ca:	f001 fe55 	bl	10008178 <tud_cdc_n_write>
100064ce:	0006      	movs	r6, r0
100064d0:	f000 fe4c 	bl	1000716c <tud_task>
100064d4:	2000      	movs	r0, #0
100064d6:	f001 fe13 	bl	10008100 <tud_cdc_n_write_flush>
100064da:	f7fc fa97 	bl	10002a0c <time_us_64>
100064de:	4643      	mov	r3, r8
100064e0:	6018      	str	r0, [r3, #0]
100064e2:	6059      	str	r1, [r3, #4]
100064e4:	19a4      	adds	r4, r4, r6
100064e6:	42ac      	cmp	r4, r5
100064e8:	da2e      	bge.n	10006548 <stdio_usb_out_chars+0xcc>
100064ea:	2000      	movs	r0, #0
100064ec:	f001 fe5e 	bl	100081ac <tud_cdc_n_write_available>
100064f0:	1b2e      	subs	r6, r5, r4
100064f2:	0002      	movs	r2, r0
100064f4:	42b0      	cmp	r0, r6
100064f6:	dd00      	ble.n	100064fa <stdio_usb_out_chars+0x7e>
100064f8:	0032      	movs	r2, r6
100064fa:	2a00      	cmp	r2, #0
100064fc:	d1e3      	bne.n	100064c6 <stdio_usb_out_chars+0x4a>
100064fe:	f000 fe35 	bl	1000716c <tud_task>
10006502:	2000      	movs	r0, #0
10006504:	f001 fdfc 	bl	10008100 <tud_cdc_n_write_flush>
10006508:	2000      	movs	r0, #0
1000650a:	f001 fd9d 	bl	10008048 <tud_cdc_n_connected>
1000650e:	2800      	cmp	r0, #0
10006510:	d01a      	beq.n	10006548 <stdio_usb_out_chars+0xcc>
10006512:	2000      	movs	r0, #0
10006514:	f001 fe4a 	bl	100081ac <tud_cdc_n_write_available>
10006518:	2800      	cmp	r0, #0
1000651a:	d1e4      	bne.n	100064e6 <stdio_usb_out_chars+0x6a>
1000651c:	f7fc fa76 	bl	10002a0c <time_us_64>
10006520:	4653      	mov	r3, sl
10006522:	000e      	movs	r6, r1
10006524:	681a      	ldr	r2, [r3, #0]
10006526:	685b      	ldr	r3, [r3, #4]
10006528:	2100      	movs	r1, #0
1000652a:	4684      	mov	ip, r0
1000652c:	480d      	ldr	r0, [pc, #52]	; (10006564 <stdio_usb_out_chars+0xe8>)
1000652e:	1812      	adds	r2, r2, r0
10006530:	414b      	adcs	r3, r1
10006532:	429e      	cmp	r6, r3
10006534:	d808      	bhi.n	10006548 <stdio_usb_out_chars+0xcc>
10006536:	d1d6      	bne.n	100064e6 <stdio_usb_out_chars+0x6a>
10006538:	4594      	cmp	ip, r2
1000653a:	d9d4      	bls.n	100064e6 <stdio_usb_out_chars+0x6a>
1000653c:	e004      	b.n	10006548 <stdio_usb_out_chars+0xcc>
1000653e:	2000      	movs	r0, #0
10006540:	2100      	movs	r1, #0
10006542:	4b07      	ldr	r3, [pc, #28]	; (10006560 <stdio_usb_out_chars+0xe4>)
10006544:	6018      	str	r0, [r3, #0]
10006546:	6059      	str	r1, [r3, #4]
10006548:	4648      	mov	r0, r9
1000654a:	f003 f8d5 	bl	100096f8 <__mutex_exit_veneer>
1000654e:	b002      	add	sp, #8
10006550:	bc1c      	pop	{r2, r3, r4}
10006552:	4690      	mov	r8, r2
10006554:	4699      	mov	r9, r3
10006556:	46a2      	mov	sl, r4
10006558:	bdf0      	pop	{r4, r5, r6, r7, pc}
1000655a:	46c0      	nop			; (mov r8, r8)
1000655c:	2000187c 	.word	0x2000187c
10006560:	20000e38 	.word	0x20000e38
10006564:	0007a120 	.word	0x0007a120

10006568 <timer_task>:
10006568:	201f      	movs	r0, #31
1000656a:	b510      	push	{r4, lr}
1000656c:	f7fc ffb6 	bl	100034dc <irq_set_pending>
10006570:	20fa      	movs	r0, #250	; 0xfa
10006572:	2100      	movs	r1, #0
10006574:	0080      	lsls	r0, r0, #2
10006576:	bd10      	pop	{r4, pc}

10006578 <low_priority_worker_irq>:
10006578:	b510      	push	{r4, lr}
1000657a:	4c07      	ldr	r4, [pc, #28]	; (10006598 <low_priority_worker_irq+0x20>)
1000657c:	2100      	movs	r1, #0
1000657e:	0020      	movs	r0, r4
10006580:	f003 f8d2 	bl	10009728 <__mutex_try_enter_veneer>
10006584:	2800      	cmp	r0, #0
10006586:	d100      	bne.n	1000658a <low_priority_worker_irq+0x12>
10006588:	bd10      	pop	{r4, pc}
1000658a:	f000 fdef 	bl	1000716c <tud_task>
1000658e:	0020      	movs	r0, r4
10006590:	f003 f8b2 	bl	100096f8 <__mutex_exit_veneer>
10006594:	e7f8      	b.n	10006588 <low_priority_worker_irq+0x10>
10006596:	46c0      	nop			; (mov r8, r8)
10006598:	2000187c 	.word	0x2000187c

1000659c <stdio_usb_init>:
1000659c:	b570      	push	{r4, r5, r6, lr}
1000659e:	4b1e      	ldr	r3, [pc, #120]	; (10006618 <stdio_usb_init+0x7c>)
100065a0:	b084      	sub	sp, #16
100065a2:	781b      	ldrb	r3, [r3, #0]
100065a4:	f002 f812 	bl	100085cc <tusb_init>
100065a8:	201f      	movs	r0, #31
100065aa:	491c      	ldr	r1, [pc, #112]	; (1000661c <stdio_usb_init+0x80>)
100065ac:	f7fc ffa6 	bl	100034fc <irq_set_exclusive_handler>
100065b0:	2101      	movs	r1, #1
100065b2:	201f      	movs	r0, #31
100065b4:	f7fc ff80 	bl	100034b8 <irq_set_enabled>
100065b8:	4819      	ldr	r0, [pc, #100]	; (10006620 <stdio_usb_init+0x84>)
100065ba:	f7fc fb4b 	bl	10002c54 <mutex_init>
100065be:	f7fb ffef 	bl	100025a0 <alarm_pool_get_default>
100065c2:	0006      	movs	r6, r0
100065c4:	f7fc fa22 	bl	10002a0c <time_us_64>
100065c8:	22fa      	movs	r2, #250	; 0xfa
100065ca:	0004      	movs	r4, r0
100065cc:	000d      	movs	r5, r1
100065ce:	2300      	movs	r3, #0
100065d0:	0092      	lsls	r2, r2, #2
100065d2:	1912      	adds	r2, r2, r4
100065d4:	416b      	adcs	r3, r5
100065d6:	4299      	cmp	r1, r3
100065d8:	d814      	bhi.n	10006604 <stdio_usb_init+0x68>
100065da:	d011      	beq.n	10006600 <stdio_usb_init+0x64>
100065dc:	2101      	movs	r1, #1
100065de:	9102      	str	r1, [sp, #8]
100065e0:	2100      	movs	r1, #0
100065e2:	9101      	str	r1, [sp, #4]
100065e4:	490f      	ldr	r1, [pc, #60]	; (10006624 <stdio_usb_init+0x88>)
100065e6:	0030      	movs	r0, r6
100065e8:	9100      	str	r1, [sp, #0]
100065ea:	f7fb ffdd 	bl	100025a8 <alarm_pool_add_alarm_at>
100065ee:	0004      	movs	r4, r0
100065f0:	1e63      	subs	r3, r4, #1
100065f2:	419c      	sbcs	r4, r3
100065f4:	b2e4      	uxtb	r4, r4
100065f6:	2800      	cmp	r0, #0
100065f8:	d108      	bne.n	1000660c <stdio_usb_init+0x70>
100065fa:	0020      	movs	r0, r4
100065fc:	b004      	add	sp, #16
100065fe:	bd70      	pop	{r4, r5, r6, pc}
10006600:	4290      	cmp	r0, r2
10006602:	d9eb      	bls.n	100065dc <stdio_usb_init+0x40>
10006604:	2201      	movs	r2, #1
10006606:	4252      	negs	r2, r2
10006608:	17d3      	asrs	r3, r2, #31
1000660a:	e7e7      	b.n	100065dc <stdio_usb_init+0x40>
1000660c:	2101      	movs	r1, #1
1000660e:	4806      	ldr	r0, [pc, #24]	; (10006628 <stdio_usb_init+0x8c>)
10006610:	f7ff fd68 	bl	100060e4 <stdio_set_driver_enabled>
10006614:	e7f1      	b.n	100065fa <stdio_usb_init+0x5e>
10006616:	46c0      	nop			; (mov r8, r8)
10006618:	10009ef8 	.word	0x10009ef8
1000661c:	10006579 	.word	0x10006579
10006620:	2000187c 	.word	0x2000187c
10006624:	10006569 	.word	0x10006569
10006628:	20000490 	.word	0x20000490

1000662c <tud_descriptor_device_cb>:
1000662c:	4800      	ldr	r0, [pc, #0]	; (10006630 <tud_descriptor_device_cb+0x4>)
1000662e:	4770      	bx	lr
10006630:	10009da4 	.word	0x10009da4

10006634 <tud_descriptor_configuration_cb>:
10006634:	4800      	ldr	r0, [pc, #0]	; (10006638 <tud_descriptor_configuration_cb+0x4>)
10006636:	4770      	bx	lr
10006638:	10009d50 	.word	0x10009d50

1000663c <tud_descriptor_string_cb>:
1000663c:	b570      	push	{r4, r5, r6, lr}
1000663e:	0004      	movs	r4, r0
10006640:	4816      	ldr	r0, [pc, #88]	; (1000669c <tud_descriptor_string_cb+0x60>)
10006642:	7803      	ldrb	r3, [r0, #0]
10006644:	2b00      	cmp	r3, #0
10006646:	d020      	beq.n	1000668a <tud_descriptor_string_cb+0x4e>
10006648:	2c00      	cmp	r4, #0
1000664a:	d106      	bne.n	1000665a <tud_descriptor_string_cb+0x1e>
1000664c:	24c1      	movs	r4, #193	; 0xc1
1000664e:	4814      	ldr	r0, [pc, #80]	; (100066a0 <tud_descriptor_string_cb+0x64>)
10006650:	4b14      	ldr	r3, [pc, #80]	; (100066a4 <tud_descriptor_string_cb+0x68>)
10006652:	00a4      	lsls	r4, r4, #2
10006654:	8043      	strh	r3, [r0, #2]
10006656:	8004      	strh	r4, [r0, #0]
10006658:	bd70      	pop	{r4, r5, r6, pc}
1000665a:	2c05      	cmp	r4, #5
1000665c:	d81c      	bhi.n	10006698 <tud_descriptor_string_cb+0x5c>
1000665e:	4b12      	ldr	r3, [pc, #72]	; (100066a8 <tud_descriptor_string_cb+0x6c>)
10006660:	480f      	ldr	r0, [pc, #60]	; (100066a0 <tud_descriptor_string_cb+0x64>)
10006662:	00a4      	lsls	r4, r4, #2
10006664:	58e5      	ldr	r5, [r4, r3]
10006666:	1c81      	adds	r1, r0, #2
10006668:	2300      	movs	r3, #0
1000666a:	e004      	b.n	10006676 <tud_descriptor_string_cb+0x3a>
1000666c:	3301      	adds	r3, #1
1000666e:	800a      	strh	r2, [r1, #0]
10006670:	3102      	adds	r1, #2
10006672:	2b13      	cmp	r3, #19
10006674:	d00d      	beq.n	10006692 <tud_descriptor_string_cb+0x56>
10006676:	5cea      	ldrb	r2, [r5, r3]
10006678:	b2dc      	uxtb	r4, r3
1000667a:	2a00      	cmp	r2, #0
1000667c:	d1f6      	bne.n	1000666c <tud_descriptor_string_cb+0x30>
1000667e:	23c0      	movs	r3, #192	; 0xc0
10006680:	3401      	adds	r4, #1
10006682:	0064      	lsls	r4, r4, #1
10006684:	009b      	lsls	r3, r3, #2
10006686:	431c      	orrs	r4, r3
10006688:	e7e5      	b.n	10006656 <tud_descriptor_string_cb+0x1a>
1000668a:	2111      	movs	r1, #17
1000668c:	f002 fa30 	bl	10008af0 <pico_get_unique_board_id_string>
10006690:	e7da      	b.n	10006648 <tud_descriptor_string_cb+0xc>
10006692:	24ca      	movs	r4, #202	; 0xca
10006694:	00a4      	lsls	r4, r4, #2
10006696:	e7de      	b.n	10006656 <tud_descriptor_string_cb+0x1a>
10006698:	2000      	movs	r0, #0
1000669a:	e7dd      	b.n	10006658 <tud_descriptor_string_cb+0x1c>
1000669c:	20001894 	.word	0x20001894
100066a0:	200013ac 	.word	0x200013ac
100066a4:	00000409 	.word	0x00000409
100066a8:	10009db8 	.word	0x10009db8

100066ac <dcd_rp2040_irq>:
100066ac:	b5f0      	push	{r4, r5, r6, r7, lr}
100066ae:	2398      	movs	r3, #152	; 0x98
100066b0:	4657      	mov	r7, sl
100066b2:	4645      	mov	r5, r8
100066b4:	46de      	mov	lr, fp
100066b6:	464e      	mov	r6, r9
100066b8:	4a6c      	ldr	r2, [pc, #432]	; (1000686c <dcd_rp2040_irq+0x1c0>)
100066ba:	b5e0      	push	{r5, r6, r7, lr}
100066bc:	58d7      	ldr	r7, [r2, r3]
100066be:	2580      	movs	r5, #128	; 0x80
100066c0:	003c      	movs	r4, r7
100066c2:	026d      	lsls	r5, r5, #9
100066c4:	3b88      	subs	r3, #136	; 0x88
100066c6:	469a      	mov	sl, r3
100066c8:	b083      	sub	sp, #12
100066ca:	402c      	ands	r4, r5
100066cc:	422f      	tst	r7, r5
100066ce:	d00f      	beq.n	100066f0 <dcd_rp2040_irq+0x44>
100066d0:	2201      	movs	r2, #1
100066d2:	2123      	movs	r1, #35	; 0x23
100066d4:	4b66      	ldr	r3, [pc, #408]	; (10006870 <dcd_rp2040_irq+0x1c4>)
100066d6:	2000      	movs	r0, #0
100066d8:	545a      	strb	r2, [r3, r1]
100066da:	70da      	strb	r2, [r3, #3]
100066dc:	4965      	ldr	r1, [pc, #404]	; (10006874 <dcd_rp2040_irq+0x1c8>)
100066de:	f001 fa75 	bl	10007bcc <dcd_event_setup_received>
100066e2:	2280      	movs	r2, #128	; 0x80
100066e4:	4b64      	ldr	r3, [pc, #400]	; (10006878 <dcd_rp2040_irq+0x1cc>)
100066e6:	0292      	lsls	r2, r2, #10
100066e8:	651a      	str	r2, [r3, #80]	; 0x50
100066ea:	4b64      	ldr	r3, [pc, #400]	; (1000687c <dcd_rp2040_irq+0x1d0>)
100066ec:	002c      	movs	r4, r5
100066ee:	469a      	mov	sl, r3
100066f0:	06fb      	lsls	r3, r7, #27
100066f2:	d417      	bmi.n	10006724 <dcd_rp2040_irq+0x78>
100066f4:	2380      	movs	r3, #128	; 0x80
100066f6:	015b      	lsls	r3, r3, #5
100066f8:	421f      	tst	r7, r3
100066fa:	d145      	bne.n	10006788 <dcd_rp2040_irq+0xdc>
100066fc:	2380      	movs	r3, #128	; 0x80
100066fe:	01db      	lsls	r3, r3, #7
10006700:	421f      	tst	r7, r3
10006702:	d000      	beq.n	10006706 <dcd_rp2040_irq+0x5a>
10006704:	e088      	b.n	10006818 <dcd_rp2040_irq+0x16c>
10006706:	2380      	movs	r3, #128	; 0x80
10006708:	021b      	lsls	r3, r3, #8
1000670a:	421f      	tst	r7, r3
1000670c:	d000      	beq.n	10006710 <dcd_rp2040_irq+0x64>
1000670e:	e091      	b.n	10006834 <dcd_rp2040_irq+0x188>
10006710:	42bc      	cmp	r4, r7
10006712:	d000      	beq.n	10006716 <dcd_rp2040_irq+0x6a>
10006714:	e0a5      	b.n	10006862 <dcd_rp2040_irq+0x1b6>
10006716:	b003      	add	sp, #12
10006718:	bc3c      	pop	{r2, r3, r4, r5}
1000671a:	4690      	mov	r8, r2
1000671c:	4699      	mov	r9, r3
1000671e:	46a2      	mov	sl, r4
10006720:	46ab      	mov	fp, r5
10006722:	bdf0      	pop	{r4, r5, r6, r7, pc}
10006724:	4b51      	ldr	r3, [pc, #324]	; (1000686c <dcd_rp2040_irq+0x1c0>)
10006726:	6d9b      	ldr	r3, [r3, #88]	; 0x58
10006728:	4698      	mov	r8, r3
1000672a:	2b00      	cmp	r3, #0
1000672c:	d027      	beq.n	1000677e <dcd_rp2040_irq+0xd2>
1000672e:	4b52      	ldr	r3, [pc, #328]	; (10006878 <dcd_rp2040_irq+0x1cc>)
10006730:	2500      	movs	r5, #0
10006732:	469b      	mov	fp, r3
10006734:	2301      	movs	r3, #1
10006736:	4699      	mov	r9, r3
10006738:	4643      	mov	r3, r8
1000673a:	2601      	movs	r6, #1
1000673c:	46b8      	mov	r8, r7
1000673e:	001f      	movs	r7, r3
10006740:	e004      	b.n	1000674c <dcd_rp2040_irq+0xa0>
10006742:	3501      	adds	r5, #1
10006744:	0076      	lsls	r6, r6, #1
10006746:	b2ed      	uxtb	r5, r5
10006748:	2d20      	cmp	r5, #32
1000674a:	d017      	beq.n	1000677c <dcd_rp2040_irq+0xd0>
1000674c:	4237      	tst	r7, r6
1000674e:	d0f8      	beq.n	10006742 <dcd_rp2040_irq+0x96>
10006750:	465b      	mov	r3, fp
10006752:	659e      	str	r6, [r3, #88]	; 0x58
10006754:	464b      	mov	r3, r9
10006756:	086c      	lsrs	r4, r5, #1
10006758:	43ab      	bics	r3, r5
1000675a:	0064      	lsls	r4, r4, #1
1000675c:	18e4      	adds	r4, r4, r3
1000675e:	4b44      	ldr	r3, [pc, #272]	; (10006870 <dcd_rp2040_irq+0x1c4>)
10006760:	0164      	lsls	r4, r4, #5
10006762:	469c      	mov	ip, r3
10006764:	4464      	add	r4, ip
10006766:	0020      	movs	r0, r4
10006768:	f000 fb8c 	bl	10006e84 <hw_endpoint_xfer_continue>
1000676c:	2800      	cmp	r0, #0
1000676e:	d16c      	bne.n	1000684a <dcd_rp2040_irq+0x19e>
10006770:	3501      	adds	r5, #1
10006772:	43b7      	bics	r7, r6
10006774:	b2ed      	uxtb	r5, r5
10006776:	0076      	lsls	r6, r6, #1
10006778:	2f00      	cmp	r7, #0
1000677a:	d1e5      	bne.n	10006748 <dcd_rp2040_irq+0x9c>
1000677c:	4647      	mov	r7, r8
1000677e:	2380      	movs	r3, #128	; 0x80
10006780:	015b      	lsls	r3, r3, #5
10006782:	4654      	mov	r4, sl
10006784:	421f      	tst	r7, r3
10006786:	d0b9      	beq.n	100066fc <dcd_rp2040_irq+0x50>
10006788:	431c      	orrs	r4, r3
1000678a:	2300      	movs	r3, #0
1000678c:	4a37      	ldr	r2, [pc, #220]	; (1000686c <dcd_rp2040_irq+0x1c0>)
1000678e:	2100      	movs	r1, #0
10006790:	6013      	str	r3, [r2, #0]
10006792:	4a38      	ldr	r2, [pc, #224]	; (10006874 <dcd_rp2040_irq+0x1c8>)
10006794:	483a      	ldr	r0, [pc, #232]	; (10006880 <dcd_rp2040_irq+0x1d4>)
10006796:	6093      	str	r3, [r2, #8]
10006798:	60d3      	str	r3, [r2, #12]
1000679a:	4a3a      	ldr	r2, [pc, #232]	; (10006884 <dcd_rp2040_irq+0x1d8>)
1000679c:	6093      	str	r3, [r2, #8]
1000679e:	60d3      	str	r3, [r2, #12]
100067a0:	4a39      	ldr	r2, [pc, #228]	; (10006888 <dcd_rp2040_irq+0x1dc>)
100067a2:	6093      	str	r3, [r2, #8]
100067a4:	60d3      	str	r3, [r2, #12]
100067a6:	4a39      	ldr	r2, [pc, #228]	; (1000688c <dcd_rp2040_irq+0x1e0>)
100067a8:	6093      	str	r3, [r2, #8]
100067aa:	60d3      	str	r3, [r2, #12]
100067ac:	4a38      	ldr	r2, [pc, #224]	; (10006890 <dcd_rp2040_irq+0x1e4>)
100067ae:	6093      	str	r3, [r2, #8]
100067b0:	60d3      	str	r3, [r2, #12]
100067b2:	4a38      	ldr	r2, [pc, #224]	; (10006894 <dcd_rp2040_irq+0x1e8>)
100067b4:	6093      	str	r3, [r2, #8]
100067b6:	60d3      	str	r3, [r2, #12]
100067b8:	4a37      	ldr	r2, [pc, #220]	; (10006898 <dcd_rp2040_irq+0x1ec>)
100067ba:	6093      	str	r3, [r2, #8]
100067bc:	60d3      	str	r3, [r2, #12]
100067be:	4a37      	ldr	r2, [pc, #220]	; (1000689c <dcd_rp2040_irq+0x1f0>)
100067c0:	6093      	str	r3, [r2, #8]
100067c2:	60d3      	str	r3, [r2, #12]
100067c4:	4a36      	ldr	r2, [pc, #216]	; (100068a0 <dcd_rp2040_irq+0x1f4>)
100067c6:	6093      	str	r3, [r2, #8]
100067c8:	60d3      	str	r3, [r2, #12]
100067ca:	4a36      	ldr	r2, [pc, #216]	; (100068a4 <dcd_rp2040_irq+0x1f8>)
100067cc:	6093      	str	r3, [r2, #8]
100067ce:	60d3      	str	r3, [r2, #12]
100067d0:	4a35      	ldr	r2, [pc, #212]	; (100068a8 <dcd_rp2040_irq+0x1fc>)
100067d2:	6093      	str	r3, [r2, #8]
100067d4:	60d3      	str	r3, [r2, #12]
100067d6:	4a35      	ldr	r2, [pc, #212]	; (100068ac <dcd_rp2040_irq+0x200>)
100067d8:	6093      	str	r3, [r2, #8]
100067da:	60d3      	str	r3, [r2, #12]
100067dc:	4a34      	ldr	r2, [pc, #208]	; (100068b0 <dcd_rp2040_irq+0x204>)
100067de:	6093      	str	r3, [r2, #8]
100067e0:	60d3      	str	r3, [r2, #12]
100067e2:	4a34      	ldr	r2, [pc, #208]	; (100068b4 <dcd_rp2040_irq+0x208>)
100067e4:	6093      	str	r3, [r2, #8]
100067e6:	60d3      	str	r3, [r2, #12]
100067e8:	4a33      	ldr	r2, [pc, #204]	; (100068b8 <dcd_rp2040_irq+0x20c>)
100067ea:	6093      	str	r3, [r2, #8]
100067ec:	60d3      	str	r3, [r2, #12]
100067ee:	22f0      	movs	r2, #240	; 0xf0
100067f0:	0092      	lsls	r2, r2, #2
100067f2:	f7ff faf3 	bl	10005ddc <__wrap_memset>
100067f6:	4b31      	ldr	r3, [pc, #196]	; (100068bc <dcd_rp2040_irq+0x210>)
100067f8:	4a31      	ldr	r2, [pc, #196]	; (100068c0 <dcd_rp2040_irq+0x214>)
100067fa:	2100      	movs	r1, #0
100067fc:	601a      	str	r2, [r3, #0]
100067fe:	2000      	movs	r0, #0
10006800:	2201      	movs	r2, #1
10006802:	f001 f9b9 	bl	10007b78 <dcd_event_bus_reset>
10006806:	2280      	movs	r2, #128	; 0x80
10006808:	4b1b      	ldr	r3, [pc, #108]	; (10006878 <dcd_rp2040_irq+0x1cc>)
1000680a:	0312      	lsls	r2, r2, #12
1000680c:	651a      	str	r2, [r3, #80]	; 0x50
1000680e:	2380      	movs	r3, #128	; 0x80
10006810:	01db      	lsls	r3, r3, #7
10006812:	421f      	tst	r7, r3
10006814:	d100      	bne.n	10006818 <dcd_rp2040_irq+0x16c>
10006816:	e776      	b.n	10006706 <dcd_rp2040_irq+0x5a>
10006818:	2201      	movs	r2, #1
1000681a:	2104      	movs	r1, #4
1000681c:	2000      	movs	r0, #0
1000681e:	431c      	orrs	r4, r3
10006820:	f001 f91a 	bl	10007a58 <dcd_event_bus_signal>
10006824:	2210      	movs	r2, #16
10006826:	4b14      	ldr	r3, [pc, #80]	; (10006878 <dcd_rp2040_irq+0x1cc>)
10006828:	651a      	str	r2, [r3, #80]	; 0x50
1000682a:	2380      	movs	r3, #128	; 0x80
1000682c:	021b      	lsls	r3, r3, #8
1000682e:	421f      	tst	r7, r3
10006830:	d100      	bne.n	10006834 <dcd_rp2040_irq+0x188>
10006832:	e76d      	b.n	10006710 <dcd_rp2040_irq+0x64>
10006834:	2201      	movs	r2, #1
10006836:	2105      	movs	r1, #5
10006838:	2000      	movs	r0, #0
1000683a:	431c      	orrs	r4, r3
1000683c:	f001 f90c 	bl	10007a58 <dcd_event_bus_signal>
10006840:	2280      	movs	r2, #128	; 0x80
10006842:	4b0d      	ldr	r3, [pc, #52]	; (10006878 <dcd_rp2040_irq+0x1cc>)
10006844:	0112      	lsls	r2, r2, #4
10006846:	651a      	str	r2, [r3, #80]	; 0x50
10006848:	e762      	b.n	10006710 <dcd_rp2040_irq+0x64>
1000684a:	464b      	mov	r3, r9
1000684c:	8aa2      	ldrh	r2, [r4, #20]
1000684e:	78a1      	ldrb	r1, [r4, #2]
10006850:	2000      	movs	r0, #0
10006852:	9300      	str	r3, [sp, #0]
10006854:	2300      	movs	r3, #0
10006856:	f001 f9e1 	bl	10007c1c <dcd_event_xfer_complete>
1000685a:	0020      	movs	r0, r4
1000685c:	f000 fa50 	bl	10006d00 <hw_endpoint_reset_transfer>
10006860:	e786      	b.n	10006770 <dcd_rp2040_irq+0xc4>
10006862:	0021      	movs	r1, r4
10006864:	4817      	ldr	r0, [pc, #92]	; (100068c4 <dcd_rp2040_irq+0x218>)
10006866:	4079      	eors	r1, r7
10006868:	f7fc fca4 	bl	100031b4 <panic>
1000686c:	50110000 	.word	0x50110000
10006870:	200013e0 	.word	0x200013e0
10006874:	50100000 	.word	0x50100000
10006878:	50113000 	.word	0x50113000
1000687c:	00010010 	.word	0x00010010
10006880:	20001420 	.word	0x20001420
10006884:	50100008 	.word	0x50100008
10006888:	50100010 	.word	0x50100010
1000688c:	50100018 	.word	0x50100018
10006890:	50100020 	.word	0x50100020
10006894:	50100028 	.word	0x50100028
10006898:	50100030 	.word	0x50100030
1000689c:	50100038 	.word	0x50100038
100068a0:	50100040 	.word	0x50100040
100068a4:	50100048 	.word	0x50100048
100068a8:	50100050 	.word	0x50100050
100068ac:	50100058 	.word	0x50100058
100068b0:	50100060 	.word	0x50100060
100068b4:	50100068 	.word	0x50100068
100068b8:	50100070 	.word	0x50100070
100068bc:	200017e8 	.word	0x200017e8
100068c0:	50100180 	.word	0x50100180
100068c4:	10009dd0 	.word	0x10009dd0

100068c8 <dcd_int_enable>:
100068c8:	b510      	push	{r4, lr}
100068ca:	2101      	movs	r1, #1
100068cc:	2005      	movs	r0, #5
100068ce:	f7fc fdf3 	bl	100034b8 <irq_set_enabled>
100068d2:	bd10      	pop	{r4, pc}

100068d4 <dcd_set_address>:
100068d4:	b510      	push	{r4, lr}
100068d6:	2200      	movs	r2, #0
100068d8:	2100      	movs	r1, #0
100068da:	4802      	ldr	r0, [pc, #8]	; (100068e4 <dcd_set_address+0x10>)
100068dc:	f000 fa36 	bl	10006d4c <hw_endpoint_xfer_start>
100068e0:	bd10      	pop	{r4, pc}
100068e2:	46c0      	nop			; (mov r8, r8)
100068e4:	20001400 	.word	0x20001400

100068e8 <dcd_connect>:
100068e8:	2280      	movs	r2, #128	; 0x80
100068ea:	4b02      	ldr	r3, [pc, #8]	; (100068f4 <dcd_connect+0xc>)
100068ec:	0252      	lsls	r2, r2, #9
100068ee:	64da      	str	r2, [r3, #76]	; 0x4c
100068f0:	4770      	bx	lr
100068f2:	46c0      	nop			; (mov r8, r8)
100068f4:	50112000 	.word	0x50112000

100068f8 <dcd_init>:
100068f8:	b5f0      	push	{r4, r5, r6, r7, lr}
100068fa:	46c6      	mov	lr, r8
100068fc:	b500      	push	{lr}
100068fe:	0006      	movs	r6, r0
10006900:	f000 f9d8 	bl	10006cb4 <rp2040_usb_init>
10006904:	230c      	movs	r3, #12
10006906:	4d36      	ldr	r5, [pc, #216]	; (100069e0 <dcd_init+0xe8>)
10006908:	2005      	movs	r0, #5
1000690a:	67ab      	str	r3, [r5, #120]	; 0x78
1000690c:	4935      	ldr	r1, [pc, #212]	; (100069e4 <dcd_init+0xec>)
1000690e:	f7fc fdf5 	bl	100034fc <irq_set_exclusive_handler>
10006912:	2340      	movs	r3, #64	; 0x40
10006914:	4698      	mov	r8, r3
10006916:	4c34      	ldr	r4, [pc, #208]	; (100069e8 <dcd_init+0xf0>)
10006918:	2240      	movs	r2, #64	; 0x40
1000691a:	2100      	movs	r1, #0
1000691c:	0020      	movs	r0, r4
1000691e:	f7ff fa5d 	bl	10005ddc <__wrap_memset>
10006922:	4641      	mov	r1, r8
10006924:	2300      	movs	r3, #0
10006926:	2701      	movs	r7, #1
10006928:	2200      	movs	r2, #0
1000692a:	2021      	movs	r0, #33	; 0x21
1000692c:	83a1      	strh	r1, [r4, #28]
1000692e:	492f      	ldr	r1, [pc, #188]	; (100069ec <dcd_init+0xf4>)
10006930:	7067      	strb	r7, [r4, #1]
10006932:	8063      	strh	r3, [r4, #2]
10006934:	77a2      	strb	r2, [r4, #30]
10006936:	60a1      	str	r1, [r4, #8]
10006938:	600b      	str	r3, [r1, #0]
1000693a:	5422      	strb	r2, [r4, r0]
1000693c:	305f      	adds	r0, #95	; 0x5f
1000693e:	8460      	strh	r0, [r4, #34]	; 0x22
10006940:	4640      	mov	r0, r8
10006942:	87a0      	strh	r0, [r4, #60]	; 0x3c
10006944:	3802      	subs	r0, #2
10006946:	5422      	strb	r2, [r4, r0]
10006948:	4929      	ldr	r1, [pc, #164]	; (100069f0 <dcd_init+0xf8>)
1000694a:	4a2a      	ldr	r2, [pc, #168]	; (100069f4 <dcd_init+0xfc>)
1000694c:	6063      	str	r3, [r4, #4]
1000694e:	60e1      	str	r1, [r4, #12]
10006950:	62a2      	str	r2, [r4, #40]	; 0x28
10006952:	6013      	str	r3, [r2, #0]
10006954:	4a28      	ldr	r2, [pc, #160]	; (100069f8 <dcd_init+0x100>)
10006956:	6263      	str	r3, [r4, #36]	; 0x24
10006958:	62e1      	str	r1, [r4, #44]	; 0x2c
1000695a:	6093      	str	r3, [r2, #8]
1000695c:	60d3      	str	r3, [r2, #12]
1000695e:	4a27      	ldr	r2, [pc, #156]	; (100069fc <dcd_init+0x104>)
10006960:	0020      	movs	r0, r4
10006962:	6093      	str	r3, [r2, #8]
10006964:	60d3      	str	r3, [r2, #12]
10006966:	4a26      	ldr	r2, [pc, #152]	; (10006a00 <dcd_init+0x108>)
10006968:	2100      	movs	r1, #0
1000696a:	6093      	str	r3, [r2, #8]
1000696c:	60d3      	str	r3, [r2, #12]
1000696e:	4a25      	ldr	r2, [pc, #148]	; (10006a04 <dcd_init+0x10c>)
10006970:	3040      	adds	r0, #64	; 0x40
10006972:	6093      	str	r3, [r2, #8]
10006974:	60d3      	str	r3, [r2, #12]
10006976:	4a24      	ldr	r2, [pc, #144]	; (10006a08 <dcd_init+0x110>)
10006978:	6093      	str	r3, [r2, #8]
1000697a:	60d3      	str	r3, [r2, #12]
1000697c:	4a23      	ldr	r2, [pc, #140]	; (10006a0c <dcd_init+0x114>)
1000697e:	6093      	str	r3, [r2, #8]
10006980:	60d3      	str	r3, [r2, #12]
10006982:	4a23      	ldr	r2, [pc, #140]	; (10006a10 <dcd_init+0x118>)
10006984:	6093      	str	r3, [r2, #8]
10006986:	60d3      	str	r3, [r2, #12]
10006988:	4a22      	ldr	r2, [pc, #136]	; (10006a14 <dcd_init+0x11c>)
1000698a:	6093      	str	r3, [r2, #8]
1000698c:	60d3      	str	r3, [r2, #12]
1000698e:	4a22      	ldr	r2, [pc, #136]	; (10006a18 <dcd_init+0x120>)
10006990:	6093      	str	r3, [r2, #8]
10006992:	60d3      	str	r3, [r2, #12]
10006994:	4a21      	ldr	r2, [pc, #132]	; (10006a1c <dcd_init+0x124>)
10006996:	6093      	str	r3, [r2, #8]
10006998:	60d3      	str	r3, [r2, #12]
1000699a:	4a21      	ldr	r2, [pc, #132]	; (10006a20 <dcd_init+0x128>)
1000699c:	6093      	str	r3, [r2, #8]
1000699e:	60d3      	str	r3, [r2, #12]
100069a0:	4a20      	ldr	r2, [pc, #128]	; (10006a24 <dcd_init+0x12c>)
100069a2:	6093      	str	r3, [r2, #8]
100069a4:	60d3      	str	r3, [r2, #12]
100069a6:	4a20      	ldr	r2, [pc, #128]	; (10006a28 <dcd_init+0x130>)
100069a8:	6093      	str	r3, [r2, #8]
100069aa:	60d3      	str	r3, [r2, #12]
100069ac:	4a1f      	ldr	r2, [pc, #124]	; (10006a2c <dcd_init+0x134>)
100069ae:	6093      	str	r3, [r2, #8]
100069b0:	60d3      	str	r3, [r2, #12]
100069b2:	4a1f      	ldr	r2, [pc, #124]	; (10006a30 <dcd_init+0x138>)
100069b4:	6093      	str	r3, [r2, #8]
100069b6:	60d3      	str	r3, [r2, #12]
100069b8:	22f0      	movs	r2, #240	; 0xf0
100069ba:	0092      	lsls	r2, r2, #2
100069bc:	f7ff fa0e 	bl	10005ddc <__wrap_memset>
100069c0:	4b1c      	ldr	r3, [pc, #112]	; (10006a34 <dcd_init+0x13c>)
100069c2:	4a1d      	ldr	r2, [pc, #116]	; (10006a38 <dcd_init+0x140>)
100069c4:	0030      	movs	r0, r6
100069c6:	601a      	str	r2, [r3, #0]
100069c8:	2380      	movs	r3, #128	; 0x80
100069ca:	059b      	lsls	r3, r3, #22
100069cc:	642f      	str	r7, [r5, #64]	; 0x40
100069ce:	64eb      	str	r3, [r5, #76]	; 0x4c
100069d0:	2390      	movs	r3, #144	; 0x90
100069d2:	4a1a      	ldr	r2, [pc, #104]	; (10006a3c <dcd_init+0x144>)
100069d4:	50ea      	str	r2, [r5, r3]
100069d6:	f7ff ff87 	bl	100068e8 <dcd_connect>
100069da:	bc04      	pop	{r2}
100069dc:	4690      	mov	r8, r2
100069de:	bdf0      	pop	{r4, r5, r6, r7, pc}
100069e0:	50110000 	.word	0x50110000
100069e4:	100066ad 	.word	0x100066ad
100069e8:	200013e0 	.word	0x200013e0
100069ec:	50100084 	.word	0x50100084
100069f0:	50100100 	.word	0x50100100
100069f4:	50100080 	.word	0x50100080
100069f8:	50100000 	.word	0x50100000
100069fc:	50100008 	.word	0x50100008
10006a00:	50100010 	.word	0x50100010
10006a04:	50100018 	.word	0x50100018
10006a08:	50100020 	.word	0x50100020
10006a0c:	50100028 	.word	0x50100028
10006a10:	50100030 	.word	0x50100030
10006a14:	50100038 	.word	0x50100038
10006a18:	50100040 	.word	0x50100040
10006a1c:	50100048 	.word	0x50100048
10006a20:	50100050 	.word	0x50100050
10006a24:	50100058 	.word	0x50100058
10006a28:	50100060 	.word	0x50100060
10006a2c:	50100068 	.word	0x50100068
10006a30:	50100070 	.word	0x50100070
10006a34:	200017e8 	.word	0x200017e8
10006a38:	50100180 	.word	0x50100180
10006a3c:	0001d010 	.word	0x0001d010

10006a40 <dcd_edpt0_status_complete>:
10006a40:	780b      	ldrb	r3, [r1, #0]
10006a42:	065b      	lsls	r3, r3, #25
10006a44:	d102      	bne.n	10006a4c <dcd_edpt0_status_complete+0xc>
10006a46:	784b      	ldrb	r3, [r1, #1]
10006a48:	2b05      	cmp	r3, #5
10006a4a:	d000      	beq.n	10006a4e <dcd_edpt0_status_complete+0xe>
10006a4c:	4770      	bx	lr
10006a4e:	788a      	ldrb	r2, [r1, #2]
10006a50:	4b01      	ldr	r3, [pc, #4]	; (10006a58 <dcd_edpt0_status_complete+0x18>)
10006a52:	601a      	str	r2, [r3, #0]
10006a54:	e7fa      	b.n	10006a4c <dcd_edpt0_status_complete+0xc>
10006a56:	46c0      	nop			; (mov r8, r8)
10006a58:	50110000 	.word	0x50110000

10006a5c <dcd_edpt_open>:
10006a5c:	b5f0      	push	{r4, r5, r6, r7, lr}
10006a5e:	46ce      	mov	lr, r9
10006a60:	4647      	mov	r7, r8
10006a62:	2307      	movs	r3, #7
10006a64:	b580      	push	{r7, lr}
10006a66:	7948      	ldrb	r0, [r1, #5]
10006a68:	788e      	ldrb	r6, [r1, #2]
10006a6a:	790a      	ldrb	r2, [r1, #4]
10006a6c:	4003      	ands	r3, r0
10006a6e:	78c8      	ldrb	r0, [r1, #3]
10006a70:	217f      	movs	r1, #127	; 0x7f
10006a72:	0780      	lsls	r0, r0, #30
10006a74:	4031      	ands	r1, r6
10006a76:	021b      	lsls	r3, r3, #8
10006a78:	09f4      	lsrs	r4, r6, #7
10006a7a:	4313      	orrs	r3, r2
10006a7c:	004f      	lsls	r7, r1, #1
10006a7e:	0f82      	lsrs	r2, r0, #30
10006a80:	4694      	mov	ip, r2
10006a82:	4691      	mov	r9, r2
10006a84:	4d2a      	ldr	r5, [pc, #168]	; (10006b30 <dcd_edpt_open+0xd4>)
10006a86:	193a      	adds	r2, r7, r4
10006a88:	0152      	lsls	r2, r2, #5
10006a8a:	18aa      	adds	r2, r5, r2
10006a8c:	7096      	strb	r6, [r2, #2]
10006a8e:	2601      	movs	r6, #1
10006a90:	4066      	eors	r6, r4
10006a92:	7056      	strb	r6, [r2, #1]
10006a94:	4660      	mov	r0, ip
10006a96:	2600      	movs	r6, #0
10006a98:	8393      	strh	r3, [r2, #28]
10006a9a:	70d6      	strb	r6, [r2, #3]
10006a9c:	7790      	strb	r0, [r2, #30]
10006a9e:	00ca      	lsls	r2, r1, #3
10006aa0:	2c01      	cmp	r4, #1
10006aa2:	d029      	beq.n	10006af8 <dcd_edpt_open+0x9c>
10006aa4:	4823      	ldr	r0, [pc, #140]	; (10006b34 <dcd_edpt_open+0xd8>)
10006aa6:	4684      	mov	ip, r0
10006aa8:	0188      	lsls	r0, r1, #6
10006aaa:	4462      	add	r2, ip
10006aac:	4684      	mov	ip, r0
10006aae:	44ac      	add	ip, r5
10006ab0:	4660      	mov	r0, ip
10006ab2:	6082      	str	r2, [r0, #8]
10006ab4:	6016      	str	r6, [r2, #0]
10006ab6:	2900      	cmp	r1, #0
10006ab8:	d029      	beq.n	10006b0e <dcd_edpt_open+0xb2>
10006aba:	4a1f      	ldr	r2, [pc, #124]	; (10006b38 <dcd_edpt_open+0xdc>)
10006abc:	00c9      	lsls	r1, r1, #3
10006abe:	4690      	mov	r8, r2
10006ac0:	4441      	add	r1, r8
10006ac2:	6041      	str	r1, [r0, #4]
10006ac4:	223f      	movs	r2, #63	; 0x3f
10006ac6:	333f      	adds	r3, #63	; 0x3f
10006ac8:	4393      	bics	r3, r2
10006aca:	464a      	mov	r2, r9
10006acc:	2a02      	cmp	r2, #2
10006ace:	d100      	bne.n	10006ad2 <dcd_edpt_open+0x76>
10006ad0:	005b      	lsls	r3, r3, #1
10006ad2:	491a      	ldr	r1, [pc, #104]	; (10006b3c <dcd_edpt_open+0xe0>)
10006ad4:	193f      	adds	r7, r7, r4
10006ad6:	680a      	ldr	r2, [r1, #0]
10006ad8:	017f      	lsls	r7, r7, #5
10006ada:	18d3      	adds	r3, r2, r3
10006adc:	600b      	str	r3, [r1, #0]
10006ade:	4b18      	ldr	r3, [pc, #96]	; (10006b40 <dcd_edpt_open+0xe4>)
10006ae0:	19ed      	adds	r5, r5, r7
10006ae2:	4053      	eors	r3, r2
10006ae4:	60ea      	str	r2, [r5, #12]
10006ae6:	464a      	mov	r2, r9
10006ae8:	0690      	lsls	r0, r2, #26
10006aea:	4318      	orrs	r0, r3
10006aec:	2380      	movs	r3, #128	; 0x80
10006aee:	061b      	lsls	r3, r3, #24
10006af0:	4318      	orrs	r0, r3
10006af2:	686b      	ldr	r3, [r5, #4]
10006af4:	6018      	str	r0, [r3, #0]
10006af6:	e010      	b.n	10006b1a <dcd_edpt_open+0xbe>
10006af8:	4812      	ldr	r0, [pc, #72]	; (10006b44 <dcd_edpt_open+0xe8>)
10006afa:	4684      	mov	ip, r0
10006afc:	0188      	lsls	r0, r1, #6
10006afe:	4462      	add	r2, ip
10006b00:	4684      	mov	ip, r0
10006b02:	44ac      	add	ip, r5
10006b04:	4660      	mov	r0, ip
10006b06:	6282      	str	r2, [r0, #40]	; 0x28
10006b08:	6016      	str	r6, [r2, #0]
10006b0a:	2900      	cmp	r1, #0
10006b0c:	d10a      	bne.n	10006b24 <dcd_edpt_open+0xc8>
10006b0e:	2300      	movs	r3, #0
10006b10:	0164      	lsls	r4, r4, #5
10006b12:	192d      	adds	r5, r5, r4
10006b14:	606b      	str	r3, [r5, #4]
10006b16:	4b0c      	ldr	r3, [pc, #48]	; (10006b48 <dcd_edpt_open+0xec>)
10006b18:	60eb      	str	r3, [r5, #12]
10006b1a:	2001      	movs	r0, #1
10006b1c:	bc0c      	pop	{r2, r3}
10006b1e:	4690      	mov	r8, r2
10006b20:	4699      	mov	r9, r3
10006b22:	bdf0      	pop	{r4, r5, r6, r7, pc}
10006b24:	4a06      	ldr	r2, [pc, #24]	; (10006b40 <dcd_edpt_open+0xe4>)
10006b26:	00c9      	lsls	r1, r1, #3
10006b28:	4690      	mov	r8, r2
10006b2a:	4441      	add	r1, r8
10006b2c:	6241      	str	r1, [r0, #36]	; 0x24
10006b2e:	e7c9      	b.n	10006ac4 <dcd_edpt_open+0x68>
10006b30:	200013e0 	.word	0x200013e0
10006b34:	50100084 	.word	0x50100084
10006b38:	50100004 	.word	0x50100004
10006b3c:	200017e8 	.word	0x200017e8
10006b40:	50100000 	.word	0x50100000
10006b44:	50100080 	.word	0x50100080
10006b48:	50100100 	.word	0x50100100

10006b4c <dcd_edpt_close_all>:
10006b4c:	2300      	movs	r3, #0
10006b4e:	4a1c      	ldr	r2, [pc, #112]	; (10006bc0 <dcd_edpt_close_all+0x74>)
10006b50:	b510      	push	{r4, lr}
10006b52:	6093      	str	r3, [r2, #8]
10006b54:	60d3      	str	r3, [r2, #12]
10006b56:	4a1b      	ldr	r2, [pc, #108]	; (10006bc4 <dcd_edpt_close_all+0x78>)
10006b58:	2100      	movs	r1, #0
10006b5a:	6093      	str	r3, [r2, #8]
10006b5c:	60d3      	str	r3, [r2, #12]
10006b5e:	4a1a      	ldr	r2, [pc, #104]	; (10006bc8 <dcd_edpt_close_all+0x7c>)
10006b60:	481a      	ldr	r0, [pc, #104]	; (10006bcc <dcd_edpt_close_all+0x80>)
10006b62:	6093      	str	r3, [r2, #8]
10006b64:	60d3      	str	r3, [r2, #12]
10006b66:	4a1a      	ldr	r2, [pc, #104]	; (10006bd0 <dcd_edpt_close_all+0x84>)
10006b68:	6093      	str	r3, [r2, #8]
10006b6a:	60d3      	str	r3, [r2, #12]
10006b6c:	4a19      	ldr	r2, [pc, #100]	; (10006bd4 <dcd_edpt_close_all+0x88>)
10006b6e:	6093      	str	r3, [r2, #8]
10006b70:	60d3      	str	r3, [r2, #12]
10006b72:	4a19      	ldr	r2, [pc, #100]	; (10006bd8 <dcd_edpt_close_all+0x8c>)
10006b74:	6093      	str	r3, [r2, #8]
10006b76:	60d3      	str	r3, [r2, #12]
10006b78:	4a18      	ldr	r2, [pc, #96]	; (10006bdc <dcd_edpt_close_all+0x90>)
10006b7a:	6093      	str	r3, [r2, #8]
10006b7c:	60d3      	str	r3, [r2, #12]
10006b7e:	4a18      	ldr	r2, [pc, #96]	; (10006be0 <dcd_edpt_close_all+0x94>)
10006b80:	6093      	str	r3, [r2, #8]
10006b82:	60d3      	str	r3, [r2, #12]
10006b84:	4a17      	ldr	r2, [pc, #92]	; (10006be4 <dcd_edpt_close_all+0x98>)
10006b86:	6093      	str	r3, [r2, #8]
10006b88:	60d3      	str	r3, [r2, #12]
10006b8a:	4a17      	ldr	r2, [pc, #92]	; (10006be8 <dcd_edpt_close_all+0x9c>)
10006b8c:	6093      	str	r3, [r2, #8]
10006b8e:	60d3      	str	r3, [r2, #12]
10006b90:	4a16      	ldr	r2, [pc, #88]	; (10006bec <dcd_edpt_close_all+0xa0>)
10006b92:	6093      	str	r3, [r2, #8]
10006b94:	60d3      	str	r3, [r2, #12]
10006b96:	4a16      	ldr	r2, [pc, #88]	; (10006bf0 <dcd_edpt_close_all+0xa4>)
10006b98:	6093      	str	r3, [r2, #8]
10006b9a:	60d3      	str	r3, [r2, #12]
10006b9c:	4a15      	ldr	r2, [pc, #84]	; (10006bf4 <dcd_edpt_close_all+0xa8>)
10006b9e:	6093      	str	r3, [r2, #8]
10006ba0:	60d3      	str	r3, [r2, #12]
10006ba2:	4a15      	ldr	r2, [pc, #84]	; (10006bf8 <dcd_edpt_close_all+0xac>)
10006ba4:	6093      	str	r3, [r2, #8]
10006ba6:	60d3      	str	r3, [r2, #12]
10006ba8:	4a14      	ldr	r2, [pc, #80]	; (10006bfc <dcd_edpt_close_all+0xb0>)
10006baa:	6093      	str	r3, [r2, #8]
10006bac:	60d3      	str	r3, [r2, #12]
10006bae:	22f0      	movs	r2, #240	; 0xf0
10006bb0:	0092      	lsls	r2, r2, #2
10006bb2:	f7ff f913 	bl	10005ddc <__wrap_memset>
10006bb6:	4b12      	ldr	r3, [pc, #72]	; (10006c00 <dcd_edpt_close_all+0xb4>)
10006bb8:	4a12      	ldr	r2, [pc, #72]	; (10006c04 <dcd_edpt_close_all+0xb8>)
10006bba:	601a      	str	r2, [r3, #0]
10006bbc:	bd10      	pop	{r4, pc}
10006bbe:	46c0      	nop			; (mov r8, r8)
10006bc0:	50100000 	.word	0x50100000
10006bc4:	50100008 	.word	0x50100008
10006bc8:	50100010 	.word	0x50100010
10006bcc:	20001420 	.word	0x20001420
10006bd0:	50100018 	.word	0x50100018
10006bd4:	50100020 	.word	0x50100020
10006bd8:	50100028 	.word	0x50100028
10006bdc:	50100030 	.word	0x50100030
10006be0:	50100038 	.word	0x50100038
10006be4:	50100040 	.word	0x50100040
10006be8:	50100048 	.word	0x50100048
10006bec:	50100050 	.word	0x50100050
10006bf0:	50100058 	.word	0x50100058
10006bf4:	50100060 	.word	0x50100060
10006bf8:	50100068 	.word	0x50100068
10006bfc:	50100070 	.word	0x50100070
10006c00:	200017e8 	.word	0x200017e8
10006c04:	50100180 	.word	0x50100180

10006c08 <dcd_edpt_xfer>:
10006c08:	b510      	push	{r4, lr}
10006c0a:	207f      	movs	r0, #127	; 0x7f
10006c0c:	000c      	movs	r4, r1
10006c0e:	4020      	ands	r0, r4
10006c10:	0040      	lsls	r0, r0, #1
10006c12:	09e4      	lsrs	r4, r4, #7
10006c14:	0011      	movs	r1, r2
10006c16:	1900      	adds	r0, r0, r4
10006c18:	001a      	movs	r2, r3
10006c1a:	4b03      	ldr	r3, [pc, #12]	; (10006c28 <dcd_edpt_xfer+0x20>)
10006c1c:	0140      	lsls	r0, r0, #5
10006c1e:	18c0      	adds	r0, r0, r3
10006c20:	f000 f894 	bl	10006d4c <hw_endpoint_xfer_start>
10006c24:	2001      	movs	r0, #1
10006c26:	bd10      	pop	{r4, pc}
10006c28:	200013e0 	.word	0x200013e0

10006c2c <dcd_edpt_stall>:
10006c2c:	237f      	movs	r3, #127	; 0x7f
10006c2e:	0018      	movs	r0, r3
10006c30:	b510      	push	{r4, lr}
10006c32:	4008      	ands	r0, r1
10006c34:	420b      	tst	r3, r1
10006c36:	d00b      	beq.n	10006c50 <dcd_edpt_stall+0x24>
10006c38:	09c9      	lsrs	r1, r1, #7
10006c3a:	2280      	movs	r2, #128	; 0x80
10006c3c:	0040      	lsls	r0, r0, #1
10006c3e:	1840      	adds	r0, r0, r1
10006c40:	4906      	ldr	r1, [pc, #24]	; (10006c5c <dcd_edpt_stall+0x30>)
10006c42:	0140      	lsls	r0, r0, #5
10006c44:	1840      	adds	r0, r0, r1
10006c46:	0112      	lsls	r2, r2, #4
10006c48:	2100      	movs	r1, #0
10006c4a:	f000 f85f 	bl	10006d0c <_hw_endpoint_buffer_control_update32>
10006c4e:	bd10      	pop	{r4, pc}
10006c50:	2302      	movs	r3, #2
10006c52:	4a03      	ldr	r2, [pc, #12]	; (10006c60 <dcd_edpt_stall+0x34>)
10006c54:	09c9      	lsrs	r1, r1, #7
10006c56:	1a5b      	subs	r3, r3, r1
10006c58:	6693      	str	r3, [r2, #104]	; 0x68
10006c5a:	e7ee      	b.n	10006c3a <dcd_edpt_stall+0xe>
10006c5c:	200013e0 	.word	0x200013e0
10006c60:	50112000 	.word	0x50112000

10006c64 <dcd_edpt_clear_stall>:
10006c64:	237f      	movs	r3, #127	; 0x7f
10006c66:	0018      	movs	r0, r3
10006c68:	b510      	push	{r4, lr}
10006c6a:	4008      	ands	r0, r1
10006c6c:	420b      	tst	r3, r1
10006c6e:	d100      	bne.n	10006c72 <dcd_edpt_clear_stall+0xe>
10006c70:	bd10      	pop	{r4, pc}
10006c72:	2300      	movs	r3, #0
10006c74:	0040      	lsls	r0, r0, #1
10006c76:	09c9      	lsrs	r1, r1, #7
10006c78:	1841      	adds	r1, r0, r1
10006c7a:	4804      	ldr	r0, [pc, #16]	; (10006c8c <dcd_edpt_clear_stall+0x28>)
10006c7c:	0149      	lsls	r1, r1, #5
10006c7e:	1840      	adds	r0, r0, r1
10006c80:	2200      	movs	r2, #0
10006c82:	4903      	ldr	r1, [pc, #12]	; (10006c90 <dcd_edpt_clear_stall+0x2c>)
10006c84:	70c3      	strb	r3, [r0, #3]
10006c86:	f000 f841 	bl	10006d0c <_hw_endpoint_buffer_control_update32>
10006c8a:	e7f1      	b.n	10006c70 <dcd_edpt_clear_stall+0xc>
10006c8c:	200013e0 	.word	0x200013e0
10006c90:	fffff7ff 	.word	0xfffff7ff

10006c94 <_hw_endpoint_buffer_control_update32.part.0>:
10006c94:	217f      	movs	r1, #127	; 0x7f
10006c96:	b510      	push	{r4, lr}
10006c98:	7880      	ldrb	r0, [r0, #2]
10006c9a:	4a04      	ldr	r2, [pc, #16]	; (10006cac <_hw_endpoint_buffer_control_update32.part.0+0x18>)
10006c9c:	09c3      	lsrs	r3, r0, #7
10006c9e:	009b      	lsls	r3, r3, #2
10006ca0:	4001      	ands	r1, r0
10006ca2:	589a      	ldr	r2, [r3, r2]
10006ca4:	4802      	ldr	r0, [pc, #8]	; (10006cb0 <_hw_endpoint_buffer_control_update32.part.0+0x1c>)
10006ca6:	f7fc fa85 	bl	100031b4 <panic>
10006caa:	46c0      	nop			; (mov r8, r8)
10006cac:	200004a4 	.word	0x200004a4
10006cb0:	10009de4 	.word	0x10009de4

10006cb4 <rp2040_usb_init>:
10006cb4:	2280      	movs	r2, #128	; 0x80
10006cb6:	4b0d      	ldr	r3, [pc, #52]	; (10006cec <rp2040_usb_init+0x38>)
10006cb8:	0452      	lsls	r2, r2, #17
10006cba:	b510      	push	{r4, lr}
10006cbc:	601a      	str	r2, [r3, #0]
10006cbe:	4b0c      	ldr	r3, [pc, #48]	; (10006cf0 <rp2040_usb_init+0x3c>)
10006cc0:	490c      	ldr	r1, [pc, #48]	; (10006cf4 <rp2040_usb_init+0x40>)
10006cc2:	601a      	str	r2, [r3, #0]
10006cc4:	0010      	movs	r0, r2
10006cc6:	688b      	ldr	r3, [r1, #8]
10006cc8:	4398      	bics	r0, r3
10006cca:	d1fb      	bne.n	10006cc4 <rp2040_usb_init+0x10>
10006ccc:	4c0a      	ldr	r4, [pc, #40]	; (10006cf8 <rp2040_usb_init+0x44>)
10006cce:	229c      	movs	r2, #156	; 0x9c
10006cd0:	2100      	movs	r1, #0
10006cd2:	0020      	movs	r0, r4
10006cd4:	f7ff f882 	bl	10005ddc <__wrap_memset>
10006cd8:	2280      	movs	r2, #128	; 0x80
10006cda:	2100      	movs	r1, #0
10006cdc:	0152      	lsls	r2, r2, #5
10006cde:	4807      	ldr	r0, [pc, #28]	; (10006cfc <rp2040_usb_init+0x48>)
10006ce0:	f7ff f87c 	bl	10005ddc <__wrap_memset>
10006ce4:	2309      	movs	r3, #9
10006ce6:	6763      	str	r3, [r4, #116]	; 0x74
10006ce8:	bd10      	pop	{r4, pc}
10006cea:	46c0      	nop			; (mov r8, r8)
10006cec:	4000e000 	.word	0x4000e000
10006cf0:	4000f000 	.word	0x4000f000
10006cf4:	4000c000 	.word	0x4000c000
10006cf8:	50110000 	.word	0x50110000
10006cfc:	50100000 	.word	0x50100000

10006d00 <hw_endpoint_reset_transfer>:
10006d00:	2300      	movs	r3, #0
10006d02:	7403      	strb	r3, [r0, #16]
10006d04:	8243      	strh	r3, [r0, #18]
10006d06:	8283      	strh	r3, [r0, #20]
10006d08:	6183      	str	r3, [r0, #24]
10006d0a:	4770      	bx	lr

10006d0c <_hw_endpoint_buffer_control_update32>:
10006d0c:	b510      	push	{r4, lr}
10006d0e:	6883      	ldr	r3, [r0, #8]
10006d10:	2900      	cmp	r1, #0
10006d12:	d001      	beq.n	10006d18 <_hw_endpoint_buffer_control_update32+0xc>
10006d14:	681c      	ldr	r4, [r3, #0]
10006d16:	4021      	ands	r1, r4
10006d18:	2a00      	cmp	r2, #0
10006d1a:	d011      	beq.n	10006d40 <_hw_endpoint_buffer_control_update32+0x34>
10006d1c:	2480      	movs	r4, #128	; 0x80
10006d1e:	00e4      	lsls	r4, r4, #3
10006d20:	4311      	orrs	r1, r2
10006d22:	4222      	tst	r2, r4
10006d24:	d00c      	beq.n	10006d40 <_hw_endpoint_buffer_control_update32+0x34>
10006d26:	681a      	ldr	r2, [r3, #0]
10006d28:	4222      	tst	r2, r4
10006d2a:	d10b      	bne.n	10006d44 <_hw_endpoint_buffer_control_update32+0x38>
10006d2c:	4a06      	ldr	r2, [pc, #24]	; (10006d48 <_hw_endpoint_buffer_control_update32+0x3c>)
10006d2e:	400a      	ands	r2, r1
10006d30:	601a      	str	r2, [r3, #0]
10006d32:	e7ff      	b.n	10006d34 <_hw_endpoint_buffer_control_update32+0x28>
10006d34:	e7ff      	b.n	10006d36 <_hw_endpoint_buffer_control_update32+0x2a>
10006d36:	e7ff      	b.n	10006d38 <_hw_endpoint_buffer_control_update32+0x2c>
10006d38:	e7ff      	b.n	10006d3a <_hw_endpoint_buffer_control_update32+0x2e>
10006d3a:	e7ff      	b.n	10006d3c <_hw_endpoint_buffer_control_update32+0x30>
10006d3c:	e7ff      	b.n	10006d3e <_hw_endpoint_buffer_control_update32+0x32>
10006d3e:	6883      	ldr	r3, [r0, #8]
10006d40:	6019      	str	r1, [r3, #0]
10006d42:	bd10      	pop	{r4, pc}
10006d44:	f7ff ffa6 	bl	10006c94 <_hw_endpoint_buffer_control_update32.part.0>
10006d48:	fffffbff 	.word	0xfffffbff

10006d4c <hw_endpoint_xfer_start>:
10006d4c:	b5f0      	push	{r4, r5, r6, r7, lr}
10006d4e:	46c6      	mov	lr, r8
10006d50:	2300      	movs	r3, #0
10006d52:	b500      	push	{lr}
10006d54:	8283      	strh	r3, [r0, #20]
10006d56:	3301      	adds	r3, #1
10006d58:	7403      	strb	r3, [r0, #16]
10006d5a:	6843      	ldr	r3, [r0, #4]
10006d5c:	0004      	movs	r4, r0
10006d5e:	681e      	ldr	r6, [r3, #0]
10006d60:	8b83      	ldrh	r3, [r0, #28]
10006d62:	6181      	str	r1, [r0, #24]
10006d64:	1c1f      	adds	r7, r3, #0
10006d66:	4293      	cmp	r3, r2
10006d68:	d900      	bls.n	10006d6c <hw_endpoint_xfer_start+0x20>
10006d6a:	1c17      	adds	r7, r2, #0
10006d6c:	2580      	movs	r5, #128	; 0x80
10006d6e:	b2bf      	uxth	r7, r7
10006d70:	1bd2      	subs	r2, r2, r7
10006d72:	78e3      	ldrb	r3, [r4, #3]
10006d74:	b292      	uxth	r2, r2
10006d76:	00ed      	lsls	r5, r5, #3
10006d78:	8262      	strh	r2, [r4, #18]
10006d7a:	433d      	orrs	r5, r7
10006d7c:	2b00      	cmp	r3, #0
10006d7e:	d002      	beq.n	10006d86 <hw_endpoint_xfer_start+0x3a>
10006d80:	2590      	movs	r5, #144	; 0x90
10006d82:	01ad      	lsls	r5, r5, #6
10006d84:	433d      	orrs	r5, r7
10006d86:	2001      	movs	r0, #1
10006d88:	4043      	eors	r3, r0
10006d8a:	70e3      	strb	r3, [r4, #3]
10006d8c:	7863      	ldrb	r3, [r4, #1]
10006d8e:	2b00      	cmp	r3, #0
10006d90:	d051      	beq.n	10006e36 <hw_endpoint_xfer_start+0xea>
10006d92:	2a00      	cmp	r2, #0
10006d94:	d11d      	bne.n	10006dd2 <hw_endpoint_xfer_start+0x86>
10006d96:	23a0      	movs	r3, #160	; 0xa0
10006d98:	01db      	lsls	r3, r3, #7
10006d9a:	431d      	orrs	r5, r3
10006d9c:	4b35      	ldr	r3, [pc, #212]	; (10006e74 <hw_endpoint_xfer_start+0x128>)
10006d9e:	6c1b      	ldr	r3, [r3, #64]	; 0x40
10006da0:	4b35      	ldr	r3, [pc, #212]	; (10006e78 <hw_endpoint_xfer_start+0x12c>)
10006da2:	4033      	ands	r3, r6
10006da4:	2680      	movs	r6, #128	; 0x80
10006da6:	05b6      	lsls	r6, r6, #22
10006da8:	431e      	orrs	r6, r3
10006daa:	6863      	ldr	r3, [r4, #4]
10006dac:	68a2      	ldr	r2, [r4, #8]
10006dae:	601e      	str	r6, [r3, #0]
10006db0:	6813      	ldr	r3, [r2, #0]
10006db2:	055b      	lsls	r3, r3, #21
10006db4:	d45a      	bmi.n	10006e6c <hw_endpoint_xfer_start+0x120>
10006db6:	4b31      	ldr	r3, [pc, #196]	; (10006e7c <hw_endpoint_xfer_start+0x130>)
10006db8:	402b      	ands	r3, r5
10006dba:	6013      	str	r3, [r2, #0]
10006dbc:	e7ff      	b.n	10006dbe <hw_endpoint_xfer_start+0x72>
10006dbe:	e7ff      	b.n	10006dc0 <hw_endpoint_xfer_start+0x74>
10006dc0:	e7ff      	b.n	10006dc2 <hw_endpoint_xfer_start+0x76>
10006dc2:	e7ff      	b.n	10006dc4 <hw_endpoint_xfer_start+0x78>
10006dc4:	e7ff      	b.n	10006dc6 <hw_endpoint_xfer_start+0x7a>
10006dc6:	e7ff      	b.n	10006dc8 <hw_endpoint_xfer_start+0x7c>
10006dc8:	68a3      	ldr	r3, [r4, #8]
10006dca:	601d      	str	r5, [r3, #0]
10006dcc:	bc04      	pop	{r2}
10006dce:	4690      	mov	r8, r2
10006dd0:	bdf0      	pop	{r4, r5, r6, r7, pc}
10006dd2:	2380      	movs	r3, #128	; 0x80
10006dd4:	015b      	lsls	r3, r3, #5
10006dd6:	431d      	orrs	r5, r3
10006dd8:	4b26      	ldr	r3, [pc, #152]	; (10006e74 <hw_endpoint_xfer_start+0x128>)
10006dda:	6c1b      	ldr	r3, [r3, #64]	; 0x40
10006ddc:	079b      	lsls	r3, r3, #30
10006dde:	d403      	bmi.n	10006de8 <hw_endpoint_xfer_start+0x9c>
10006de0:	78a3      	ldrb	r3, [r4, #2]
10006de2:	09db      	lsrs	r3, r3, #7
10006de4:	2b01      	cmp	r3, #1
10006de6:	d1db      	bne.n	10006da0 <hw_endpoint_xfer_start+0x54>
10006de8:	8ba3      	ldrh	r3, [r4, #28]
10006dea:	1c19      	adds	r1, r3, #0
10006dec:	4293      	cmp	r3, r2
10006dee:	d900      	bls.n	10006df2 <hw_endpoint_xfer_start+0xa6>
10006df0:	1c11      	adds	r1, r2, #0
10006df2:	2780      	movs	r7, #128	; 0x80
10006df4:	b28b      	uxth	r3, r1
10006df6:	00ff      	lsls	r7, r7, #3
10006df8:	1ad2      	subs	r2, r2, r3
10006dfa:	4698      	mov	r8, r3
10006dfc:	431f      	orrs	r7, r3
10006dfe:	78e3      	ldrb	r3, [r4, #3]
10006e00:	b292      	uxth	r2, r2
10006e02:	8262      	strh	r2, [r4, #18]
10006e04:	2b00      	cmp	r3, #0
10006e06:	d003      	beq.n	10006e10 <hw_endpoint_xfer_start+0xc4>
10006e08:	2790      	movs	r7, #144	; 0x90
10006e0a:	4641      	mov	r1, r8
10006e0c:	01bf      	lsls	r7, r7, #6
10006e0e:	430f      	orrs	r7, r1
10006e10:	2101      	movs	r1, #1
10006e12:	404b      	eors	r3, r1
10006e14:	70e3      	strb	r3, [r4, #3]
10006e16:	7863      	ldrb	r3, [r4, #1]
10006e18:	2b00      	cmp	r3, #0
10006e1a:	d019      	beq.n	10006e50 <hw_endpoint_xfer_start+0x104>
10006e1c:	2a00      	cmp	r2, #0
10006e1e:	d102      	bne.n	10006e26 <hw_endpoint_xfer_start+0xda>
10006e20:	2380      	movs	r3, #128	; 0x80
10006e22:	01db      	lsls	r3, r3, #7
10006e24:	431f      	orrs	r7, r3
10006e26:	4b16      	ldr	r3, [pc, #88]	; (10006e80 <hw_endpoint_xfer_start+0x134>)
10006e28:	043f      	lsls	r7, r7, #16
10006e2a:	4033      	ands	r3, r6
10006e2c:	26a0      	movs	r6, #160	; 0xa0
10006e2e:	05f6      	lsls	r6, r6, #23
10006e30:	433d      	orrs	r5, r7
10006e32:	431e      	orrs	r6, r3
10006e34:	e7b9      	b.n	10006daa <hw_endpoint_xfer_start+0x5e>
10006e36:	003a      	movs	r2, r7
10006e38:	68e0      	ldr	r0, [r4, #12]
10006e3a:	f7fe ffd5 	bl	10005de8 <__wrap___aeabi_memcpy>
10006e3e:	69a3      	ldr	r3, [r4, #24]
10006e40:	8a62      	ldrh	r2, [r4, #18]
10006e42:	469c      	mov	ip, r3
10006e44:	2380      	movs	r3, #128	; 0x80
10006e46:	4467      	add	r7, ip
10006e48:	021b      	lsls	r3, r3, #8
10006e4a:	61a7      	str	r7, [r4, #24]
10006e4c:	431d      	orrs	r5, r3
10006e4e:	e7a0      	b.n	10006d92 <hw_endpoint_xfer_start+0x46>
10006e50:	68e0      	ldr	r0, [r4, #12]
10006e52:	4642      	mov	r2, r8
10006e54:	69a1      	ldr	r1, [r4, #24]
10006e56:	3040      	adds	r0, #64	; 0x40
10006e58:	f7fe ffc6 	bl	10005de8 <__wrap___aeabi_memcpy>
10006e5c:	69a3      	ldr	r3, [r4, #24]
10006e5e:	8a62      	ldrh	r2, [r4, #18]
10006e60:	4443      	add	r3, r8
10006e62:	61a3      	str	r3, [r4, #24]
10006e64:	2380      	movs	r3, #128	; 0x80
10006e66:	021b      	lsls	r3, r3, #8
10006e68:	431f      	orrs	r7, r3
10006e6a:	e7d7      	b.n	10006e1c <hw_endpoint_xfer_start+0xd0>
10006e6c:	0020      	movs	r0, r4
10006e6e:	f7ff ff11 	bl	10006c94 <_hw_endpoint_buffer_control_update32.part.0>
10006e72:	46c0      	nop			; (mov r8, r8)
10006e74:	50110000 	.word	0x50110000
10006e78:	afffffff 	.word	0xafffffff
10006e7c:	fffffbff 	.word	0xfffffbff
10006e80:	dfffffff 	.word	0xdfffffff

10006e84 <hw_endpoint_xfer_continue>:
10006e84:	b5f0      	push	{r4, r5, r6, r7, lr}
10006e86:	46c6      	mov	lr, r8
10006e88:	b500      	push	{lr}
10006e8a:	7c06      	ldrb	r6, [r0, #16]
10006e8c:	0004      	movs	r4, r0
10006e8e:	2e00      	cmp	r6, #0
10006e90:	d100      	bne.n	10006e94 <hw_endpoint_xfer_continue+0x10>
10006e92:	e0d3      	b.n	1000703c <hw_endpoint_xfer_continue+0x1b8>
10006e94:	6883      	ldr	r3, [r0, #8]
10006e96:	681a      	ldr	r2, [r3, #0]
10006e98:	681d      	ldr	r5, [r3, #0]
10006e9a:	7843      	ldrb	r3, [r0, #1]
10006e9c:	05ad      	lsls	r5, r5, #22
10006e9e:	0dad      	lsrs	r5, r5, #22
10006ea0:	2b00      	cmp	r3, #0
10006ea2:	d151      	bne.n	10006f48 <hw_endpoint_xfer_continue+0xc4>
10006ea4:	8a83      	ldrh	r3, [r0, #20]
10006ea6:	18eb      	adds	r3, r5, r3
10006ea8:	b29b      	uxth	r3, r3
10006eaa:	8283      	strh	r3, [r0, #20]
10006eac:	8ba1      	ldrh	r1, [r4, #28]
10006eae:	428d      	cmp	r5, r1
10006eb0:	d207      	bcs.n	10006ec2 <hw_endpoint_xfer_continue+0x3e>
10006eb2:	2300      	movs	r3, #0
10006eb4:	8263      	strh	r3, [r4, #18]
10006eb6:	6863      	ldr	r3, [r4, #4]
10006eb8:	681b      	ldr	r3, [r3, #0]
10006eba:	0030      	movs	r0, r6
10006ebc:	bc04      	pop	{r2}
10006ebe:	4690      	mov	r8, r2
10006ec0:	bdf0      	pop	{r4, r5, r6, r7, pc}
10006ec2:	6862      	ldr	r2, [r4, #4]
10006ec4:	6812      	ldr	r2, [r2, #0]
10006ec6:	0052      	lsls	r2, r2, #1
10006ec8:	d502      	bpl.n	10006ed0 <hw_endpoint_xfer_continue+0x4c>
10006eca:	428d      	cmp	r5, r1
10006ecc:	d100      	bne.n	10006ed0 <hw_endpoint_xfer_continue+0x4c>
10006ece:	e075      	b.n	10006fbc <hw_endpoint_xfer_continue+0x138>
10006ed0:	8a63      	ldrh	r3, [r4, #18]
10006ed2:	2b00      	cmp	r3, #0
10006ed4:	d0f1      	beq.n	10006eba <hw_endpoint_xfer_continue+0x36>
10006ed6:	6862      	ldr	r2, [r4, #4]
10006ed8:	1c1f      	adds	r7, r3, #0
10006eda:	6816      	ldr	r6, [r2, #0]
10006edc:	428b      	cmp	r3, r1
10006ede:	d900      	bls.n	10006ee2 <hw_endpoint_xfer_continue+0x5e>
10006ee0:	1c0f      	adds	r7, r1, #0
10006ee2:	2580      	movs	r5, #128	; 0x80
10006ee4:	b2bf      	uxth	r7, r7
10006ee6:	1bdb      	subs	r3, r3, r7
10006ee8:	78e2      	ldrb	r2, [r4, #3]
10006eea:	b29b      	uxth	r3, r3
10006eec:	00ed      	lsls	r5, r5, #3
10006eee:	8263      	strh	r3, [r4, #18]
10006ef0:	433d      	orrs	r5, r7
10006ef2:	2a00      	cmp	r2, #0
10006ef4:	d002      	beq.n	10006efc <hw_endpoint_xfer_continue+0x78>
10006ef6:	2590      	movs	r5, #144	; 0x90
10006ef8:	01ad      	lsls	r5, r5, #6
10006efa:	433d      	orrs	r5, r7
10006efc:	2101      	movs	r1, #1
10006efe:	404a      	eors	r2, r1
10006f00:	70e2      	strb	r2, [r4, #3]
10006f02:	7862      	ldrb	r2, [r4, #1]
10006f04:	2a00      	cmp	r2, #0
10006f06:	d068      	beq.n	10006fda <hw_endpoint_xfer_continue+0x156>
10006f08:	2b00      	cmp	r3, #0
10006f0a:	d12a      	bne.n	10006f62 <hw_endpoint_xfer_continue+0xde>
10006f0c:	23a0      	movs	r3, #160	; 0xa0
10006f0e:	01db      	lsls	r3, r3, #7
10006f10:	431d      	orrs	r5, r3
10006f12:	4b4f      	ldr	r3, [pc, #316]	; (10007050 <hw_endpoint_xfer_continue+0x1cc>)
10006f14:	6c1b      	ldr	r3, [r3, #64]	; 0x40
10006f16:	4b4f      	ldr	r3, [pc, #316]	; (10007054 <hw_endpoint_xfer_continue+0x1d0>)
10006f18:	4033      	ands	r3, r6
10006f1a:	2680      	movs	r6, #128	; 0x80
10006f1c:	05b6      	lsls	r6, r6, #22
10006f1e:	431e      	orrs	r6, r3
10006f20:	6863      	ldr	r3, [r4, #4]
10006f22:	68a2      	ldr	r2, [r4, #8]
10006f24:	601e      	str	r6, [r3, #0]
10006f26:	6813      	ldr	r3, [r2, #0]
10006f28:	055b      	lsls	r3, r3, #21
10006f2a:	d500      	bpl.n	10006f2e <hw_endpoint_xfer_continue+0xaa>
10006f2c:	e08d      	b.n	1000704a <hw_endpoint_xfer_continue+0x1c6>
10006f2e:	4b4a      	ldr	r3, [pc, #296]	; (10007058 <hw_endpoint_xfer_continue+0x1d4>)
10006f30:	402b      	ands	r3, r5
10006f32:	6013      	str	r3, [r2, #0]
10006f34:	e7ff      	b.n	10006f36 <hw_endpoint_xfer_continue+0xb2>
10006f36:	e7ff      	b.n	10006f38 <hw_endpoint_xfer_continue+0xb4>
10006f38:	e7ff      	b.n	10006f3a <hw_endpoint_xfer_continue+0xb6>
10006f3a:	e7ff      	b.n	10006f3c <hw_endpoint_xfer_continue+0xb8>
10006f3c:	e7ff      	b.n	10006f3e <hw_endpoint_xfer_continue+0xba>
10006f3e:	e7ff      	b.n	10006f40 <hw_endpoint_xfer_continue+0xbc>
10006f40:	68a3      	ldr	r3, [r4, #8]
10006f42:	2600      	movs	r6, #0
10006f44:	601d      	str	r5, [r3, #0]
10006f46:	e7b8      	b.n	10006eba <hw_endpoint_xfer_continue+0x36>
10006f48:	002a      	movs	r2, r5
10006f4a:	68c1      	ldr	r1, [r0, #12]
10006f4c:	6980      	ldr	r0, [r0, #24]
10006f4e:	f7fe ff4b 	bl	10005de8 <__wrap___aeabi_memcpy>
10006f52:	8aa3      	ldrh	r3, [r4, #20]
10006f54:	69a2      	ldr	r2, [r4, #24]
10006f56:	18eb      	adds	r3, r5, r3
10006f58:	b29b      	uxth	r3, r3
10006f5a:	1952      	adds	r2, r2, r5
10006f5c:	82a3      	strh	r3, [r4, #20]
10006f5e:	61a2      	str	r2, [r4, #24]
10006f60:	e7a4      	b.n	10006eac <hw_endpoint_xfer_continue+0x28>
10006f62:	2280      	movs	r2, #128	; 0x80
10006f64:	0152      	lsls	r2, r2, #5
10006f66:	4315      	orrs	r5, r2
10006f68:	4a39      	ldr	r2, [pc, #228]	; (10007050 <hw_endpoint_xfer_continue+0x1cc>)
10006f6a:	6c12      	ldr	r2, [r2, #64]	; 0x40
10006f6c:	0792      	lsls	r2, r2, #30
10006f6e:	d403      	bmi.n	10006f78 <hw_endpoint_xfer_continue+0xf4>
10006f70:	78a2      	ldrb	r2, [r4, #2]
10006f72:	09d2      	lsrs	r2, r2, #7
10006f74:	2a01      	cmp	r2, #1
10006f76:	d1ce      	bne.n	10006f16 <hw_endpoint_xfer_continue+0x92>
10006f78:	8ba2      	ldrh	r2, [r4, #28]
10006f7a:	1c11      	adds	r1, r2, #0
10006f7c:	429a      	cmp	r2, r3
10006f7e:	d83f      	bhi.n	10007000 <hw_endpoint_xfer_continue+0x17c>
10006f80:	2780      	movs	r7, #128	; 0x80
10006f82:	b28a      	uxth	r2, r1
10006f84:	00ff      	lsls	r7, r7, #3
10006f86:	1a9b      	subs	r3, r3, r2
10006f88:	4690      	mov	r8, r2
10006f8a:	4317      	orrs	r7, r2
10006f8c:	78e2      	ldrb	r2, [r4, #3]
10006f8e:	b29b      	uxth	r3, r3
10006f90:	8263      	strh	r3, [r4, #18]
10006f92:	2a00      	cmp	r2, #0
10006f94:	d12f      	bne.n	10006ff6 <hw_endpoint_xfer_continue+0x172>
10006f96:	2101      	movs	r1, #1
10006f98:	404a      	eors	r2, r1
10006f9a:	70e2      	strb	r2, [r4, #3]
10006f9c:	7862      	ldrb	r2, [r4, #1]
10006f9e:	2a00      	cmp	r2, #0
10006fa0:	d03e      	beq.n	10007020 <hw_endpoint_xfer_continue+0x19c>
10006fa2:	2b00      	cmp	r3, #0
10006fa4:	d102      	bne.n	10006fac <hw_endpoint_xfer_continue+0x128>
10006fa6:	2380      	movs	r3, #128	; 0x80
10006fa8:	01db      	lsls	r3, r3, #7
10006faa:	431f      	orrs	r7, r3
10006fac:	4b2b      	ldr	r3, [pc, #172]	; (1000705c <hw_endpoint_xfer_continue+0x1d8>)
10006fae:	043f      	lsls	r7, r7, #16
10006fb0:	4033      	ands	r3, r6
10006fb2:	26a0      	movs	r6, #160	; 0xa0
10006fb4:	05f6      	lsls	r6, r6, #23
10006fb6:	433d      	orrs	r5, r7
10006fb8:	431e      	orrs	r6, r3
10006fba:	e7b1      	b.n	10006f20 <hw_endpoint_xfer_continue+0x9c>
10006fbc:	68a2      	ldr	r2, [r4, #8]
10006fbe:	6815      	ldr	r5, [r2, #0]
10006fc0:	7862      	ldrb	r2, [r4, #1]
10006fc2:	01ad      	lsls	r5, r5, #6
10006fc4:	0dad      	lsrs	r5, r5, #22
10006fc6:	2a00      	cmp	r2, #0
10006fc8:	d11c      	bne.n	10007004 <hw_endpoint_xfer_continue+0x180>
10006fca:	18eb      	adds	r3, r5, r3
10006fcc:	82a3      	strh	r3, [r4, #20]
10006fce:	428d      	cmp	r5, r1
10006fd0:	d300      	bcc.n	10006fd4 <hw_endpoint_xfer_continue+0x150>
10006fd2:	e77d      	b.n	10006ed0 <hw_endpoint_xfer_continue+0x4c>
10006fd4:	2300      	movs	r3, #0
10006fd6:	8263      	strh	r3, [r4, #18]
10006fd8:	e76f      	b.n	10006eba <hw_endpoint_xfer_continue+0x36>
10006fda:	003a      	movs	r2, r7
10006fdc:	69a1      	ldr	r1, [r4, #24]
10006fde:	68e0      	ldr	r0, [r4, #12]
10006fe0:	f7fe ff02 	bl	10005de8 <__wrap___aeabi_memcpy>
10006fe4:	69a3      	ldr	r3, [r4, #24]
10006fe6:	469c      	mov	ip, r3
10006fe8:	2380      	movs	r3, #128	; 0x80
10006fea:	4467      	add	r7, ip
10006fec:	021b      	lsls	r3, r3, #8
10006fee:	431d      	orrs	r5, r3
10006ff0:	61a7      	str	r7, [r4, #24]
10006ff2:	8a63      	ldrh	r3, [r4, #18]
10006ff4:	e788      	b.n	10006f08 <hw_endpoint_xfer_continue+0x84>
10006ff6:	2790      	movs	r7, #144	; 0x90
10006ff8:	4641      	mov	r1, r8
10006ffa:	01bf      	lsls	r7, r7, #6
10006ffc:	430f      	orrs	r7, r1
10006ffe:	e7ca      	b.n	10006f96 <hw_endpoint_xfer_continue+0x112>
10007000:	1c19      	adds	r1, r3, #0
10007002:	e7bd      	b.n	10006f80 <hw_endpoint_xfer_continue+0xfc>
10007004:	68e1      	ldr	r1, [r4, #12]
10007006:	002a      	movs	r2, r5
10007008:	3140      	adds	r1, #64	; 0x40
1000700a:	69a0      	ldr	r0, [r4, #24]
1000700c:	f7fe feec 	bl	10005de8 <__wrap___aeabi_memcpy>
10007010:	8aa3      	ldrh	r3, [r4, #20]
10007012:	8ba1      	ldrh	r1, [r4, #28]
10007014:	18eb      	adds	r3, r5, r3
10007016:	82a3      	strh	r3, [r4, #20]
10007018:	69a3      	ldr	r3, [r4, #24]
1000701a:	195b      	adds	r3, r3, r5
1000701c:	61a3      	str	r3, [r4, #24]
1000701e:	e7d6      	b.n	10006fce <hw_endpoint_xfer_continue+0x14a>
10007020:	68e0      	ldr	r0, [r4, #12]
10007022:	4642      	mov	r2, r8
10007024:	69a1      	ldr	r1, [r4, #24]
10007026:	3040      	adds	r0, #64	; 0x40
10007028:	f7fe fede 	bl	10005de8 <__wrap___aeabi_memcpy>
1000702c:	69a3      	ldr	r3, [r4, #24]
1000702e:	4443      	add	r3, r8
10007030:	61a3      	str	r3, [r4, #24]
10007032:	2380      	movs	r3, #128	; 0x80
10007034:	021b      	lsls	r3, r3, #8
10007036:	431f      	orrs	r7, r3
10007038:	8a63      	ldrh	r3, [r4, #18]
1000703a:	e7b2      	b.n	10006fa2 <hw_endpoint_xfer_continue+0x11e>
1000703c:	237f      	movs	r3, #127	; 0x7f
1000703e:	7881      	ldrb	r1, [r0, #2]
10007040:	4a07      	ldr	r2, [pc, #28]	; (10007060 <hw_endpoint_xfer_continue+0x1dc>)
10007042:	4808      	ldr	r0, [pc, #32]	; (10007064 <hw_endpoint_xfer_continue+0x1e0>)
10007044:	4019      	ands	r1, r3
10007046:	f7fc f8b5 	bl	100031b4 <panic>
1000704a:	0020      	movs	r0, r4
1000704c:	f7ff fe22 	bl	10006c94 <_hw_endpoint_buffer_control_update32.part.0>
10007050:	50110000 	.word	0x50110000
10007054:	afffffff 	.word	0xafffffff
10007058:	fffffbff 	.word	0xfffffbff
1000705c:	dfffffff 	.word	0xdfffffff
10007060:	200004a4 	.word	0x200004a4
10007064:	10009e04 	.word	0x10009e04

10007068 <tud_mounted>:
10007068:	4b02      	ldr	r3, [pc, #8]	; (10007074 <tud_mounted+0xc>)
1000706a:	7858      	ldrb	r0, [r3, #1]
1000706c:	1e43      	subs	r3, r0, #1
1000706e:	4198      	sbcs	r0, r3
10007070:	b2c0      	uxtb	r0, r0
10007072:	4770      	bx	lr
10007074:	200011d4 	.word	0x200011d4

10007078 <tud_suspended>:
10007078:	4b02      	ldr	r3, [pc, #8]	; (10007084 <tud_suspended+0xc>)
1000707a:	7818      	ldrb	r0, [r3, #0]
1000707c:	0740      	lsls	r0, r0, #29
1000707e:	0fc0      	lsrs	r0, r0, #31
10007080:	4770      	bx	lr
10007082:	46c0      	nop			; (mov r8, r8)
10007084:	200011d4 	.word	0x200011d4

10007088 <tud_inited>:
10007088:	4b01      	ldr	r3, [pc, #4]	; (10007090 <tud_inited+0x8>)
1000708a:	7818      	ldrb	r0, [r3, #0]
1000708c:	4770      	bx	lr
1000708e:	46c0      	nop			; (mov r8, r8)
10007090:	200018a6 	.word	0x200018a6

10007094 <tud_init>:
10007094:	b5f8      	push	{r3, r4, r5, r6, r7, lr}
10007096:	4647      	mov	r7, r8
10007098:	46ce      	mov	lr, r9
1000709a:	b580      	push	{r7, lr}
1000709c:	4f29      	ldr	r7, [pc, #164]	; (10007144 <tud_init+0xb0>)
1000709e:	0005      	movs	r5, r0
100070a0:	783b      	ldrb	r3, [r7, #0]
100070a2:	2b00      	cmp	r3, #0
100070a4:	d004      	beq.n	100070b0 <tud_init+0x1c>
100070a6:	2001      	movs	r0, #1
100070a8:	bc0c      	pop	{r2, r3}
100070aa:	4690      	mov	r8, r2
100070ac:	4699      	mov	r9, r3
100070ae:	bdf8      	pop	{r3, r4, r5, r6, r7, pc}
100070b0:	2253      	movs	r2, #83	; 0x53
100070b2:	2100      	movs	r1, #0
100070b4:	4824      	ldr	r0, [pc, #144]	; (10007148 <tud_init+0xb4>)
100070b6:	f7fe fe91 	bl	10005ddc <__wrap_memset>
100070ba:	4c24      	ldr	r4, [pc, #144]	; (1000714c <tud_init+0xb8>)
100070bc:	0020      	movs	r0, r4
100070be:	f7fb fdc9 	bl	10002c54 <mutex_init>
100070c2:	4b23      	ldr	r3, [pc, #140]	; (10007150 <tud_init+0xbc>)
100070c4:	601c      	str	r4, [r3, #0]
100070c6:	4c23      	ldr	r4, [pc, #140]	; (10007154 <tud_init+0xc0>)
100070c8:	0020      	movs	r0, r4
100070ca:	301c      	adds	r0, #28
100070cc:	f7fb fdde 	bl	10002c8c <critical_section_init>
100070d0:	0020      	movs	r0, r4
100070d2:	f001 fcc1 	bl	10008a58 <tu_fifo_clear>
100070d6:	4b20      	ldr	r3, [pc, #128]	; (10007158 <tud_init+0xc4>)
100070d8:	4e20      	ldr	r6, [pc, #128]	; (1000715c <tud_init+0xc8>)
100070da:	601c      	str	r4, [r3, #0]
100070dc:	4b20      	ldr	r3, [pc, #128]	; (10007160 <tud_init+0xcc>)
100070de:	4698      	mov	r8, r3
100070e0:	2b00      	cmp	r3, #0
100070e2:	d004      	beq.n	100070ee <tud_init+0x5a>
100070e4:	0030      	movs	r0, r6
100070e6:	f7ff f975 	bl	100063d4 <usbd_app_driver_get_cb>
100070ea:	4b1e      	ldr	r3, [pc, #120]	; (10007164 <tud_init+0xd0>)
100070ec:	6018      	str	r0, [r3, #0]
100070ee:	4642      	mov	r2, r8
100070f0:	2400      	movs	r4, #0
100070f2:	7833      	ldrb	r3, [r6, #0]
100070f4:	2a00      	cmp	r2, #0
100070f6:	d01d      	beq.n	10007134 <tud_init+0xa0>
100070f8:	4a1b      	ldr	r2, [pc, #108]	; (10007168 <tud_init+0xd4>)
100070fa:	4690      	mov	r8, r2
100070fc:	4a19      	ldr	r2, [pc, #100]	; (10007164 <tud_init+0xd0>)
100070fe:	4691      	mov	r9, r2
10007100:	429c      	cmp	r4, r3
10007102:	d310      	bcc.n	10007126 <tud_init+0x92>
10007104:	d11b      	bne.n	1000713e <tud_init+0xaa>
10007106:	4643      	mov	r3, r8
10007108:	4798      	blx	r3
1000710a:	3401      	adds	r4, #1
1000710c:	7833      	ldrb	r3, [r6, #0]
1000710e:	b2e4      	uxtb	r4, r4
10007110:	42a3      	cmp	r3, r4
10007112:	d2f5      	bcs.n	10007100 <tud_init+0x6c>
10007114:	0028      	movs	r0, r5
10007116:	f7ff fbef 	bl	100068f8 <dcd_init>
1000711a:	0028      	movs	r0, r5
1000711c:	f7ff fbd4 	bl	100068c8 <dcd_int_enable>
10007120:	2301      	movs	r3, #1
10007122:	703b      	strb	r3, [r7, #0]
10007124:	e7bf      	b.n	100070a6 <tud_init+0x12>
10007126:	464a      	mov	r2, r9
10007128:	0063      	lsls	r3, r4, #1
1000712a:	6812      	ldr	r2, [r2, #0]
1000712c:	191b      	adds	r3, r3, r4
1000712e:	00db      	lsls	r3, r3, #3
10007130:	589b      	ldr	r3, [r3, r2]
10007132:	e7e9      	b.n	10007108 <tud_init+0x74>
10007134:	f001 f846 	bl	100081c4 <cdcd_init>
10007138:	7833      	ldrb	r3, [r6, #0]
1000713a:	2b00      	cmp	r3, #0
1000713c:	d0ea      	beq.n	10007114 <tud_init+0x80>
1000713e:	2300      	movs	r3, #0
10007140:	681b      	ldr	r3, [r3, #0]
10007142:	deff      	udf	#255	; 0xff
10007144:	200018a6 	.word	0x200018a6
10007148:	200011d4 	.word	0x200011d4
1000714c:	2000118c 	.word	0x2000118c
10007150:	20001228 	.word	0x20001228
10007154:	200004ac 	.word	0x200004ac
10007158:	2000122c 	.word	0x2000122c
1000715c:	200018a5 	.word	0x200018a5
10007160:	100063d5 	.word	0x100063d5
10007164:	20000e9c 	.word	0x20000e9c
10007168:	100081c5 	.word	0x100081c5

1000716c <tud_task>:
1000716c:	b5f0      	push	{r4, r5, r6, r7, lr}
1000716e:	46de      	mov	lr, fp
10007170:	4657      	mov	r7, sl
10007172:	464e      	mov	r6, r9
10007174:	4645      	mov	r5, r8
10007176:	b5e0      	push	{r5, r6, r7, lr}
10007178:	b08b      	sub	sp, #44	; 0x2c
1000717a:	f001 fa2d 	bl	100085d8 <tusb_inited>
1000717e:	2800      	cmp	r0, #0
10007180:	d100      	bne.n	10007184 <tud_task+0x18>
10007182:	e144      	b.n	1000740e <tud_task+0x2a2>
10007184:	4bc2      	ldr	r3, [pc, #776]	; (10007490 <tud_task+0x324>)
10007186:	4ec3      	ldr	r6, [pc, #780]	; (10007494 <tud_task+0x328>)
10007188:	469b      	mov	fp, r3
1000718a:	ac07      	add	r4, sp, #28
1000718c:	6835      	ldr	r5, [r6, #0]
1000718e:	69ea      	ldr	r2, [r5, #28]
10007190:	f3ef 8310 	mrs	r3, PRIMASK
10007194:	b672      	cpsid	i
10007196:	6811      	ldr	r1, [r2, #0]
10007198:	2900      	cmp	r1, #0
1000719a:	d0fc      	beq.n	10007196 <tud_task+0x2a>
1000719c:	f3bf 8f5f 	dmb	sy
100071a0:	622b      	str	r3, [r5, #32]
100071a2:	0021      	movs	r1, r4
100071a4:	0028      	movs	r0, r5
100071a6:	f001 facf 	bl	10008748 <tu_fifo_read>
100071aa:	69ea      	ldr	r2, [r5, #28]
100071ac:	6a2b      	ldr	r3, [r5, #32]
100071ae:	f3bf 8f5f 	dmb	sy
100071b2:	2100      	movs	r1, #0
100071b4:	6011      	str	r1, [r2, #0]
100071b6:	f383 8810 	msr	PRIMASK, r3
100071ba:	2800      	cmp	r0, #0
100071bc:	d100      	bne.n	100071c0 <tud_task+0x54>
100071be:	e126      	b.n	1000740e <tud_task+0x2a2>
100071c0:	7863      	ldrb	r3, [r4, #1]
100071c2:	2b08      	cmp	r3, #8
100071c4:	d8e2      	bhi.n	1000718c <tud_task+0x20>
100071c6:	465a      	mov	r2, fp
100071c8:	009b      	lsls	r3, r3, #2
100071ca:	58d3      	ldr	r3, [r2, r3]
100071cc:	469f      	mov	pc, r3
100071ce:	6863      	ldr	r3, [r4, #4]
100071d0:	2b00      	cmp	r3, #0
100071d2:	d0db      	beq.n	1000718c <tud_task+0x20>
100071d4:	68a0      	ldr	r0, [r4, #8]
100071d6:	4798      	blx	r3
100071d8:	e7d8      	b.n	1000718c <tud_task+0x20>
100071da:	227f      	movs	r2, #127	; 0x7f
100071dc:	7921      	ldrb	r1, [r4, #4]
100071de:	4bae      	ldr	r3, [pc, #696]	; (10007498 <tud_task+0x32c>)
100071e0:	400a      	ands	r2, r1
100071e2:	0055      	lsls	r5, r2, #1
100071e4:	09c8      	lsrs	r0, r1, #7
100071e6:	195b      	adds	r3, r3, r5
100071e8:	181b      	adds	r3, r3, r0
100071ea:	0018      	movs	r0, r3
100071ec:	2701      	movs	r7, #1
100071ee:	3030      	adds	r0, #48	; 0x30
100071f0:	78c5      	ldrb	r5, [r0, #3]
100071f2:	43bd      	bics	r5, r7
100071f4:	70c5      	strb	r5, [r0, #3]
100071f6:	78c5      	ldrb	r5, [r0, #3]
100071f8:	3703      	adds	r7, #3
100071fa:	43bd      	bics	r5, r7
100071fc:	70c5      	strb	r5, [r0, #3]
100071fe:	2a00      	cmp	r2, #0
10007200:	d100      	bne.n	10007204 <tud_task+0x98>
10007202:	e10b      	b.n	1000741c <tud_task+0x2b0>
10007204:	4aa5      	ldr	r2, [pc, #660]	; (1000749c <tud_task+0x330>)
10007206:	7cdb      	ldrb	r3, [r3, #19]
10007208:	2a00      	cmp	r2, #0
1000720a:	d006      	beq.n	1000721a <tud_task+0xae>
1000720c:	4aa4      	ldr	r2, [pc, #656]	; (100074a0 <tud_task+0x334>)
1000720e:	7812      	ldrb	r2, [r2, #0]
10007210:	4293      	cmp	r3, r2
10007212:	d200      	bcs.n	10007216 <tud_task+0xaa>
10007214:	e191      	b.n	1000753a <tud_task+0x3ce>
10007216:	1a9b      	subs	r3, r3, r2
10007218:	b2db      	uxtb	r3, r3
1000721a:	2b00      	cmp	r3, #0
1000721c:	d000      	beq.n	10007220 <tud_task+0xb4>
1000721e:	e0f6      	b.n	1000740e <tud_task+0x2a2>
10007220:	4da0      	ldr	r5, [pc, #640]	; (100074a4 <tud_task+0x338>)
10007222:	7962      	ldrb	r2, [r4, #5]
10007224:	7820      	ldrb	r0, [r4, #0]
10007226:	68a3      	ldr	r3, [r4, #8]
10007228:	47a8      	blx	r5
1000722a:	e7af      	b.n	1000718c <tud_task+0x20>
1000722c:	2201      	movs	r2, #1
1000722e:	4f9a      	ldr	r7, [pc, #616]	; (10007498 <tud_task+0x32c>)
10007230:	2101      	movs	r1, #1
10007232:	783b      	ldrb	r3, [r7, #0]
10007234:	2004      	movs	r0, #4
10007236:	4313      	orrs	r3, r2
10007238:	703b      	strb	r3, [r7, #0]
1000723a:	2333      	movs	r3, #51	; 0x33
1000723c:	5cfa      	ldrb	r2, [r7, r3]
1000723e:	438a      	bics	r2, r1
10007240:	54fa      	strb	r2, [r7, r3]
10007242:	5cfa      	ldrb	r2, [r7, r3]
10007244:	4382      	bics	r2, r0
10007246:	54fa      	strb	r2, [r7, r3]
10007248:	3301      	adds	r3, #1
1000724a:	5cfa      	ldrb	r2, [r7, r3]
1000724c:	438a      	bics	r2, r1
1000724e:	54fa      	strb	r2, [r7, r3]
10007250:	5cfa      	ldrb	r2, [r7, r3]
10007252:	4382      	bics	r2, r0
10007254:	54fa      	strb	r2, [r7, r3]
10007256:	7823      	ldrb	r3, [r4, #0]
10007258:	2000      	movs	r0, #0
1000725a:	469a      	mov	sl, r3
1000725c:	f000 fe64 	bl	10007f28 <usbd_control_set_complete_callback>
10007260:	2260      	movs	r2, #96	; 0x60
10007262:	7923      	ldrb	r3, [r4, #4]
10007264:	401a      	ands	r2, r3
10007266:	2a60      	cmp	r2, #96	; 0x60
10007268:	d00d      	beq.n	10007286 <tud_task+0x11a>
1000726a:	2a40      	cmp	r2, #64	; 0x40
1000726c:	d100      	bne.n	10007270 <tud_task+0x104>
1000726e:	e0f2      	b.n	10007456 <tud_task+0x2ea>
10007270:	06db      	lsls	r3, r3, #27
10007272:	0edb      	lsrs	r3, r3, #27
10007274:	2b01      	cmp	r3, #1
10007276:	d100      	bne.n	1000727a <tud_task+0x10e>
10007278:	e16a      	b.n	10007550 <tud_task+0x3e4>
1000727a:	2b02      	cmp	r3, #2
1000727c:	d100      	bne.n	10007280 <tud_task+0x114>
1000727e:	e121      	b.n	100074c4 <tud_task+0x358>
10007280:	2b00      	cmp	r3, #0
10007282:	d100      	bne.n	10007286 <tud_task+0x11a>
10007284:	e0f6      	b.n	10007474 <tud_task+0x308>
10007286:	7820      	ldrb	r0, [r4, #0]
10007288:	2100      	movs	r1, #0
1000728a:	f7ff fccf 	bl	10006c2c <dcd_edpt_stall>
1000728e:	2180      	movs	r1, #128	; 0x80
10007290:	7820      	ldrb	r0, [r4, #0]
10007292:	f7ff fccb 	bl	10006c2c <dcd_edpt_stall>
10007296:	e779      	b.n	1000718c <tud_task+0x20>
10007298:	4b7f      	ldr	r3, [pc, #508]	; (10007498 <tud_task+0x32c>)
1000729a:	781b      	ldrb	r3, [r3, #0]
1000729c:	07db      	lsls	r3, r3, #31
1000729e:	d400      	bmi.n	100072a2 <tud_task+0x136>
100072a0:	e774      	b.n	1000718c <tud_task+0x20>
100072a2:	4b81      	ldr	r3, [pc, #516]	; (100074a8 <tud_task+0x33c>)
100072a4:	2b00      	cmp	r3, #0
100072a6:	d100      	bne.n	100072aa <tud_task+0x13e>
100072a8:	e770      	b.n	1000718c <tud_task+0x20>
100072aa:	e000      	b.n	100072ae <tud_task+0x142>
100072ac:	bf00      	nop
100072ae:	e76d      	b.n	1000718c <tud_task+0x20>
100072b0:	4b79      	ldr	r3, [pc, #484]	; (10007498 <tud_task+0x32c>)
100072b2:	781a      	ldrb	r2, [r3, #0]
100072b4:	07d2      	lsls	r2, r2, #31
100072b6:	d400      	bmi.n	100072ba <tud_task+0x14e>
100072b8:	e768      	b.n	1000718c <tud_task+0x20>
100072ba:	4a7c      	ldr	r2, [pc, #496]	; (100074ac <tud_task+0x340>)
100072bc:	2a00      	cmp	r2, #0
100072be:	d100      	bne.n	100072c2 <tud_task+0x156>
100072c0:	e764      	b.n	1000718c <tud_task+0x20>
100072c2:	7818      	ldrb	r0, [r3, #0]
100072c4:	0700      	lsls	r0, r0, #28
100072c6:	0fc0      	lsrs	r0, r0, #31
100072c8:	e000      	b.n	100072cc <tud_task+0x160>
100072ca:	bf00      	nop
100072cc:	e75e      	b.n	1000718c <tud_task+0x20>
100072ce:	4d74      	ldr	r5, [pc, #464]	; (100074a0 <tud_task+0x334>)
100072d0:	4a72      	ldr	r2, [pc, #456]	; (1000749c <tud_task+0x330>)
100072d2:	2700      	movs	r7, #0
100072d4:	782b      	ldrb	r3, [r5, #0]
100072d6:	2a00      	cmp	r2, #0
100072d8:	d100      	bne.n	100072dc <tud_task+0x170>
100072da:	e0b6      	b.n	1000744a <tud_task+0x2de>
100072dc:	4a74      	ldr	r2, [pc, #464]	; (100074b0 <tud_task+0x344>)
100072de:	4690      	mov	r8, r2
100072e0:	429f      	cmp	r7, r3
100072e2:	d308      	bcc.n	100072f6 <tud_task+0x18a>
100072e4:	429f      	cmp	r7, r3
100072e6:	d000      	beq.n	100072ea <tud_task+0x17e>
100072e8:	e0b2      	b.n	10007450 <tud_task+0x2e4>
100072ea:	3701      	adds	r7, #1
100072ec:	b2ff      	uxtb	r7, r7
100072ee:	429f      	cmp	r7, r3
100072f0:	d900      	bls.n	100072f4 <tud_task+0x188>
100072f2:	e74b      	b.n	1000718c <tud_task+0x20>
100072f4:	d2f6      	bcs.n	100072e4 <tud_task+0x178>
100072f6:	4641      	mov	r1, r8
100072f8:	6809      	ldr	r1, [r1, #0]
100072fa:	007a      	lsls	r2, r7, #1
100072fc:	468c      	mov	ip, r1
100072fe:	19d2      	adds	r2, r2, r7
10007300:	00d2      	lsls	r2, r2, #3
10007302:	4462      	add	r2, ip
10007304:	6952      	ldr	r2, [r2, #20]
10007306:	2a00      	cmp	r2, #0
10007308:	d0ef      	beq.n	100072ea <tud_task+0x17e>
1000730a:	7820      	ldrb	r0, [r4, #0]
1000730c:	4790      	blx	r2
1000730e:	3701      	adds	r7, #1
10007310:	782b      	ldrb	r3, [r5, #0]
10007312:	b2ff      	uxtb	r7, r7
10007314:	429f      	cmp	r7, r3
10007316:	d9e3      	bls.n	100072e0 <tud_task+0x174>
10007318:	e738      	b.n	1000718c <tud_task+0x20>
1000731a:	7823      	ldrb	r3, [r4, #0]
1000731c:	4d60      	ldr	r5, [pc, #384]	; (100074a0 <tud_task+0x334>)
1000731e:	4a5f      	ldr	r2, [pc, #380]	; (1000749c <tud_task+0x330>)
10007320:	4698      	mov	r8, r3
10007322:	2700      	movs	r7, #0
10007324:	782b      	ldrb	r3, [r5, #0]
10007326:	2a00      	cmp	r2, #0
10007328:	d100      	bne.n	1000732c <tud_task+0x1c0>
1000732a:	e086      	b.n	1000743a <tud_task+0x2ce>
1000732c:	4a61      	ldr	r2, [pc, #388]	; (100074b4 <tud_task+0x348>)
1000732e:	4691      	mov	r9, r2
10007330:	4a5f      	ldr	r2, [pc, #380]	; (100074b0 <tud_task+0x344>)
10007332:	4692      	mov	sl, r2
10007334:	002a      	movs	r2, r5
10007336:	4645      	mov	r5, r8
10007338:	4690      	mov	r8, r2
1000733a:	42bb      	cmp	r3, r7
1000733c:	d85e      	bhi.n	100073fc <tud_task+0x290>
1000733e:	d000      	beq.n	10007342 <tud_task+0x1d6>
10007340:	e078      	b.n	10007434 <tud_task+0x2c8>
10007342:	464b      	mov	r3, r9
10007344:	0028      	movs	r0, r5
10007346:	4798      	blx	r3
10007348:	4643      	mov	r3, r8
1000734a:	3701      	adds	r7, #1
1000734c:	781b      	ldrb	r3, [r3, #0]
1000734e:	b2ff      	uxtb	r7, r7
10007350:	42bb      	cmp	r3, r7
10007352:	d2f2      	bcs.n	1000733a <tud_task+0x1ce>
10007354:	4d50      	ldr	r5, [pc, #320]	; (10007498 <tud_task+0x32c>)
10007356:	2253      	movs	r2, #83	; 0x53
10007358:	2100      	movs	r1, #0
1000735a:	0028      	movs	r0, r5
1000735c:	f7fe fd3e 	bl	10005ddc <__wrap_memset>
10007360:	2210      	movs	r2, #16
10007362:	21ff      	movs	r1, #255	; 0xff
10007364:	1ce8      	adds	r0, r5, #3
10007366:	f7fe fd39 	bl	10005ddc <__wrap_memset>
1000736a:	0028      	movs	r0, r5
1000736c:	2220      	movs	r2, #32
1000736e:	21ff      	movs	r1, #255	; 0xff
10007370:	3013      	adds	r0, #19
10007372:	f7fe fd33 	bl	10005ddc <__wrap_memset>
10007376:	f000 fdcd 	bl	10007f14 <usbd_control_reset>
1000737a:	4b4f      	ldr	r3, [pc, #316]	; (100074b8 <tud_task+0x34c>)
1000737c:	2b00      	cmp	r3, #0
1000737e:	d100      	bne.n	10007382 <tud_task+0x216>
10007380:	e704      	b.n	1000718c <tud_task+0x20>
10007382:	e000      	b.n	10007386 <tud_task+0x21a>
10007384:	bf00      	nop
10007386:	e701      	b.n	1000718c <tud_task+0x20>
10007388:	7823      	ldrb	r3, [r4, #0]
1000738a:	4d45      	ldr	r5, [pc, #276]	; (100074a0 <tud_task+0x334>)
1000738c:	4a43      	ldr	r2, [pc, #268]	; (1000749c <tud_task+0x330>)
1000738e:	4698      	mov	r8, r3
10007390:	2700      	movs	r7, #0
10007392:	782b      	ldrb	r3, [r5, #0]
10007394:	2a00      	cmp	r2, #0
10007396:	d047      	beq.n	10007428 <tud_task+0x2bc>
10007398:	4a46      	ldr	r2, [pc, #280]	; (100074b4 <tud_task+0x348>)
1000739a:	4691      	mov	r9, r2
1000739c:	4a44      	ldr	r2, [pc, #272]	; (100074b0 <tud_task+0x344>)
1000739e:	4692      	mov	sl, r2
100073a0:	002a      	movs	r2, r5
100073a2:	4645      	mov	r5, r8
100073a4:	4690      	mov	r8, r2
100073a6:	429f      	cmp	r7, r3
100073a8:	d31f      	bcc.n	100073ea <tud_task+0x27e>
100073aa:	d143      	bne.n	10007434 <tud_task+0x2c8>
100073ac:	464b      	mov	r3, r9
100073ae:	0028      	movs	r0, r5
100073b0:	4798      	blx	r3
100073b2:	4643      	mov	r3, r8
100073b4:	3701      	adds	r7, #1
100073b6:	781b      	ldrb	r3, [r3, #0]
100073b8:	b2ff      	uxtb	r7, r7
100073ba:	42bb      	cmp	r3, r7
100073bc:	d2f3      	bcs.n	100073a6 <tud_task+0x23a>
100073be:	4d36      	ldr	r5, [pc, #216]	; (10007498 <tud_task+0x32c>)
100073c0:	2253      	movs	r2, #83	; 0x53
100073c2:	2100      	movs	r1, #0
100073c4:	0028      	movs	r0, r5
100073c6:	f7fe fd09 	bl	10005ddc <__wrap_memset>
100073ca:	2210      	movs	r2, #16
100073cc:	21ff      	movs	r1, #255	; 0xff
100073ce:	1ce8      	adds	r0, r5, #3
100073d0:	f7fe fd04 	bl	10005ddc <__wrap_memset>
100073d4:	0028      	movs	r0, r5
100073d6:	2220      	movs	r2, #32
100073d8:	21ff      	movs	r1, #255	; 0xff
100073da:	3013      	adds	r0, #19
100073dc:	f7fe fcfe 	bl	10005ddc <__wrap_memset>
100073e0:	f000 fd98 	bl	10007f14 <usbd_control_reset>
100073e4:	7923      	ldrb	r3, [r4, #4]
100073e6:	70ab      	strb	r3, [r5, #2]
100073e8:	e6d0      	b.n	1000718c <tud_task+0x20>
100073ea:	4652      	mov	r2, sl
100073ec:	6812      	ldr	r2, [r2, #0]
100073ee:	007b      	lsls	r3, r7, #1
100073f0:	4694      	mov	ip, r2
100073f2:	19db      	adds	r3, r3, r7
100073f4:	00db      	lsls	r3, r3, #3
100073f6:	4463      	add	r3, ip
100073f8:	685b      	ldr	r3, [r3, #4]
100073fa:	e7d8      	b.n	100073ae <tud_task+0x242>
100073fc:	4652      	mov	r2, sl
100073fe:	6812      	ldr	r2, [r2, #0]
10007400:	007b      	lsls	r3, r7, #1
10007402:	4694      	mov	ip, r2
10007404:	19db      	adds	r3, r3, r7
10007406:	00db      	lsls	r3, r3, #3
10007408:	4463      	add	r3, ip
1000740a:	685b      	ldr	r3, [r3, #4]
1000740c:	e79a      	b.n	10007344 <tud_task+0x1d8>
1000740e:	b00b      	add	sp, #44	; 0x2c
10007410:	bc3c      	pop	{r2, r3, r4, r5}
10007412:	4690      	mov	r8, r2
10007414:	4699      	mov	r9, r3
10007416:	46a2      	mov	sl, r4
10007418:	46ab      	mov	fp, r5
1000741a:	bdf0      	pop	{r4, r5, r6, r7, pc}
1000741c:	7962      	ldrb	r2, [r4, #5]
1000741e:	7820      	ldrb	r0, [r4, #0]
10007420:	68a3      	ldr	r3, [r4, #8]
10007422:	f000 fd95 	bl	10007f50 <usbd_control_xfer_cb>
10007426:	e6b1      	b.n	1000718c <tud_task+0x20>
10007428:	4640      	mov	r0, r8
1000742a:	f000 ff09 	bl	10008240 <cdcd_reset>
1000742e:	782b      	ldrb	r3, [r5, #0]
10007430:	2b00      	cmp	r3, #0
10007432:	d0c4      	beq.n	100073be <tud_task+0x252>
10007434:	2300      	movs	r3, #0
10007436:	685b      	ldr	r3, [r3, #4]
10007438:	deff      	udf	#255	; 0xff
1000743a:	4640      	mov	r0, r8
1000743c:	f000 ff00 	bl	10008240 <cdcd_reset>
10007440:	782b      	ldrb	r3, [r5, #0]
10007442:	2b00      	cmp	r3, #0
10007444:	d100      	bne.n	10007448 <tud_task+0x2dc>
10007446:	e785      	b.n	10007354 <tud_task+0x1e8>
10007448:	e7f4      	b.n	10007434 <tud_task+0x2c8>
1000744a:	2b00      	cmp	r3, #0
1000744c:	d100      	bne.n	10007450 <tud_task+0x2e4>
1000744e:	e69d      	b.n	1000718c <tud_task+0x20>
10007450:	2300      	movs	r3, #0
10007452:	695b      	ldr	r3, [r3, #20]
10007454:	deff      	udf	#255	; 0xff
10007456:	4819      	ldr	r0, [pc, #100]	; (100074bc <tud_task+0x350>)
10007458:	2800      	cmp	r0, #0
1000745a:	d100      	bne.n	1000745e <tud_task+0x2f2>
1000745c:	e713      	b.n	10007286 <tud_task+0x11a>
1000745e:	f000 fd63 	bl	10007f28 <usbd_control_set_complete_callback>
10007462:	2100      	movs	r1, #0
10007464:	4650      	mov	r0, sl
10007466:	aa08      	add	r2, sp, #32
10007468:	e000      	b.n	1000746c <tud_task+0x300>
1000746a:	bf00      	nop
1000746c:	2800      	cmp	r0, #0
1000746e:	d000      	beq.n	10007472 <tud_task+0x306>
10007470:	e68c      	b.n	1000718c <tud_task+0x20>
10007472:	e708      	b.n	10007286 <tud_task+0x11a>
10007474:	2a20      	cmp	r2, #32
10007476:	d100      	bne.n	1000747a <tud_task+0x30e>
10007478:	e09f      	b.n	100075ba <tud_task+0x44e>
1000747a:	2a00      	cmp	r2, #0
1000747c:	d000      	beq.n	10007480 <tud_task+0x314>
1000747e:	e702      	b.n	10007286 <tud_task+0x11a>
10007480:	7963      	ldrb	r3, [r4, #5]
10007482:	2b09      	cmp	r3, #9
10007484:	d900      	bls.n	10007488 <tud_task+0x31c>
10007486:	e6fe      	b.n	10007286 <tud_task+0x11a>
10007488:	4a0d      	ldr	r2, [pc, #52]	; (100074c0 <tud_task+0x354>)
1000748a:	009b      	lsls	r3, r3, #2
1000748c:	58d3      	ldr	r3, [r2, r3]
1000748e:	469f      	mov	pc, r3
10007490:	10009e38 	.word	0x10009e38
10007494:	2000122c 	.word	0x2000122c
10007498:	200011d4 	.word	0x200011d4
1000749c:	100063d5 	.word	0x100063d5
100074a0:	200018a5 	.word	0x200018a5
100074a4:	10008435 	.word	0x10008435
	...
100074b0:	20000e9c 	.word	0x20000e9c
100074b4:	10008241 	.word	0x10008241
	...
100074c0:	10009e5c 	.word	0x10009e5c
100074c4:	2370      	movs	r3, #112	; 0x70
100074c6:	7a21      	ldrb	r1, [r4, #8]
100074c8:	420b      	tst	r3, r1
100074ca:	d000      	beq.n	100074ce <tud_task+0x362>
100074cc:	e6db      	b.n	10007286 <tud_task+0x11a>
100074ce:	330f      	adds	r3, #15
100074d0:	400b      	ands	r3, r1
100074d2:	005b      	lsls	r3, r3, #1
100074d4:	18f8      	adds	r0, r7, r3
100074d6:	09cd      	lsrs	r5, r1, #7
100074d8:	9300      	str	r3, [sp, #0]
100074da:	4bcf      	ldr	r3, [pc, #828]	; (10007818 <tud_task+0x6ac>)
100074dc:	1940      	adds	r0, r0, r5
100074de:	7cc0      	ldrb	r0, [r0, #19]
100074e0:	2b00      	cmp	r3, #0
100074e2:	d006      	beq.n	100074f2 <tud_task+0x386>
100074e4:	4bcd      	ldr	r3, [pc, #820]	; (1000781c <tud_task+0x6b0>)
100074e6:	781b      	ldrb	r3, [r3, #0]
100074e8:	4298      	cmp	r0, r3
100074ea:	d200      	bcs.n	100074ee <tud_task+0x382>
100074ec:	e088      	b.n	10007600 <tud_task+0x494>
100074ee:	1ac0      	subs	r0, r0, r3
100074f0:	b2c0      	uxtb	r0, r0
100074f2:	2800      	cmp	r0, #0
100074f4:	d17e      	bne.n	100075f4 <tud_task+0x488>
100074f6:	2a00      	cmp	r2, #0
100074f8:	d000      	beq.n	100074fc <tud_task+0x390>
100074fa:	e13a      	b.n	10007772 <tud_task+0x606>
100074fc:	4bc8      	ldr	r3, [pc, #800]	; (10007820 <tud_task+0x6b4>)
100074fe:	9301      	str	r3, [sp, #4]
10007500:	7963      	ldrb	r3, [r4, #5]
10007502:	4698      	mov	r8, r3
10007504:	2302      	movs	r3, #2
10007506:	4642      	mov	r2, r8
10007508:	4699      	mov	r9, r3
1000750a:	439a      	bics	r2, r3
1000750c:	2a01      	cmp	r2, #1
1000750e:	d100      	bne.n	10007512 <tud_task+0x3a6>
10007510:	e133      	b.n	1000777a <tud_task+0x60e>
10007512:	4643      	mov	r3, r8
10007514:	2b00      	cmp	r3, #0
10007516:	d000      	beq.n	1000751a <tud_task+0x3ae>
10007518:	e6b5      	b.n	10007286 <tud_task+0x11a>
1000751a:	9b00      	ldr	r3, [sp, #0]
1000751c:	aa06      	add	r2, sp, #24
1000751e:	18fb      	adds	r3, r7, r3
10007520:	195d      	adds	r5, r3, r5
10007522:	3530      	adds	r5, #48	; 0x30
10007524:	78eb      	ldrb	r3, [r5, #3]
10007526:	3202      	adds	r2, #2
10007528:	079b      	lsls	r3, r3, #30
1000752a:	0fdb      	lsrs	r3, r3, #31
1000752c:	8013      	strh	r3, [r2, #0]
1000752e:	4650      	mov	r0, sl
10007530:	2302      	movs	r3, #2
10007532:	a908      	add	r1, sp, #32
10007534:	f000 fc92 	bl	10007e5c <tud_control_xfer>
10007538:	e628      	b.n	1000718c <tud_task+0x20>
1000753a:	005a      	lsls	r2, r3, #1
1000753c:	18d3      	adds	r3, r2, r3
1000753e:	4ab9      	ldr	r2, [pc, #740]	; (10007824 <tud_task+0x6b8>)
10007540:	00db      	lsls	r3, r3, #3
10007542:	6812      	ldr	r2, [r2, #0]
10007544:	18d3      	adds	r3, r2, r3
10007546:	2b00      	cmp	r3, #0
10007548:	d100      	bne.n	1000754c <tud_task+0x3e0>
1000754a:	e760      	b.n	1000740e <tud_task+0x2a2>
1000754c:	691d      	ldr	r5, [r3, #16]
1000754e:	e668      	b.n	10007222 <tud_task+0xb6>
10007550:	7a23      	ldrb	r3, [r4, #8]
10007552:	2b0f      	cmp	r3, #15
10007554:	d900      	bls.n	10007558 <tud_task+0x3ec>
10007556:	e696      	b.n	10007286 <tud_task+0x11a>
10007558:	4aaf      	ldr	r2, [pc, #700]	; (10007818 <tud_task+0x6ac>)
1000755a:	18fb      	adds	r3, r7, r3
1000755c:	78db      	ldrb	r3, [r3, #3]
1000755e:	2a00      	cmp	r2, #0
10007560:	d005      	beq.n	1000756e <tud_task+0x402>
10007562:	4aae      	ldr	r2, [pc, #696]	; (1000781c <tud_task+0x6b0>)
10007564:	7812      	ldrb	r2, [r2, #0]
10007566:	4293      	cmp	r3, r2
10007568:	d364      	bcc.n	10007634 <tud_task+0x4c8>
1000756a:	1a9b      	subs	r3, r3, r2
1000756c:	b2db      	uxtb	r3, r3
1000756e:	2b00      	cmp	r3, #0
10007570:	d000      	beq.n	10007574 <tud_task+0x408>
10007572:	e688      	b.n	10007286 <tud_task+0x11a>
10007574:	48ac      	ldr	r0, [pc, #688]	; (10007828 <tud_task+0x6bc>)
10007576:	4daa      	ldr	r5, [pc, #680]	; (10007820 <tud_task+0x6b4>)
10007578:	f000 fcd6 	bl	10007f28 <usbd_control_set_complete_callback>
1000757c:	2100      	movs	r1, #0
1000757e:	4650      	mov	r0, sl
10007580:	68eb      	ldr	r3, [r5, #12]
10007582:	aa08      	add	r2, sp, #32
10007584:	4798      	blx	r3
10007586:	2800      	cmp	r0, #0
10007588:	d000      	beq.n	1000758c <tud_task+0x420>
1000758a:	e5ff      	b.n	1000718c <tud_task+0x20>
1000758c:	2260      	movs	r2, #96	; 0x60
1000758e:	0015      	movs	r5, r2
10007590:	7923      	ldrb	r3, [r4, #4]
10007592:	401d      	ands	r5, r3
10007594:	421a      	tst	r2, r3
10007596:	d000      	beq.n	1000759a <tud_task+0x42e>
10007598:	e675      	b.n	10007286 <tud_task+0x11a>
1000759a:	7963      	ldrb	r3, [r4, #5]
1000759c:	3b0a      	subs	r3, #10
1000759e:	2b01      	cmp	r3, #1
100075a0:	d900      	bls.n	100075a4 <tud_task+0x438>
100075a2:	e670      	b.n	10007286 <tud_task+0x11a>
100075a4:	f000 fcc0 	bl	10007f28 <usbd_control_set_complete_callback>
100075a8:	7963      	ldrb	r3, [r4, #5]
100075aa:	2b0a      	cmp	r3, #10
100075ac:	d100      	bne.n	100075b0 <tud_task+0x444>
100075ae:	e145      	b.n	1000783c <tud_task+0x6d0>
100075b0:	4650      	mov	r0, sl
100075b2:	a908      	add	r1, sp, #32
100075b4:	f000 fc3a 	bl	10007e2c <tud_control_status>
100075b8:	e5e8      	b.n	1000718c <tud_task+0x20>
100075ba:	7a23      	ldrb	r3, [r4, #8]
100075bc:	2b0f      	cmp	r3, #15
100075be:	d900      	bls.n	100075c2 <tud_task+0x456>
100075c0:	e661      	b.n	10007286 <tud_task+0x11a>
100075c2:	4a95      	ldr	r2, [pc, #596]	; (10007818 <tud_task+0x6ac>)
100075c4:	18fb      	adds	r3, r7, r3
100075c6:	78db      	ldrb	r3, [r3, #3]
100075c8:	2a00      	cmp	r2, #0
100075ca:	d006      	beq.n	100075da <tud_task+0x46e>
100075cc:	4a93      	ldr	r2, [pc, #588]	; (1000781c <tud_task+0x6b0>)
100075ce:	7812      	ldrb	r2, [r2, #0]
100075d0:	4293      	cmp	r3, r2
100075d2:	d200      	bcs.n	100075d6 <tud_task+0x46a>
100075d4:	e0f5      	b.n	100077c2 <tud_task+0x656>
100075d6:	1a9b      	subs	r3, r3, r2
100075d8:	b2db      	uxtb	r3, r3
100075da:	2b00      	cmp	r3, #0
100075dc:	d000      	beq.n	100075e0 <tud_task+0x474>
100075de:	e652      	b.n	10007286 <tud_task+0x11a>
100075e0:	4891      	ldr	r0, [pc, #580]	; (10007828 <tud_task+0x6bc>)
100075e2:	4d8f      	ldr	r5, [pc, #572]	; (10007820 <tud_task+0x6b4>)
100075e4:	f000 fca0 	bl	10007f28 <usbd_control_set_complete_callback>
100075e8:	2100      	movs	r1, #0
100075ea:	4650      	mov	r0, sl
100075ec:	68eb      	ldr	r3, [r5, #12]
100075ee:	aa08      	add	r2, sp, #32
100075f0:	4798      	blx	r3
100075f2:	e73b      	b.n	1000746c <tud_task+0x300>
100075f4:	2a00      	cmp	r2, #0
100075f6:	d000      	beq.n	100075fa <tud_task+0x48e>
100075f8:	e645      	b.n	10007286 <tud_task+0x11a>
100075fa:	2300      	movs	r3, #0
100075fc:	9301      	str	r3, [sp, #4]
100075fe:	e77f      	b.n	10007500 <tud_task+0x394>
10007600:	0043      	lsls	r3, r0, #1
10007602:	469c      	mov	ip, r3
10007604:	4b87      	ldr	r3, [pc, #540]	; (10007824 <tud_task+0x6b8>)
10007606:	4460      	add	r0, ip
10007608:	681b      	ldr	r3, [r3, #0]
1000760a:	00c0      	lsls	r0, r0, #3
1000760c:	469c      	mov	ip, r3
1000760e:	0003      	movs	r3, r0
10007610:	4463      	add	r3, ip
10007612:	9301      	str	r3, [sp, #4]
10007614:	2a00      	cmp	r2, #0
10007616:	d100      	bne.n	1000761a <tud_task+0x4ae>
10007618:	e772      	b.n	10007500 <tud_task+0x394>
1000761a:	2b00      	cmp	r3, #0
1000761c:	d100      	bne.n	10007620 <tud_task+0x4b4>
1000761e:	e632      	b.n	10007286 <tud_task+0x11a>
10007620:	68d8      	ldr	r0, [r3, #12]
10007622:	f000 fc81 	bl	10007f28 <usbd_control_set_complete_callback>
10007626:	9b01      	ldr	r3, [sp, #4]
10007628:	2100      	movs	r1, #0
1000762a:	4650      	mov	r0, sl
1000762c:	68db      	ldr	r3, [r3, #12]
1000762e:	aa08      	add	r2, sp, #32
10007630:	4798      	blx	r3
10007632:	e71b      	b.n	1000746c <tud_task+0x300>
10007634:	4a7b      	ldr	r2, [pc, #492]	; (10007824 <tud_task+0x6b8>)
10007636:	005d      	lsls	r5, r3, #1
10007638:	18eb      	adds	r3, r5, r3
1000763a:	6815      	ldr	r5, [r2, #0]
1000763c:	00db      	lsls	r3, r3, #3
1000763e:	18ed      	adds	r5, r5, r3
10007640:	2d00      	cmp	r5, #0
10007642:	d100      	bne.n	10007646 <tud_task+0x4da>
10007644:	e61f      	b.n	10007286 <tud_task+0x11a>
10007646:	68e8      	ldr	r0, [r5, #12]
10007648:	e796      	b.n	10007578 <tud_task+0x40c>
1000764a:	88e3      	ldrh	r3, [r4, #6]
1000764c:	2b01      	cmp	r3, #1
1000764e:	d000      	beq.n	10007652 <tud_task+0x4e6>
10007650:	e619      	b.n	10007286 <tud_task+0x11a>
10007652:	2208      	movs	r2, #8
10007654:	783b      	ldrb	r3, [r7, #0]
10007656:	4650      	mov	r0, sl
10007658:	4393      	bics	r3, r2
1000765a:	a908      	add	r1, sp, #32
1000765c:	703b      	strb	r3, [r7, #0]
1000765e:	f000 fbe5 	bl	10007e2c <tud_control_status>
10007662:	e593      	b.n	1000718c <tud_task+0x20>
10007664:	2002      	movs	r0, #2
10007666:	7839      	ldrb	r1, [r7, #0]
10007668:	ab06      	add	r3, sp, #24
1000766a:	1c9a      	adds	r2, r3, #2
1000766c:	068b      	lsls	r3, r1, #26
1000766e:	0889      	lsrs	r1, r1, #2
10007670:	0fdb      	lsrs	r3, r3, #31
10007672:	4001      	ands	r1, r0
10007674:	430b      	orrs	r3, r1
10007676:	e759      	b.n	1000752c <tud_task+0x3c0>
10007678:	79a3      	ldrb	r3, [r4, #6]
1000767a:	9301      	str	r3, [sp, #4]
1000767c:	001a      	movs	r2, r3
1000767e:	787b      	ldrb	r3, [r7, #1]
10007680:	429a      	cmp	r2, r3
10007682:	d007      	beq.n	10007694 <tud_task+0x528>
10007684:	787b      	ldrb	r3, [r7, #1]
10007686:	2b00      	cmp	r3, #0
10007688:	d000      	beq.n	1000768c <tud_task+0x520>
1000768a:	e147      	b.n	1000791c <tud_task+0x7b0>
1000768c:	9b01      	ldr	r3, [sp, #4]
1000768e:	2b00      	cmp	r3, #0
10007690:	d000      	beq.n	10007694 <tud_task+0x528>
10007692:	e0dc      	b.n	1000784e <tud_task+0x6e2>
10007694:	9b01      	ldr	r3, [sp, #4]
10007696:	4650      	mov	r0, sl
10007698:	a908      	add	r1, sp, #32
1000769a:	707b      	strb	r3, [r7, #1]
1000769c:	f000 fbc6 	bl	10007e2c <tud_control_status>
100076a0:	e574      	b.n	1000718c <tud_task+0x20>
100076a2:	787b      	ldrb	r3, [r7, #1]
100076a4:	aa06      	add	r2, sp, #24
100076a6:	3202      	adds	r2, #2
100076a8:	7013      	strb	r3, [r2, #0]
100076aa:	4650      	mov	r0, sl
100076ac:	2301      	movs	r3, #1
100076ae:	a908      	add	r1, sp, #32
100076b0:	f000 fbd4 	bl	10007e5c <tud_control_xfer>
100076b4:	e56a      	b.n	1000718c <tud_task+0x20>
100076b6:	88e0      	ldrh	r0, [r4, #6]
100076b8:	0a03      	lsrs	r3, r0, #8
100076ba:	b2c0      	uxtb	r0, r0
100076bc:	2b0f      	cmp	r3, #15
100076be:	d900      	bls.n	100076c2 <tud_task+0x556>
100076c0:	e5e1      	b.n	10007286 <tud_task+0x11a>
100076c2:	495a      	ldr	r1, [pc, #360]	; (1000782c <tud_task+0x6c0>)
100076c4:	009a      	lsls	r2, r3, #2
100076c6:	588a      	ldr	r2, [r1, r2]
100076c8:	4697      	mov	pc, r2
100076ca:	a808      	add	r0, sp, #32
100076cc:	f000 fc32 	bl	10007f34 <usbd_control_set_request>
100076d0:	4650      	mov	r0, sl
100076d2:	79a1      	ldrb	r1, [r4, #6]
100076d4:	f7ff f8fe 	bl	100068d4 <dcd_set_address>
100076d8:	2202      	movs	r2, #2
100076da:	783b      	ldrb	r3, [r7, #0]
100076dc:	4313      	orrs	r3, r2
100076de:	703b      	strb	r3, [r7, #0]
100076e0:	e554      	b.n	1000718c <tud_task+0x20>
100076e2:	88e3      	ldrh	r3, [r4, #6]
100076e4:	2b01      	cmp	r3, #1
100076e6:	d000      	beq.n	100076ea <tud_task+0x57e>
100076e8:	e5cd      	b.n	10007286 <tud_task+0x11a>
100076ea:	2208      	movs	r2, #8
100076ec:	783b      	ldrb	r3, [r7, #0]
100076ee:	4650      	mov	r0, sl
100076f0:	4313      	orrs	r3, r2
100076f2:	a908      	add	r1, sp, #32
100076f4:	703b      	strb	r3, [r7, #0]
100076f6:	f000 fb99 	bl	10007e2c <tud_control_status>
100076fa:	e547      	b.n	1000718c <tud_task+0x20>
100076fc:	4b4c      	ldr	r3, [pc, #304]	; (10007830 <tud_task+0x6c4>)
100076fe:	2b00      	cmp	r3, #0
10007700:	d100      	bne.n	10007704 <tud_task+0x598>
10007702:	e5c0      	b.n	10007286 <tud_task+0x11a>
10007704:	e000      	b.n	10007708 <tud_task+0x59c>
10007706:	bf00      	nop
10007708:	0002      	movs	r2, r0
1000770a:	78d3      	ldrb	r3, [r2, #3]
1000770c:	7891      	ldrb	r1, [r2, #2]
1000770e:	021b      	lsls	r3, r3, #8
10007710:	430b      	orrs	r3, r1
10007712:	4650      	mov	r0, sl
10007714:	a908      	add	r1, sp, #32
10007716:	f000 fba1 	bl	10007e5c <tud_control_xfer>
1000771a:	e6a7      	b.n	1000746c <tud_task+0x300>
1000771c:	4b45      	ldr	r3, [pc, #276]	; (10007834 <tud_task+0x6c8>)
1000771e:	2b00      	cmp	r3, #0
10007720:	d100      	bne.n	10007724 <tud_task+0x5b8>
10007722:	e5b0      	b.n	10007286 <tud_task+0x11a>
10007724:	e000      	b.n	10007728 <tud_task+0x5bc>
10007726:	bf00      	nop
10007728:	1e02      	subs	r2, r0, #0
1000772a:	d100      	bne.n	1000772e <tud_task+0x5c2>
1000772c:	e5ab      	b.n	10007286 <tud_task+0x11a>
1000772e:	4650      	mov	r0, sl
10007730:	7813      	ldrb	r3, [r2, #0]
10007732:	a908      	add	r1, sp, #32
10007734:	f000 fb92 	bl	10007e5c <tud_control_xfer>
10007738:	e698      	b.n	1000746c <tud_task+0x300>
1000773a:	8921      	ldrh	r1, [r4, #8]
1000773c:	f7fe ff7e 	bl	1000663c <tud_descriptor_string_cb>
10007740:	1e02      	subs	r2, r0, #0
10007742:	d1f4      	bne.n	1000772e <tud_task+0x5c2>
10007744:	e59f      	b.n	10007286 <tud_task+0x11a>
10007746:	2b02      	cmp	r3, #2
10007748:	d100      	bne.n	1000774c <tud_task+0x5e0>
1000774a:	e172      	b.n	10007a32 <tud_task+0x8c6>
1000774c:	4b3a      	ldr	r3, [pc, #232]	; (10007838 <tud_task+0x6cc>)
1000774e:	2b00      	cmp	r3, #0
10007750:	d100      	bne.n	10007754 <tud_task+0x5e8>
10007752:	e598      	b.n	10007286 <tud_task+0x11a>
10007754:	e000      	b.n	10007758 <tud_task+0x5ec>
10007756:	bf00      	nop
10007758:	0002      	movs	r2, r0
1000775a:	2a00      	cmp	r2, #0
1000775c:	d1d5      	bne.n	1000770a <tud_task+0x59e>
1000775e:	e592      	b.n	10007286 <tud_task+0x11a>
10007760:	f7fe ff64 	bl	1000662c <tud_descriptor_device_cb>
10007764:	2312      	movs	r3, #18
10007766:	0002      	movs	r2, r0
10007768:	a908      	add	r1, sp, #32
1000776a:	4650      	mov	r0, sl
1000776c:	f000 fb76 	bl	10007e5c <tud_control_xfer>
10007770:	e67c      	b.n	1000746c <tud_task+0x300>
10007772:	4b2b      	ldr	r3, [pc, #172]	; (10007820 <tud_task+0x6b4>)
10007774:	482c      	ldr	r0, [pc, #176]	; (10007828 <tud_task+0x6bc>)
10007776:	9301      	str	r3, [sp, #4]
10007778:	e753      	b.n	10007622 <tud_task+0x4b6>
1000777a:	88e2      	ldrh	r2, [r4, #6]
1000777c:	2a00      	cmp	r2, #0
1000777e:	d109      	bne.n	10007794 <tud_task+0x628>
10007780:	4643      	mov	r3, r8
10007782:	2b01      	cmp	r3, #1
10007784:	d028      	beq.n	100077d8 <tud_task+0x66c>
10007786:	9b00      	ldr	r3, [sp, #0]
10007788:	18fb      	adds	r3, r7, r3
1000778a:	195d      	adds	r5, r3, r5
1000778c:	3530      	adds	r5, #48	; 0x30
1000778e:	78eb      	ldrb	r3, [r5, #3]
10007790:	079b      	lsls	r3, r3, #30
10007792:	d534      	bpl.n	100077fe <tud_task+0x692>
10007794:	9d01      	ldr	r5, [sp, #4]
10007796:	2d00      	cmp	r5, #0
10007798:	d100      	bne.n	1000779c <tud_task+0x630>
1000779a:	e4f7      	b.n	1000718c <tud_task+0x20>
1000779c:	68eb      	ldr	r3, [r5, #12]
1000779e:	0018      	movs	r0, r3
100077a0:	9300      	str	r3, [sp, #0]
100077a2:	f000 fbc1 	bl	10007f28 <usbd_control_set_complete_callback>
100077a6:	68eb      	ldr	r3, [r5, #12]
100077a8:	2100      	movs	r1, #0
100077aa:	aa08      	add	r2, sp, #32
100077ac:	4650      	mov	r0, sl
100077ae:	4798      	blx	r3
100077b0:	2000      	movs	r0, #0
100077b2:	f000 fbb9 	bl	10007f28 <usbd_control_set_complete_callback>
100077b6:	2334      	movs	r3, #52	; 0x34
100077b8:	5cfb      	ldrb	r3, [r7, r3]
100077ba:	07db      	lsls	r3, r3, #31
100077bc:	d500      	bpl.n	100077c0 <tud_task+0x654>
100077be:	e4e5      	b.n	1000718c <tud_task+0x20>
100077c0:	e6f6      	b.n	100075b0 <tud_task+0x444>
100077c2:	4a18      	ldr	r2, [pc, #96]	; (10007824 <tud_task+0x6b8>)
100077c4:	005d      	lsls	r5, r3, #1
100077c6:	18eb      	adds	r3, r5, r3
100077c8:	6815      	ldr	r5, [r2, #0]
100077ca:	00db      	lsls	r3, r3, #3
100077cc:	18ed      	adds	r5, r5, r3
100077ce:	2d00      	cmp	r5, #0
100077d0:	d100      	bne.n	100077d4 <tud_task+0x668>
100077d2:	e558      	b.n	10007286 <tud_task+0x11a>
100077d4:	68e8      	ldr	r0, [r5, #12]
100077d6:	e705      	b.n	100075e4 <tud_task+0x478>
100077d8:	9b00      	ldr	r3, [sp, #0]
100077da:	18fb      	adds	r3, r7, r3
100077dc:	195d      	adds	r5, r3, r5
100077de:	3530      	adds	r5, #48	; 0x30
100077e0:	78eb      	ldrb	r3, [r5, #3]
100077e2:	079b      	lsls	r3, r3, #30
100077e4:	d5d6      	bpl.n	10007794 <tud_task+0x628>
100077e6:	4650      	mov	r0, sl
100077e8:	f7ff fa3c 	bl	10006c64 <dcd_edpt_clear_stall>
100077ec:	464a      	mov	r2, r9
100077ee:	78eb      	ldrb	r3, [r5, #3]
100077f0:	4393      	bics	r3, r2
100077f2:	4642      	mov	r2, r8
100077f4:	70eb      	strb	r3, [r5, #3]
100077f6:	78eb      	ldrb	r3, [r5, #3]
100077f8:	4393      	bics	r3, r2
100077fa:	70eb      	strb	r3, [r5, #3]
100077fc:	e7ca      	b.n	10007794 <tud_task+0x628>
100077fe:	4650      	mov	r0, sl
10007800:	f7ff fa14 	bl	10006c2c <dcd_edpt_stall>
10007804:	2202      	movs	r2, #2
10007806:	78eb      	ldrb	r3, [r5, #3]
10007808:	4313      	orrs	r3, r2
1000780a:	2201      	movs	r2, #1
1000780c:	70eb      	strb	r3, [r5, #3]
1000780e:	78eb      	ldrb	r3, [r5, #3]
10007810:	4313      	orrs	r3, r2
10007812:	70eb      	strb	r3, [r5, #3]
10007814:	e7be      	b.n	10007794 <tud_task+0x628>
10007816:	46c0      	nop			; (mov r8, r8)
10007818:	100063d5 	.word	0x100063d5
1000781c:	200018a5 	.word	0x200018a5
10007820:	10009ec4 	.word	0x10009ec4
10007824:	20000e9c 	.word	0x20000e9c
10007828:	10008351 	.word	0x10008351
1000782c:	10009e84 	.word	0x10009e84
	...
1000783c:	ab06      	add	r3, sp, #24
1000783e:	1c9a      	adds	r2, r3, #2
10007840:	4650      	mov	r0, sl
10007842:	2301      	movs	r3, #1
10007844:	a908      	add	r1, sp, #32
10007846:	7015      	strb	r5, [r2, #0]
10007848:	f000 fb08 	bl	10007e5c <tud_control_xfer>
1000784c:	e49e      	b.n	1000718c <tud_task+0x20>
1000784e:	1e58      	subs	r0, r3, #1
10007850:	b2c0      	uxtb	r0, r0
10007852:	f7fe feef 	bl	10006634 <tud_descriptor_configuration_cb>
10007856:	2800      	cmp	r0, #0
10007858:	d100      	bne.n	1000785c <tud_task+0x6f0>
1000785a:	e514      	b.n	10007286 <tud_task+0x11a>
1000785c:	7843      	ldrb	r3, [r0, #1]
1000785e:	9304      	str	r3, [sp, #16]
10007860:	2b02      	cmp	r3, #2
10007862:	d000      	beq.n	10007866 <tud_task+0x6fa>
10007864:	e50f      	b.n	10007286 <tud_task+0x11a>
10007866:	2101      	movs	r1, #1
10007868:	79c3      	ldrb	r3, [r0, #7]
1000786a:	119a      	asrs	r2, r3, #6
1000786c:	115b      	asrs	r3, r3, #5
1000786e:	400a      	ands	r2, r1
10007870:	400b      	ands	r3, r1
10007872:	0152      	lsls	r2, r2, #5
10007874:	011b      	lsls	r3, r3, #4
10007876:	4313      	orrs	r3, r2
10007878:	783a      	ldrb	r2, [r7, #0]
1000787a:	312f      	adds	r1, #47	; 0x2f
1000787c:	438a      	bics	r2, r1
1000787e:	4313      	orrs	r3, r2
10007880:	703b      	strb	r3, [r7, #0]
10007882:	2309      	movs	r3, #9
10007884:	4699      	mov	r9, r3
10007886:	78c3      	ldrb	r3, [r0, #3]
10007888:	7882      	ldrb	r2, [r0, #2]
1000788a:	021b      	lsls	r3, r3, #8
1000788c:	4313      	orrs	r3, r2
1000788e:	18c3      	adds	r3, r0, r3
10007890:	4481      	add	r9, r0
10007892:	9303      	str	r3, [sp, #12]
10007894:	9b03      	ldr	r3, [sp, #12]
10007896:	454b      	cmp	r3, r9
10007898:	d800      	bhi.n	1000789c <tud_task+0x730>
1000789a:	e0c3      	b.n	10007a24 <tud_task+0x8b8>
1000789c:	464b      	mov	r3, r9
1000789e:	2201      	movs	r2, #1
100078a0:	785b      	ldrb	r3, [r3, #1]
100078a2:	9200      	str	r2, [sp, #0]
100078a4:	2b0b      	cmp	r3, #11
100078a6:	d107      	bne.n	100078b8 <tud_task+0x74c>
100078a8:	464b      	mov	r3, r9
100078aa:	78db      	ldrb	r3, [r3, #3]
100078ac:	9300      	str	r3, [sp, #0]
100078ae:	464b      	mov	r3, r9
100078b0:	781b      	ldrb	r3, [r3, #0]
100078b2:	4499      	add	r9, r3
100078b4:	464b      	mov	r3, r9
100078b6:	785b      	ldrb	r3, [r3, #1]
100078b8:	2b04      	cmp	r3, #4
100078ba:	d000      	beq.n	100078be <tud_task+0x752>
100078bc:	e4e3      	b.n	10007286 <tud_task+0x11a>
100078be:	464a      	mov	r2, r9
100078c0:	9b03      	ldr	r3, [sp, #12]
100078c2:	2500      	movs	r5, #0
100078c4:	1a9b      	subs	r3, r3, r2
100078c6:	b29b      	uxth	r3, r3
100078c8:	9302      	str	r3, [sp, #8]
100078ca:	4a5c      	ldr	r2, [pc, #368]	; (10007a3c <tud_task+0x8d0>)
100078cc:	4b5c      	ldr	r3, [pc, #368]	; (10007a40 <tud_task+0x8d4>)
100078ce:	781b      	ldrb	r3, [r3, #0]
100078d0:	2a00      	cmp	r2, #0
100078d2:	d116      	bne.n	10007902 <tud_task+0x796>
100078d4:	e062      	b.n	1000799c <tud_task+0x830>
100078d6:	42ab      	cmp	r3, r5
100078d8:	d170      	bne.n	100079bc <tud_task+0x850>
100078da:	4a5a      	ldr	r2, [pc, #360]	; (10007a44 <tud_task+0x8d8>)
100078dc:	4b5a      	ldr	r3, [pc, #360]	; (10007a48 <tud_task+0x8dc>)
100078de:	4690      	mov	r8, r2
100078e0:	4649      	mov	r1, r9
100078e2:	4650      	mov	r0, sl
100078e4:	9a02      	ldr	r2, [sp, #8]
100078e6:	4798      	blx	r3
100078e8:	4684      	mov	ip, r0
100078ea:	2808      	cmp	r0, #8
100078ec:	d902      	bls.n	100078f4 <tud_task+0x788>
100078ee:	9a02      	ldr	r2, [sp, #8]
100078f0:	4282      	cmp	r2, r0
100078f2:	d269      	bcs.n	100079c8 <tud_task+0x85c>
100078f4:	4b52      	ldr	r3, [pc, #328]	; (10007a40 <tud_task+0x8d4>)
100078f6:	3501      	adds	r5, #1
100078f8:	781b      	ldrb	r3, [r3, #0]
100078fa:	b2ed      	uxtb	r5, r5
100078fc:	42ab      	cmp	r3, r5
100078fe:	d200      	bcs.n	10007902 <tud_task+0x796>
10007900:	e4c1      	b.n	10007286 <tud_task+0x11a>
10007902:	42ab      	cmp	r3, r5
10007904:	d9e7      	bls.n	100078d6 <tud_task+0x76a>
10007906:	4a51      	ldr	r2, [pc, #324]	; (10007a4c <tud_task+0x8e0>)
10007908:	006b      	lsls	r3, r5, #1
1000790a:	6812      	ldr	r2, [r2, #0]
1000790c:	195b      	adds	r3, r3, r5
1000790e:	4690      	mov	r8, r2
10007910:	00db      	lsls	r3, r3, #3
10007912:	4498      	add	r8, r3
10007914:	4643      	mov	r3, r8
10007916:	9205      	str	r2, [sp, #20]
10007918:	689b      	ldr	r3, [r3, #8]
1000791a:	e7e1      	b.n	100078e0 <tud_task+0x774>
1000791c:	4650      	mov	r0, sl
1000791e:	f7ff f915 	bl	10006b4c <dcd_edpt_close_all>
10007922:	78bb      	ldrb	r3, [r7, #2]
10007924:	4d46      	ldr	r5, [pc, #280]	; (10007a40 <tud_task+0x8d4>)
10007926:	4a45      	ldr	r2, [pc, #276]	; (10007a3c <tud_task+0x8d0>)
10007928:	9300      	str	r3, [sp, #0]
1000792a:	2100      	movs	r1, #0
1000792c:	782b      	ldrb	r3, [r5, #0]
1000792e:	2a00      	cmp	r2, #0
10007930:	d02d      	beq.n	1000798e <tud_task+0x822>
10007932:	4a46      	ldr	r2, [pc, #280]	; (10007a4c <tud_task+0x8e0>)
10007934:	4690      	mov	r8, r2
10007936:	002a      	movs	r2, r5
10007938:	000d      	movs	r5, r1
1000793a:	4691      	mov	r9, r2
1000793c:	429d      	cmp	r5, r3
1000793e:	d31d      	bcc.n	1000797c <tud_task+0x810>
10007940:	d000      	beq.n	10007944 <tud_task+0x7d8>
10007942:	e577      	b.n	10007434 <tud_task+0x2c8>
10007944:	4b42      	ldr	r3, [pc, #264]	; (10007a50 <tud_task+0x8e4>)
10007946:	4650      	mov	r0, sl
10007948:	4798      	blx	r3
1000794a:	464b      	mov	r3, r9
1000794c:	3501      	adds	r5, #1
1000794e:	781b      	ldrb	r3, [r3, #0]
10007950:	b2ed      	uxtb	r5, r5
10007952:	42ab      	cmp	r3, r5
10007954:	d2f2      	bcs.n	1000793c <tud_task+0x7d0>
10007956:	2253      	movs	r2, #83	; 0x53
10007958:	2100      	movs	r1, #0
1000795a:	0038      	movs	r0, r7
1000795c:	f7fe fa3e 	bl	10005ddc <__wrap_memset>
10007960:	2210      	movs	r2, #16
10007962:	21ff      	movs	r1, #255	; 0xff
10007964:	1cf8      	adds	r0, r7, #3
10007966:	f7fe fa39 	bl	10005ddc <__wrap_memset>
1000796a:	0038      	movs	r0, r7
1000796c:	2220      	movs	r2, #32
1000796e:	21ff      	movs	r1, #255	; 0xff
10007970:	3013      	adds	r0, #19
10007972:	f7fe fa33 	bl	10005ddc <__wrap_memset>
10007976:	9b00      	ldr	r3, [sp, #0]
10007978:	70bb      	strb	r3, [r7, #2]
1000797a:	e687      	b.n	1000768c <tud_task+0x520>
1000797c:	4642      	mov	r2, r8
1000797e:	6812      	ldr	r2, [r2, #0]
10007980:	006b      	lsls	r3, r5, #1
10007982:	4694      	mov	ip, r2
10007984:	195b      	adds	r3, r3, r5
10007986:	00db      	lsls	r3, r3, #3
10007988:	4463      	add	r3, ip
1000798a:	685b      	ldr	r3, [r3, #4]
1000798c:	e7db      	b.n	10007946 <tud_task+0x7da>
1000798e:	4650      	mov	r0, sl
10007990:	f000 fc56 	bl	10008240 <cdcd_reset>
10007994:	782b      	ldrb	r3, [r5, #0]
10007996:	2b00      	cmp	r3, #0
10007998:	d0dd      	beq.n	10007956 <tud_task+0x7ea>
1000799a:	e54b      	b.n	10007434 <tud_task+0x2c8>
1000799c:	9d02      	ldr	r5, [sp, #8]
1000799e:	4649      	mov	r1, r9
100079a0:	002a      	movs	r2, r5
100079a2:	4650      	mov	r0, sl
100079a4:	f000 fc62 	bl	1000826c <cdcd_open>
100079a8:	4684      	mov	ip, r0
100079aa:	2808      	cmp	r0, #8
100079ac:	d901      	bls.n	100079b2 <tud_task+0x846>
100079ae:	42a8      	cmp	r0, r5
100079b0:	d907      	bls.n	100079c2 <tud_task+0x856>
100079b2:	4b23      	ldr	r3, [pc, #140]	; (10007a40 <tud_task+0x8d4>)
100079b4:	781b      	ldrb	r3, [r3, #0]
100079b6:	2b00      	cmp	r3, #0
100079b8:	d100      	bne.n	100079bc <tud_task+0x850>
100079ba:	e464      	b.n	10007286 <tud_task+0x11a>
100079bc:	2300      	movs	r3, #0
100079be:	689b      	ldr	r3, [r3, #8]
100079c0:	deff      	udf	#255	; 0xff
100079c2:	4b20      	ldr	r3, [pc, #128]	; (10007a44 <tud_task+0x8d8>)
100079c4:	4d1d      	ldr	r5, [pc, #116]	; (10007a3c <tud_task+0x8d0>)
100079c6:	4698      	mov	r8, r3
100079c8:	9b00      	ldr	r3, [sp, #0]
100079ca:	2b01      	cmp	r3, #1
100079cc:	d022      	beq.n	10007a14 <tud_task+0x8a8>
100079ce:	9b00      	ldr	r3, [sp, #0]
100079d0:	2b00      	cmp	r3, #0
100079d2:	d010      	beq.n	100079f6 <tud_task+0x88a>
100079d4:	464b      	mov	r3, r9
100079d6:	7899      	ldrb	r1, [r3, #2]
100079d8:	2300      	movs	r3, #0
100079da:	e005      	b.n	100079e8 <tud_task+0x87c>
100079dc:	70d5      	strb	r5, [r2, #3]
100079de:	3301      	adds	r3, #1
100079e0:	9a00      	ldr	r2, [sp, #0]
100079e2:	b2db      	uxtb	r3, r3
100079e4:	4293      	cmp	r3, r2
100079e6:	d206      	bcs.n	100079f6 <tud_task+0x88a>
100079e8:	18ca      	adds	r2, r1, r3
100079ea:	b2d2      	uxtb	r2, r2
100079ec:	18ba      	adds	r2, r7, r2
100079ee:	78d0      	ldrb	r0, [r2, #3]
100079f0:	28ff      	cmp	r0, #255	; 0xff
100079f2:	d0f3      	beq.n	100079dc <tud_task+0x870>
100079f4:	e447      	b.n	10007286 <tud_task+0x11a>
100079f6:	0038      	movs	r0, r7
100079f8:	46e0      	mov	r8, ip
100079fa:	002b      	movs	r3, r5
100079fc:	4649      	mov	r1, r9
100079fe:	4662      	mov	r2, ip
10007a00:	3013      	adds	r0, #19
10007a02:	f000 fe29 	bl	10008658 <tu_edpt_bind_driver>
10007a06:	4b0e      	ldr	r3, [pc, #56]	; (10007a40 <tud_task+0x8d4>)
10007a08:	44c1      	add	r9, r8
10007a0a:	781b      	ldrb	r3, [r3, #0]
10007a0c:	42ab      	cmp	r3, r5
10007a0e:	d300      	bcc.n	10007a12 <tud_task+0x8a6>
10007a10:	e740      	b.n	10007894 <tud_task+0x728>
10007a12:	e438      	b.n	10007286 <tud_task+0x11a>
10007a14:	4642      	mov	r2, r8
10007a16:	4b0c      	ldr	r3, [pc, #48]	; (10007a48 <tud_task+0x8dc>)
10007a18:	6892      	ldr	r2, [r2, #8]
10007a1a:	429a      	cmp	r2, r3
10007a1c:	d1da      	bne.n	100079d4 <tud_task+0x868>
10007a1e:	9b04      	ldr	r3, [sp, #16]
10007a20:	9300      	str	r3, [sp, #0]
10007a22:	e7d7      	b.n	100079d4 <tud_task+0x868>
10007a24:	4b0b      	ldr	r3, [pc, #44]	; (10007a54 <tud_task+0x8e8>)
10007a26:	2b00      	cmp	r3, #0
10007a28:	d100      	bne.n	10007a2c <tud_task+0x8c0>
10007a2a:	e633      	b.n	10007694 <tud_task+0x528>
10007a2c:	e000      	b.n	10007a30 <tud_task+0x8c4>
10007a2e:	bf00      	nop
10007a30:	e630      	b.n	10007694 <tud_task+0x528>
10007a32:	f7fe fdff 	bl	10006634 <tud_descriptor_configuration_cb>
10007a36:	0002      	movs	r2, r0
10007a38:	e68f      	b.n	1000775a <tud_task+0x5ee>
10007a3a:	46c0      	nop			; (mov r8, r8)
10007a3c:	100063d5 	.word	0x100063d5
10007a40:	200018a5 	.word	0x200018a5
10007a44:	10009ec4 	.word	0x10009ec4
10007a48:	1000826d 	.word	0x1000826d
10007a4c:	20000e9c 	.word	0x20000e9c
10007a50:	10008241 	.word	0x10008241
10007a54:	00000000 	.word	0x00000000

10007a58 <dcd_event_bus_signal>:
10007a58:	b530      	push	{r4, r5, lr}
10007a5a:	b087      	sub	sp, #28
10007a5c:	0005      	movs	r5, r0
10007a5e:	000c      	movs	r4, r1
10007a60:	220c      	movs	r2, #12
10007a62:	2100      	movs	r1, #0
10007a64:	4668      	mov	r0, sp
10007a66:	f7fe f9b9 	bl	10005ddc <__wrap_memset>
10007a6a:	466b      	mov	r3, sp
10007a6c:	701d      	strb	r5, [r3, #0]
10007a6e:	705c      	strb	r4, [r3, #1]
10007a70:	2c04      	cmp	r4, #4
10007a72:	d04f      	beq.n	10007b14 <dcd_event_bus_signal+0xbc>
10007a74:	d809      	bhi.n	10007a8a <dcd_event_bus_signal+0x32>
10007a76:	2c02      	cmp	r4, #2
10007a78:	d034      	beq.n	10007ae4 <dcd_event_bus_signal+0x8c>
10007a7a:	2c03      	cmp	r4, #3
10007a7c:	d128      	bne.n	10007ad0 <dcd_event_bus_signal+0x78>
10007a7e:	4b3c      	ldr	r3, [pc, #240]	; (10007b70 <dcd_event_bus_signal+0x118>)
10007a80:	781a      	ldrb	r2, [r3, #0]
10007a82:	0752      	lsls	r2, r2, #29
10007a84:	d458      	bmi.n	10007b38 <dcd_event_bus_signal+0xe0>
10007a86:	b007      	add	sp, #28
10007a88:	bd30      	pop	{r4, r5, pc}
10007a8a:	2c05      	cmp	r4, #5
10007a8c:	d120      	bne.n	10007ad0 <dcd_event_bus_signal+0x78>
10007a8e:	4b38      	ldr	r3, [pc, #224]	; (10007b70 <dcd_event_bus_signal+0x118>)
10007a90:	781a      	ldrb	r2, [r3, #0]
10007a92:	07d2      	lsls	r2, r2, #31
10007a94:	d5f7      	bpl.n	10007a86 <dcd_event_bus_signal+0x2e>
10007a96:	2104      	movs	r1, #4
10007a98:	781a      	ldrb	r2, [r3, #0]
10007a9a:	438a      	bics	r2, r1
10007a9c:	701a      	strb	r2, [r3, #0]
10007a9e:	4b35      	ldr	r3, [pc, #212]	; (10007b74 <dcd_event_bus_signal+0x11c>)
10007aa0:	681c      	ldr	r4, [r3, #0]
10007aa2:	69e2      	ldr	r2, [r4, #28]
10007aa4:	f3ef 8110 	mrs	r1, PRIMASK
10007aa8:	b672      	cpsid	i
10007aaa:	6813      	ldr	r3, [r2, #0]
10007aac:	2b00      	cmp	r3, #0
10007aae:	d0fc      	beq.n	10007aaa <dcd_event_bus_signal+0x52>
10007ab0:	f3bf 8f5f 	dmb	sy
10007ab4:	6221      	str	r1, [r4, #32]
10007ab6:	4669      	mov	r1, sp
10007ab8:	0020      	movs	r0, r4
10007aba:	f000 ff13 	bl	100088e4 <tu_fifo_write>
10007abe:	69e2      	ldr	r2, [r4, #28]
10007ac0:	6a23      	ldr	r3, [r4, #32]
10007ac2:	f3bf 8f5f 	dmb	sy
10007ac6:	2100      	movs	r1, #0
10007ac8:	6011      	str	r1, [r2, #0]
10007aca:	f383 8810 	msr	PRIMASK, r3
10007ace:	e7da      	b.n	10007a86 <dcd_event_bus_signal+0x2e>
10007ad0:	4b28      	ldr	r3, [pc, #160]	; (10007b74 <dcd_event_bus_signal+0x11c>)
10007ad2:	681c      	ldr	r4, [r3, #0]
10007ad4:	69e2      	ldr	r2, [r4, #28]
10007ad6:	f3ef 8110 	mrs	r1, PRIMASK
10007ada:	b672      	cpsid	i
10007adc:	6813      	ldr	r3, [r2, #0]
10007ade:	2b00      	cmp	r3, #0
10007ae0:	d1e6      	bne.n	10007ab0 <dcd_event_bus_signal+0x58>
10007ae2:	e7fb      	b.n	10007adc <dcd_event_bus_signal+0x84>
10007ae4:	2101      	movs	r1, #1
10007ae6:	4b22      	ldr	r3, [pc, #136]	; (10007b70 <dcd_event_bus_signal+0x118>)
10007ae8:	781a      	ldrb	r2, [r3, #0]
10007aea:	438a      	bics	r2, r1
10007aec:	701a      	strb	r2, [r3, #0]
10007aee:	781a      	ldrb	r2, [r3, #0]
10007af0:	3103      	adds	r1, #3
10007af2:	43a2      	bics	r2, r4
10007af4:	701a      	strb	r2, [r3, #0]
10007af6:	2200      	movs	r2, #0
10007af8:	705a      	strb	r2, [r3, #1]
10007afa:	781a      	ldrb	r2, [r3, #0]
10007afc:	438a      	bics	r2, r1
10007afe:	701a      	strb	r2, [r3, #0]
10007b00:	4b1c      	ldr	r3, [pc, #112]	; (10007b74 <dcd_event_bus_signal+0x11c>)
10007b02:	681c      	ldr	r4, [r3, #0]
10007b04:	69e2      	ldr	r2, [r4, #28]
10007b06:	f3ef 8110 	mrs	r1, PRIMASK
10007b0a:	b672      	cpsid	i
10007b0c:	6813      	ldr	r3, [r2, #0]
10007b0e:	2b00      	cmp	r3, #0
10007b10:	d1ce      	bne.n	10007ab0 <dcd_event_bus_signal+0x58>
10007b12:	e7fb      	b.n	10007b0c <dcd_event_bus_signal+0xb4>
10007b14:	4b16      	ldr	r3, [pc, #88]	; (10007b70 <dcd_event_bus_signal+0x118>)
10007b16:	781a      	ldrb	r2, [r3, #0]
10007b18:	07d2      	lsls	r2, r2, #31
10007b1a:	d5b4      	bpl.n	10007a86 <dcd_event_bus_signal+0x2e>
10007b1c:	2104      	movs	r1, #4
10007b1e:	781a      	ldrb	r2, [r3, #0]
10007b20:	430a      	orrs	r2, r1
10007b22:	701a      	strb	r2, [r3, #0]
10007b24:	4b13      	ldr	r3, [pc, #76]	; (10007b74 <dcd_event_bus_signal+0x11c>)
10007b26:	681c      	ldr	r4, [r3, #0]
10007b28:	69e2      	ldr	r2, [r4, #28]
10007b2a:	f3ef 8110 	mrs	r1, PRIMASK
10007b2e:	b672      	cpsid	i
10007b30:	6813      	ldr	r3, [r2, #0]
10007b32:	2b00      	cmp	r3, #0
10007b34:	d1bc      	bne.n	10007ab0 <dcd_event_bus_signal+0x58>
10007b36:	e7fb      	b.n	10007b30 <dcd_event_bus_signal+0xd8>
10007b38:	2104      	movs	r1, #4
10007b3a:	781a      	ldrb	r2, [r3, #0]
10007b3c:	a803      	add	r0, sp, #12
10007b3e:	438a      	bics	r2, r1
10007b40:	701a      	strb	r2, [r3, #0]
10007b42:	2100      	movs	r1, #0
10007b44:	220c      	movs	r2, #12
10007b46:	f7fe f949 	bl	10005ddc <__wrap_memset>
10007b4a:	466b      	mov	r3, sp
10007b4c:	466a      	mov	r2, sp
10007b4e:	731d      	strb	r5, [r3, #12]
10007b50:	2305      	movs	r3, #5
10007b52:	7353      	strb	r3, [r2, #13]
10007b54:	4b07      	ldr	r3, [pc, #28]	; (10007b74 <dcd_event_bus_signal+0x11c>)
10007b56:	681c      	ldr	r4, [r3, #0]
10007b58:	69e2      	ldr	r2, [r4, #28]
10007b5a:	f3ef 8110 	mrs	r1, PRIMASK
10007b5e:	b672      	cpsid	i
10007b60:	6813      	ldr	r3, [r2, #0]
10007b62:	2b00      	cmp	r3, #0
10007b64:	d0fc      	beq.n	10007b60 <dcd_event_bus_signal+0x108>
10007b66:	f3bf 8f5f 	dmb	sy
10007b6a:	6221      	str	r1, [r4, #32]
10007b6c:	a903      	add	r1, sp, #12
10007b6e:	e7a3      	b.n	10007ab8 <dcd_event_bus_signal+0x60>
10007b70:	200011d4 	.word	0x200011d4
10007b74:	2000122c 	.word	0x2000122c

10007b78 <dcd_event_bus_reset>:
10007b78:	b570      	push	{r4, r5, r6, lr}
10007b7a:	b084      	sub	sp, #16
10007b7c:	ac01      	add	r4, sp, #4
10007b7e:	0006      	movs	r6, r0
10007b80:	000d      	movs	r5, r1
10007b82:	220c      	movs	r2, #12
10007b84:	2100      	movs	r1, #0
10007b86:	0020      	movs	r0, r4
10007b88:	f7fe f928 	bl	10005ddc <__wrap_memset>
10007b8c:	2301      	movs	r3, #1
10007b8e:	7063      	strb	r3, [r4, #1]
10007b90:	4b0d      	ldr	r3, [pc, #52]	; (10007bc8 <dcd_event_bus_reset+0x50>)
10007b92:	7125      	strb	r5, [r4, #4]
10007b94:	681d      	ldr	r5, [r3, #0]
10007b96:	7026      	strb	r6, [r4, #0]
10007b98:	69ea      	ldr	r2, [r5, #28]
10007b9a:	f3ef 8310 	mrs	r3, PRIMASK
10007b9e:	b672      	cpsid	i
10007ba0:	6811      	ldr	r1, [r2, #0]
10007ba2:	2900      	cmp	r1, #0
10007ba4:	d0fc      	beq.n	10007ba0 <dcd_event_bus_reset+0x28>
10007ba6:	f3bf 8f5f 	dmb	sy
10007baa:	622b      	str	r3, [r5, #32]
10007bac:	0021      	movs	r1, r4
10007bae:	0028      	movs	r0, r5
10007bb0:	f000 fe98 	bl	100088e4 <tu_fifo_write>
10007bb4:	69ea      	ldr	r2, [r5, #28]
10007bb6:	6a2b      	ldr	r3, [r5, #32]
10007bb8:	f3bf 8f5f 	dmb	sy
10007bbc:	2100      	movs	r1, #0
10007bbe:	6011      	str	r1, [r2, #0]
10007bc0:	f383 8810 	msr	PRIMASK, r3
10007bc4:	b004      	add	sp, #16
10007bc6:	bd70      	pop	{r4, r5, r6, pc}
10007bc8:	2000122c 	.word	0x2000122c

10007bcc <dcd_event_setup_received>:
10007bcc:	2300      	movs	r3, #0
10007bce:	b530      	push	{r4, r5, lr}
10007bd0:	b085      	sub	sp, #20
10007bd2:	ad01      	add	r5, sp, #4
10007bd4:	806b      	strh	r3, [r5, #2]
10007bd6:	7028      	strb	r0, [r5, #0]
10007bd8:	3306      	adds	r3, #6
10007bda:	2208      	movs	r2, #8
10007bdc:	a802      	add	r0, sp, #8
10007bde:	706b      	strb	r3, [r5, #1]
10007be0:	f7fe f902 	bl	10005de8 <__wrap___aeabi_memcpy>
10007be4:	4b0c      	ldr	r3, [pc, #48]	; (10007c18 <dcd_event_setup_received+0x4c>)
10007be6:	681c      	ldr	r4, [r3, #0]
10007be8:	69e2      	ldr	r2, [r4, #28]
10007bea:	f3ef 8310 	mrs	r3, PRIMASK
10007bee:	b672      	cpsid	i
10007bf0:	6811      	ldr	r1, [r2, #0]
10007bf2:	2900      	cmp	r1, #0
10007bf4:	d0fc      	beq.n	10007bf0 <dcd_event_setup_received+0x24>
10007bf6:	f3bf 8f5f 	dmb	sy
10007bfa:	6223      	str	r3, [r4, #32]
10007bfc:	0029      	movs	r1, r5
10007bfe:	0020      	movs	r0, r4
10007c00:	f000 fe70 	bl	100088e4 <tu_fifo_write>
10007c04:	69e2      	ldr	r2, [r4, #28]
10007c06:	6a23      	ldr	r3, [r4, #32]
10007c08:	f3bf 8f5f 	dmb	sy
10007c0c:	2100      	movs	r1, #0
10007c0e:	6011      	str	r1, [r2, #0]
10007c10:	f383 8810 	msr	PRIMASK, r3
10007c14:	b005      	add	sp, #20
10007c16:	bd30      	pop	{r4, r5, pc}
10007c18:	2000122c 	.word	0x2000122c

10007c1c <dcd_event_xfer_complete>:
10007c1c:	b5f0      	push	{r4, r5, r6, r7, lr}
10007c1e:	46c6      	mov	lr, r8
10007c20:	4680      	mov	r8, r0
10007c22:	b500      	push	{lr}
10007c24:	b084      	sub	sp, #16
10007c26:	ac01      	add	r4, sp, #4
10007c28:	000f      	movs	r7, r1
10007c2a:	0016      	movs	r6, r2
10007c2c:	2100      	movs	r1, #0
10007c2e:	2208      	movs	r2, #8
10007c30:	0020      	movs	r0, r4
10007c32:	001d      	movs	r5, r3
10007c34:	f7fe f8d2 	bl	10005ddc <__wrap_memset>
10007c38:	4643      	mov	r3, r8
10007c3a:	7023      	strb	r3, [r4, #0]
10007c3c:	2307      	movs	r3, #7
10007c3e:	7063      	strb	r3, [r4, #1]
10007c40:	4b0f      	ldr	r3, [pc, #60]	; (10007c80 <dcd_event_xfer_complete+0x64>)
10007c42:	7165      	strb	r5, [r4, #5]
10007c44:	681d      	ldr	r5, [r3, #0]
10007c46:	7127      	strb	r7, [r4, #4]
10007c48:	60a6      	str	r6, [r4, #8]
10007c4a:	69ea      	ldr	r2, [r5, #28]
10007c4c:	f3ef 8310 	mrs	r3, PRIMASK
10007c50:	b672      	cpsid	i
10007c52:	6811      	ldr	r1, [r2, #0]
10007c54:	2900      	cmp	r1, #0
10007c56:	d0fc      	beq.n	10007c52 <dcd_event_xfer_complete+0x36>
10007c58:	f3bf 8f5f 	dmb	sy
10007c5c:	622b      	str	r3, [r5, #32]
10007c5e:	0021      	movs	r1, r4
10007c60:	0028      	movs	r0, r5
10007c62:	f000 fe3f 	bl	100088e4 <tu_fifo_write>
10007c66:	69ea      	ldr	r2, [r5, #28]
10007c68:	6a2b      	ldr	r3, [r5, #32]
10007c6a:	f3bf 8f5f 	dmb	sy
10007c6e:	2100      	movs	r1, #0
10007c70:	6011      	str	r1, [r2, #0]
10007c72:	f383 8810 	msr	PRIMASK, r3
10007c76:	b004      	add	sp, #16
10007c78:	bc04      	pop	{r2}
10007c7a:	4690      	mov	r8, r2
10007c7c:	bdf0      	pop	{r4, r5, r6, r7, pc}
10007c7e:	46c0      	nop			; (mov r8, r8)
10007c80:	2000122c 	.word	0x2000122c

10007c84 <usbd_open_edpt_pair>:
10007c84:	b5f0      	push	{r4, r5, r6, r7, lr}
10007c86:	4646      	mov	r6, r8
10007c88:	46d6      	mov	lr, sl
10007c8a:	464f      	mov	r7, r9
10007c8c:	4680      	mov	r8, r0
10007c8e:	b5c0      	push	{r6, r7, lr}
10007c90:	000c      	movs	r4, r1
10007c92:	0015      	movs	r5, r2
10007c94:	001e      	movs	r6, r3
10007c96:	2a00      	cmp	r2, #0
10007c98:	d02e      	beq.n	10007cf8 <usbd_open_edpt_pair+0x74>
10007c9a:	2370      	movs	r3, #112	; 0x70
10007c9c:	4699      	mov	r9, r3
10007c9e:	4b18      	ldr	r3, [pc, #96]	; (10007d00 <usbd_open_edpt_pair+0x7c>)
10007ca0:	2700      	movs	r7, #0
10007ca2:	469a      	mov	sl, r3
10007ca4:	7863      	ldrb	r3, [r4, #1]
10007ca6:	2b05      	cmp	r3, #5
10007ca8:	d10f      	bne.n	10007cca <usbd_open_edpt_pair+0x46>
10007caa:	78e1      	ldrb	r1, [r4, #3]
10007cac:	0789      	lsls	r1, r1, #30
10007cae:	0f89      	lsrs	r1, r1, #30
10007cb0:	42b1      	cmp	r1, r6
10007cb2:	d10a      	bne.n	10007cca <usbd_open_edpt_pair+0x46>
10007cb4:	464a      	mov	r2, r9
10007cb6:	78a3      	ldrb	r3, [r4, #2]
10007cb8:	421a      	tst	r2, r3
10007cba:	d106      	bne.n	10007cca <usbd_open_edpt_pair+0x46>
10007cbc:	4653      	mov	r3, sl
10007cbe:	0020      	movs	r0, r4
10007cc0:	7899      	ldrb	r1, [r3, #2]
10007cc2:	f000 fc8d 	bl	100085e0 <tu_edpt_validate>
10007cc6:	2800      	cmp	r0, #0
10007cc8:	d105      	bne.n	10007cd6 <usbd_open_edpt_pair+0x52>
10007cca:	2000      	movs	r0, #0
10007ccc:	bc1c      	pop	{r2, r3, r4}
10007cce:	4690      	mov	r8, r2
10007cd0:	4699      	mov	r9, r3
10007cd2:	46a2      	mov	sl, r4
10007cd4:	bdf0      	pop	{r4, r5, r6, r7, pc}
10007cd6:	0021      	movs	r1, r4
10007cd8:	4640      	mov	r0, r8
10007cda:	f7fe febf 	bl	10006a5c <dcd_edpt_open>
10007cde:	2800      	cmp	r0, #0
10007ce0:	d0f3      	beq.n	10007cca <usbd_open_edpt_pair+0x46>
10007ce2:	78a3      	ldrb	r3, [r4, #2]
10007ce4:	09da      	lsrs	r2, r3, #7
10007ce6:	2a01      	cmp	r2, #1
10007ce8:	d008      	beq.n	10007cfc <usbd_open_edpt_pair+0x78>
10007cea:	9a08      	ldr	r2, [sp, #32]
10007cec:	7013      	strb	r3, [r2, #0]
10007cee:	7823      	ldrb	r3, [r4, #0]
10007cf0:	3701      	adds	r7, #1
10007cf2:	18e4      	adds	r4, r4, r3
10007cf4:	42af      	cmp	r7, r5
10007cf6:	dbd5      	blt.n	10007ca4 <usbd_open_edpt_pair+0x20>
10007cf8:	2001      	movs	r0, #1
10007cfa:	e7e7      	b.n	10007ccc <usbd_open_edpt_pair+0x48>
10007cfc:	9a09      	ldr	r2, [sp, #36]	; 0x24
10007cfe:	e7f5      	b.n	10007cec <usbd_open_edpt_pair+0x68>
10007d00:	200011d4 	.word	0x200011d4

10007d04 <usbd_edpt_open>:
10007d04:	2270      	movs	r2, #112	; 0x70
10007d06:	b570      	push	{r4, r5, r6, lr}
10007d08:	788b      	ldrb	r3, [r1, #2]
10007d0a:	0005      	movs	r5, r0
10007d0c:	000c      	movs	r4, r1
10007d0e:	421a      	tst	r2, r3
10007d10:	d001      	beq.n	10007d16 <usbd_edpt_open+0x12>
10007d12:	2000      	movs	r0, #0
10007d14:	bd70      	pop	{r4, r5, r6, pc}
10007d16:	4b06      	ldr	r3, [pc, #24]	; (10007d30 <usbd_edpt_open+0x2c>)
10007d18:	0020      	movs	r0, r4
10007d1a:	7899      	ldrb	r1, [r3, #2]
10007d1c:	f000 fc60 	bl	100085e0 <tu_edpt_validate>
10007d20:	2800      	cmp	r0, #0
10007d22:	d0f6      	beq.n	10007d12 <usbd_edpt_open+0xe>
10007d24:	0021      	movs	r1, r4
10007d26:	0028      	movs	r0, r5
10007d28:	f7fe fe98 	bl	10006a5c <dcd_edpt_open>
10007d2c:	e7f2      	b.n	10007d14 <usbd_edpt_open+0x10>
10007d2e:	46c0      	nop			; (mov r8, r8)
10007d30:	200011d4 	.word	0x200011d4

10007d34 <usbd_edpt_claim>:
10007d34:	b570      	push	{r4, r5, r6, lr}
10007d36:	247f      	movs	r4, #127	; 0x7f
10007d38:	400c      	ands	r4, r1
10007d3a:	0063      	lsls	r3, r4, #1
10007d3c:	4c14      	ldr	r4, [pc, #80]	; (10007d90 <usbd_edpt_claim+0x5c>)
10007d3e:	09c9      	lsrs	r1, r1, #7
10007d40:	18e4      	adds	r4, r4, r3
10007d42:	1864      	adds	r4, r4, r1
10007d44:	3430      	adds	r4, #48	; 0x30
10007d46:	78e3      	ldrb	r3, [r4, #3]
10007d48:	07db      	lsls	r3, r3, #31
10007d4a:	0fdd      	lsrs	r5, r3, #31
10007d4c:	2b00      	cmp	r3, #0
10007d4e:	d118      	bne.n	10007d82 <usbd_edpt_claim+0x4e>
10007d50:	78e3      	ldrb	r3, [r4, #3]
10007d52:	075b      	lsls	r3, r3, #29
10007d54:	d501      	bpl.n	10007d5a <usbd_edpt_claim+0x26>
10007d56:	0028      	movs	r0, r5
10007d58:	bd70      	pop	{r4, r5, r6, pc}
10007d5a:	2101      	movs	r1, #1
10007d5c:	4e0d      	ldr	r6, [pc, #52]	; (10007d94 <usbd_edpt_claim+0x60>)
10007d5e:	4249      	negs	r1, r1
10007d60:	6830      	ldr	r0, [r6, #0]
10007d62:	f001 fce9 	bl	10009738 <__mutex_enter_timeout_ms_veneer>
10007d66:	78e3      	ldrb	r3, [r4, #3]
10007d68:	07db      	lsls	r3, r3, #31
10007d6a:	0fdd      	lsrs	r5, r3, #31
10007d6c:	2b00      	cmp	r3, #0
10007d6e:	d10a      	bne.n	10007d86 <usbd_edpt_claim+0x52>
10007d70:	78e3      	ldrb	r3, [r4, #3]
10007d72:	075b      	lsls	r3, r3, #29
10007d74:	d408      	bmi.n	10007d88 <usbd_edpt_claim+0x54>
10007d76:	2204      	movs	r2, #4
10007d78:	78e3      	ldrb	r3, [r4, #3]
10007d7a:	2501      	movs	r5, #1
10007d7c:	4313      	orrs	r3, r2
10007d7e:	70e3      	strb	r3, [r4, #3]
10007d80:	e002      	b.n	10007d88 <usbd_edpt_claim+0x54>
10007d82:	2500      	movs	r5, #0
10007d84:	e7e7      	b.n	10007d56 <usbd_edpt_claim+0x22>
10007d86:	2500      	movs	r5, #0
10007d88:	6830      	ldr	r0, [r6, #0]
10007d8a:	f001 fcb5 	bl	100096f8 <__mutex_exit_veneer>
10007d8e:	e7e2      	b.n	10007d56 <usbd_edpt_claim+0x22>
10007d90:	200011d4 	.word	0x200011d4
10007d94:	20001228 	.word	0x20001228

10007d98 <usbd_edpt_release>:
10007d98:	b570      	push	{r4, r5, r6, lr}
10007d9a:	000c      	movs	r4, r1
10007d9c:	2101      	movs	r1, #1
10007d9e:	4d0f      	ldr	r5, [pc, #60]	; (10007ddc <usbd_edpt_release+0x44>)
10007da0:	4249      	negs	r1, r1
10007da2:	6828      	ldr	r0, [r5, #0]
10007da4:	f001 fcc8 	bl	10009738 <__mutex_enter_timeout_ms_veneer>
10007da8:	217f      	movs	r1, #127	; 0x7f
10007daa:	4021      	ands	r1, r4
10007dac:	004b      	lsls	r3, r1, #1
10007dae:	490c      	ldr	r1, [pc, #48]	; (10007de0 <usbd_edpt_release+0x48>)
10007db0:	09e4      	lsrs	r4, r4, #7
10007db2:	18c9      	adds	r1, r1, r3
10007db4:	1909      	adds	r1, r1, r4
10007db6:	3130      	adds	r1, #48	; 0x30
10007db8:	78cb      	ldrb	r3, [r1, #3]
10007dba:	2400      	movs	r4, #0
10007dbc:	07db      	lsls	r3, r3, #31
10007dbe:	d408      	bmi.n	10007dd2 <usbd_edpt_release+0x3a>
10007dc0:	78cb      	ldrb	r3, [r1, #3]
10007dc2:	075b      	lsls	r3, r3, #29
10007dc4:	0fdc      	lsrs	r4, r3, #31
10007dc6:	2b00      	cmp	r3, #0
10007dc8:	da03      	bge.n	10007dd2 <usbd_edpt_release+0x3a>
10007dca:	2204      	movs	r2, #4
10007dcc:	78cb      	ldrb	r3, [r1, #3]
10007dce:	4393      	bics	r3, r2
10007dd0:	70cb      	strb	r3, [r1, #3]
10007dd2:	6828      	ldr	r0, [r5, #0]
10007dd4:	f001 fc90 	bl	100096f8 <__mutex_exit_veneer>
10007dd8:	0020      	movs	r0, r4
10007dda:	bd70      	pop	{r4, r5, r6, pc}
10007ddc:	20001228 	.word	0x20001228
10007de0:	200011d4 	.word	0x200011d4

10007de4 <usbd_edpt_xfer>:
10007de4:	b570      	push	{r4, r5, r6, lr}
10007de6:	247f      	movs	r4, #127	; 0x7f
10007de8:	400c      	ands	r4, r1
10007dea:	0065      	lsls	r5, r4, #1
10007dec:	4c0e      	ldr	r4, [pc, #56]	; (10007e28 <usbd_edpt_xfer+0x44>)
10007dee:	0006      	movs	r6, r0
10007df0:	1964      	adds	r4, r4, r5
10007df2:	09c8      	lsrs	r0, r1, #7
10007df4:	1824      	adds	r4, r4, r0
10007df6:	3430      	adds	r4, #48	; 0x30
10007df8:	78e5      	ldrb	r5, [r4, #3]
10007dfa:	2000      	movs	r0, #0
10007dfc:	07ed      	lsls	r5, r5, #31
10007dfe:	d500      	bpl.n	10007e02 <usbd_edpt_xfer+0x1e>
10007e00:	bd70      	pop	{r4, r5, r6, pc}
10007e02:	2501      	movs	r5, #1
10007e04:	78e0      	ldrb	r0, [r4, #3]
10007e06:	4328      	orrs	r0, r5
10007e08:	70e0      	strb	r0, [r4, #3]
10007e0a:	0030      	movs	r0, r6
10007e0c:	f7fe fefc 	bl	10006c08 <dcd_edpt_xfer>
10007e10:	2800      	cmp	r0, #0
10007e12:	d1f5      	bne.n	10007e00 <usbd_edpt_xfer+0x1c>
10007e14:	2201      	movs	r2, #1
10007e16:	78e3      	ldrb	r3, [r4, #3]
10007e18:	4393      	bics	r3, r2
10007e1a:	70e3      	strb	r3, [r4, #3]
10007e1c:	78e3      	ldrb	r3, [r4, #3]
10007e1e:	3203      	adds	r2, #3
10007e20:	4393      	bics	r3, r2
10007e22:	70e3      	strb	r3, [r4, #3]
10007e24:	e7ec      	b.n	10007e00 <usbd_edpt_xfer+0x1c>
10007e26:	46c0      	nop			; (mov r8, r8)
10007e28:	200011d4 	.word	0x200011d4

10007e2c <tud_control_status>:
10007e2c:	b570      	push	{r4, r5, r6, lr}
10007e2e:	4e0a      	ldr	r6, [pc, #40]	; (10007e58 <tud_control_status+0x2c>)
10007e30:	0005      	movs	r5, r0
10007e32:	2208      	movs	r2, #8
10007e34:	0030      	movs	r0, r6
10007e36:	000c      	movs	r4, r1
10007e38:	f7fd ffd6 	bl	10005de8 <__wrap___aeabi_memcpy>
10007e3c:	2100      	movs	r1, #0
10007e3e:	5661      	ldrsb	r1, [r4, r1]
10007e40:	2300      	movs	r3, #0
10007e42:	43c9      	mvns	r1, r1
10007e44:	0fc9      	lsrs	r1, r1, #31
10007e46:	0028      	movs	r0, r5
10007e48:	60f3      	str	r3, [r6, #12]
10007e4a:	2200      	movs	r2, #0
10007e4c:	01c9      	lsls	r1, r1, #7
10007e4e:	60b3      	str	r3, [r6, #8]
10007e50:	f7ff ffc8 	bl	10007de4 <usbd_edpt_xfer>
10007e54:	bd70      	pop	{r4, r5, r6, pc}
10007e56:	46c0      	nop			; (mov r8, r8)
10007e58:	20001178 	.word	0x20001178

10007e5c <tud_control_xfer>:
10007e5c:	b5f8      	push	{r3, r4, r5, r6, r7, lr}
10007e5e:	46ce      	mov	lr, r9
10007e60:	4647      	mov	r7, r8
10007e62:	4690      	mov	r8, r2
10007e64:	4e29      	ldr	r6, [pc, #164]	; (10007f0c <tud_control_xfer+0xb0>)
10007e66:	b580      	push	{r7, lr}
10007e68:	4681      	mov	r9, r0
10007e6a:	2208      	movs	r2, #8
10007e6c:	0030      	movs	r0, r6
10007e6e:	000d      	movs	r5, r1
10007e70:	001f      	movs	r7, r3
10007e72:	f7fd ffb9 	bl	10005de8 <__wrap___aeabi_memcpy>
10007e76:	4643      	mov	r3, r8
10007e78:	60b3      	str	r3, [r6, #8]
10007e7a:	2300      	movs	r3, #0
10007e7c:	81f3      	strh	r3, [r6, #14]
10007e7e:	79ec      	ldrb	r4, [r5, #7]
10007e80:	79ab      	ldrb	r3, [r5, #6]
10007e82:	0224      	lsls	r4, r4, #8
10007e84:	431c      	orrs	r4, r3
10007e86:	1c23      	adds	r3, r4, #0
10007e88:	42bc      	cmp	r4, r7
10007e8a:	d900      	bls.n	10007e8e <tud_control_xfer+0x32>
10007e8c:	1c3b      	adds	r3, r7, #0
10007e8e:	b29f      	uxth	r7, r3
10007e90:	81b3      	strh	r3, [r6, #12]
10007e92:	2c00      	cmp	r4, #0
10007e94:	d012      	beq.n	10007ebc <tud_control_xfer+0x60>
10007e96:	2f00      	cmp	r7, #0
10007e98:	d01e      	beq.n	10007ed8 <tud_control_xfer+0x7c>
10007e9a:	4643      	mov	r3, r8
10007e9c:	2b00      	cmp	r3, #0
10007e9e:	d032      	beq.n	10007f06 <tud_control_xfer+0xaa>
10007ea0:	1c3b      	adds	r3, r7, #0
10007ea2:	2f40      	cmp	r7, #64	; 0x40
10007ea4:	d81e      	bhi.n	10007ee4 <tud_control_xfer+0x88>
10007ea6:	b29f      	uxth	r7, r3
10007ea8:	7833      	ldrb	r3, [r6, #0]
10007eaa:	2b7f      	cmp	r3, #127	; 0x7f
10007eac:	d81f      	bhi.n	10007eee <tud_control_xfer+0x92>
10007eae:	2100      	movs	r1, #0
10007eb0:	4a17      	ldr	r2, [pc, #92]	; (10007f10 <tud_control_xfer+0xb4>)
10007eb2:	003b      	movs	r3, r7
10007eb4:	4648      	mov	r0, r9
10007eb6:	f7ff ff95 	bl	10007de4 <usbd_edpt_xfer>
10007eba:	e009      	b.n	10007ed0 <tud_control_xfer+0x74>
10007ebc:	2100      	movs	r1, #0
10007ebe:	5669      	ldrsb	r1, [r5, r1]
10007ec0:	2300      	movs	r3, #0
10007ec2:	43c9      	mvns	r1, r1
10007ec4:	0fc9      	lsrs	r1, r1, #31
10007ec6:	2200      	movs	r2, #0
10007ec8:	4648      	mov	r0, r9
10007eca:	01c9      	lsls	r1, r1, #7
10007ecc:	f7ff ff8a 	bl	10007de4 <usbd_edpt_xfer>
10007ed0:	bc0c      	pop	{r2, r3}
10007ed2:	4690      	mov	r8, r2
10007ed4:	4699      	mov	r9, r3
10007ed6:	bdf8      	pop	{r3, r4, r5, r6, r7, pc}
10007ed8:	7833      	ldrb	r3, [r6, #0]
10007eda:	2b7f      	cmp	r3, #127	; 0x7f
10007edc:	d910      	bls.n	10007f00 <tud_control_xfer+0xa4>
10007ede:	2180      	movs	r1, #128	; 0x80
10007ee0:	2200      	movs	r2, #0
10007ee2:	e7e6      	b.n	10007eb2 <tud_control_xfer+0x56>
10007ee4:	2340      	movs	r3, #64	; 0x40
10007ee6:	b29f      	uxth	r7, r3
10007ee8:	7833      	ldrb	r3, [r6, #0]
10007eea:	2b7f      	cmp	r3, #127	; 0x7f
10007eec:	d9df      	bls.n	10007eae <tud_control_xfer+0x52>
10007eee:	4c08      	ldr	r4, [pc, #32]	; (10007f10 <tud_control_xfer+0xb4>)
10007ef0:	003a      	movs	r2, r7
10007ef2:	4641      	mov	r1, r8
10007ef4:	0020      	movs	r0, r4
10007ef6:	f7fd ff77 	bl	10005de8 <__wrap___aeabi_memcpy>
10007efa:	2180      	movs	r1, #128	; 0x80
10007efc:	0022      	movs	r2, r4
10007efe:	e7d8      	b.n	10007eb2 <tud_control_xfer+0x56>
10007f00:	2100      	movs	r1, #0
10007f02:	2200      	movs	r2, #0
10007f04:	e7d5      	b.n	10007eb2 <tud_control_xfer+0x56>
10007f06:	2000      	movs	r0, #0
10007f08:	e7e2      	b.n	10007ed0 <tud_control_xfer+0x74>
10007f0a:	46c0      	nop			; (mov r8, r8)
10007f0c:	20001178 	.word	0x20001178
10007f10:	20001194 	.word	0x20001194

10007f14 <usbd_control_reset>:
10007f14:	b510      	push	{r4, lr}
10007f16:	2214      	movs	r2, #20
10007f18:	2100      	movs	r1, #0
10007f1a:	4802      	ldr	r0, [pc, #8]	; (10007f24 <usbd_control_reset+0x10>)
10007f1c:	f7fd ff5e 	bl	10005ddc <__wrap_memset>
10007f20:	bd10      	pop	{r4, pc}
10007f22:	46c0      	nop			; (mov r8, r8)
10007f24:	20001178 	.word	0x20001178

10007f28 <usbd_control_set_complete_callback>:
10007f28:	4b01      	ldr	r3, [pc, #4]	; (10007f30 <usbd_control_set_complete_callback+0x8>)
10007f2a:	6118      	str	r0, [r3, #16]
10007f2c:	4770      	bx	lr
10007f2e:	46c0      	nop			; (mov r8, r8)
10007f30:	20001178 	.word	0x20001178

10007f34 <usbd_control_set_request>:
10007f34:	b510      	push	{r4, lr}
10007f36:	4c05      	ldr	r4, [pc, #20]	; (10007f4c <usbd_control_set_request+0x18>)
10007f38:	0001      	movs	r1, r0
10007f3a:	2208      	movs	r2, #8
10007f3c:	0020      	movs	r0, r4
10007f3e:	f7fd ff53 	bl	10005de8 <__wrap___aeabi_memcpy>
10007f42:	2300      	movs	r3, #0
10007f44:	60a3      	str	r3, [r4, #8]
10007f46:	60e3      	str	r3, [r4, #12]
10007f48:	bd10      	pop	{r4, pc}
10007f4a:	46c0      	nop			; (mov r8, r8)
10007f4c:	20001178 	.word	0x20001178

10007f50 <usbd_control_xfer_cb>:
10007f50:	b5f8      	push	{r3, r4, r5, r6, r7, lr}
10007f52:	4c3a      	ldr	r4, [pc, #232]	; (1000803c <usbd_control_xfer_cb+0xec>)
10007f54:	001d      	movs	r5, r3
10007f56:	7823      	ldrb	r3, [r4, #0]
10007f58:	0006      	movs	r6, r0
10007f5a:	09da      	lsrs	r2, r3, #7
10007f5c:	09c9      	lsrs	r1, r1, #7
10007f5e:	428a      	cmp	r2, r1
10007f60:	d013      	beq.n	10007f8a <usbd_control_xfer_cb+0x3a>
10007f62:	2000      	movs	r0, #0
10007f64:	2d00      	cmp	r5, #0
10007f66:	d000      	beq.n	10007f6a <usbd_control_xfer_cb+0x1a>
10007f68:	bdf8      	pop	{r3, r4, r5, r6, r7, pc}
10007f6a:	4b35      	ldr	r3, [pc, #212]	; (10008040 <usbd_control_xfer_cb+0xf0>)
10007f6c:	2b00      	cmp	r3, #0
10007f6e:	d003      	beq.n	10007f78 <usbd_control_xfer_cb+0x28>
10007f70:	0021      	movs	r1, r4
10007f72:	0030      	movs	r0, r6
10007f74:	f7fe fd64 	bl	10006a40 <dcd_edpt0_status_complete>
10007f78:	6923      	ldr	r3, [r4, #16]
10007f7a:	2b00      	cmp	r3, #0
10007f7c:	d043      	beq.n	10008006 <usbd_control_xfer_cb+0xb6>
10007f7e:	0022      	movs	r2, r4
10007f80:	2102      	movs	r1, #2
10007f82:	0030      	movs	r0, r6
10007f84:	4798      	blx	r3
10007f86:	2001      	movs	r0, #1
10007f88:	e7ee      	b.n	10007f68 <usbd_control_xfer_cb+0x18>
10007f8a:	2b7f      	cmp	r3, #127	; 0x7f
10007f8c:	d806      	bhi.n	10007f9c <usbd_control_xfer_cb+0x4c>
10007f8e:	68a0      	ldr	r0, [r4, #8]
10007f90:	2800      	cmp	r0, #0
10007f92:	d036      	beq.n	10008002 <usbd_control_xfer_cb+0xb2>
10007f94:	002a      	movs	r2, r5
10007f96:	492b      	ldr	r1, [pc, #172]	; (10008044 <usbd_control_xfer_cb+0xf4>)
10007f98:	f7fd ff26 	bl	10005de8 <__wrap___aeabi_memcpy>
10007f9c:	68a3      	ldr	r3, [r4, #8]
10007f9e:	89e2      	ldrh	r2, [r4, #14]
10007fa0:	1959      	adds	r1, r3, r5
10007fa2:	1952      	adds	r2, r2, r5
10007fa4:	88e3      	ldrh	r3, [r4, #6]
10007fa6:	b292      	uxth	r2, r2
10007fa8:	81e2      	strh	r2, [r4, #14]
10007faa:	60a1      	str	r1, [r4, #8]
10007fac:	4293      	cmp	r3, r2
10007fae:	d014      	beq.n	10007fda <usbd_control_xfer_cb+0x8a>
10007fb0:	2d3f      	cmp	r5, #63	; 0x3f
10007fb2:	d912      	bls.n	10007fda <usbd_control_xfer_cb+0x8a>
10007fb4:	89a5      	ldrh	r5, [r4, #12]
10007fb6:	1aa8      	subs	r0, r5, r2
10007fb8:	1c07      	adds	r7, r0, #0
10007fba:	b280      	uxth	r0, r0
10007fbc:	2840      	cmp	r0, #64	; 0x40
10007fbe:	d82e      	bhi.n	1000801e <usbd_control_xfer_cb+0xce>
10007fc0:	7823      	ldrb	r3, [r4, #0]
10007fc2:	b2bf      	uxth	r7, r7
10007fc4:	2b7f      	cmp	r3, #127	; 0x7f
10007fc6:	d82c      	bhi.n	10008022 <usbd_control_xfer_cb+0xd2>
10007fc8:	2100      	movs	r1, #0
10007fca:	42aa      	cmp	r2, r5
10007fcc:	d034      	beq.n	10008038 <usbd_control_xfer_cb+0xe8>
10007fce:	4a1d      	ldr	r2, [pc, #116]	; (10008044 <usbd_control_xfer_cb+0xf4>)
10007fd0:	003b      	movs	r3, r7
10007fd2:	0030      	movs	r0, r6
10007fd4:	f7ff ff06 	bl	10007de4 <usbd_edpt_xfer>
10007fd8:	e7c6      	b.n	10007f68 <usbd_control_xfer_cb+0x18>
10007fda:	6923      	ldr	r3, [r4, #16]
10007fdc:	2b00      	cmp	r3, #0
10007fde:	d005      	beq.n	10007fec <usbd_control_xfer_cb+0x9c>
10007fe0:	0022      	movs	r2, r4
10007fe2:	2101      	movs	r1, #1
10007fe4:	0030      	movs	r0, r6
10007fe6:	4798      	blx	r3
10007fe8:	2800      	cmp	r0, #0
10007fea:	d00e      	beq.n	1000800a <usbd_control_xfer_cb+0xba>
10007fec:	2100      	movs	r1, #0
10007fee:	5661      	ldrsb	r1, [r4, r1]
10007ff0:	2300      	movs	r3, #0
10007ff2:	43c9      	mvns	r1, r1
10007ff4:	0fc9      	lsrs	r1, r1, #31
10007ff6:	2200      	movs	r2, #0
10007ff8:	0030      	movs	r0, r6
10007ffa:	01c9      	lsls	r1, r1, #7
10007ffc:	f7ff fef2 	bl	10007de4 <usbd_edpt_xfer>
10008000:	e7b2      	b.n	10007f68 <usbd_control_xfer_cb+0x18>
10008002:	2000      	movs	r0, #0
10008004:	e7b0      	b.n	10007f68 <usbd_control_xfer_cb+0x18>
10008006:	2001      	movs	r0, #1
10008008:	e7ae      	b.n	10007f68 <usbd_control_xfer_cb+0x18>
1000800a:	2100      	movs	r1, #0
1000800c:	0030      	movs	r0, r6
1000800e:	f7fe fe0d 	bl	10006c2c <dcd_edpt_stall>
10008012:	0030      	movs	r0, r6
10008014:	2180      	movs	r1, #128	; 0x80
10008016:	f7fe fe09 	bl	10006c2c <dcd_edpt_stall>
1000801a:	2001      	movs	r0, #1
1000801c:	e7a4      	b.n	10007f68 <usbd_control_xfer_cb+0x18>
1000801e:	2740      	movs	r7, #64	; 0x40
10008020:	e7ce      	b.n	10007fc0 <usbd_control_xfer_cb+0x70>
10008022:	42aa      	cmp	r2, r5
10008024:	d007      	beq.n	10008036 <usbd_control_xfer_cb+0xe6>
10008026:	4c07      	ldr	r4, [pc, #28]	; (10008044 <usbd_control_xfer_cb+0xf4>)
10008028:	003a      	movs	r2, r7
1000802a:	0020      	movs	r0, r4
1000802c:	f7fd fedc 	bl	10005de8 <__wrap___aeabi_memcpy>
10008030:	2180      	movs	r1, #128	; 0x80
10008032:	0022      	movs	r2, r4
10008034:	e7cc      	b.n	10007fd0 <usbd_control_xfer_cb+0x80>
10008036:	2180      	movs	r1, #128	; 0x80
10008038:	2200      	movs	r2, #0
1000803a:	e7c9      	b.n	10007fd0 <usbd_control_xfer_cb+0x80>
1000803c:	20001178 	.word	0x20001178
10008040:	10006a41 	.word	0x10006a41
10008044:	20001194 	.word	0x20001194

10008048 <tud_cdc_n_connected>:
10008048:	b510      	push	{r4, lr}
1000804a:	0004      	movs	r4, r0
1000804c:	f7ff f80c 	bl	10007068 <tud_mounted>
10008050:	2800      	cmp	r0, #0
10008052:	d101      	bne.n	10008058 <tud_cdc_n_connected+0x10>
10008054:	2000      	movs	r0, #0
10008056:	bd10      	pop	{r4, pc}
10008058:	f7ff f80e 	bl	10007078 <tud_suspended>
1000805c:	2800      	cmp	r0, #0
1000805e:	d1f9      	bne.n	10008054 <tud_cdc_n_connected+0xc>
10008060:	20b6      	movs	r0, #182	; 0xb6
10008062:	0080      	lsls	r0, r0, #2
10008064:	4344      	muls	r4, r0
10008066:	4803      	ldr	r0, [pc, #12]	; (10008074 <tud_cdc_n_connected+0x2c>)
10008068:	1900      	adds	r0, r0, r4
1000806a:	7903      	ldrb	r3, [r0, #4]
1000806c:	2001      	movs	r0, #1
1000806e:	4018      	ands	r0, r3
10008070:	e7f1      	b.n	10008056 <tud_cdc_n_connected+0xe>
10008072:	46c0      	nop			; (mov r8, r8)
10008074:	20000ea0 	.word	0x20000ea0

10008078 <tud_cdc_n_available>:
10008078:	23b6      	movs	r3, #182	; 0xb6
1000807a:	009b      	lsls	r3, r3, #2
1000807c:	4358      	muls	r0, r3
1000807e:	b510      	push	{r4, lr}
10008080:	4b02      	ldr	r3, [pc, #8]	; (1000808c <tud_cdc_n_available+0x14>)
10008082:	3010      	adds	r0, #16
10008084:	18c0      	adds	r0, r0, r3
10008086:	f000 fb39 	bl	100086fc <tu_fifo_count>
1000808a:	bd10      	pop	{r4, pc}
1000808c:	20000ea0 	.word	0x20000ea0

10008090 <tud_cdc_n_read>:
10008090:	b5f0      	push	{r4, r5, r6, r7, lr}
10008092:	25b6      	movs	r5, #182	; 0xb6
10008094:	00ad      	lsls	r5, r5, #2
10008096:	4345      	muls	r5, r0
10008098:	002c      	movs	r4, r5
1000809a:	46c6      	mov	lr, r8
1000809c:	4f17      	ldr	r7, [pc, #92]	; (100080fc <tud_cdc_n_read+0x6c>)
1000809e:	3410      	adds	r4, #16
100080a0:	19e4      	adds	r4, r4, r7
100080a2:	b500      	push	{lr}
100080a4:	0020      	movs	r0, r4
100080a6:	b292      	uxth	r2, r2
100080a8:	f000 fb9c 	bl	100087e4 <tu_fifo_read_n>
100080ac:	0006      	movs	r6, r0
100080ae:	0020      	movs	r0, r4
100080b0:	f000 fb3c 	bl	1000872c <tu_fifo_remaining>
100080b4:	283f      	cmp	r0, #63	; 0x3f
100080b6:	d803      	bhi.n	100080c0 <tud_cdc_n_read+0x30>
100080b8:	0030      	movs	r0, r6
100080ba:	bc04      	pop	{r2}
100080bc:	4690      	mov	r8, r2
100080be:	bdf0      	pop	{r4, r5, r6, r7, pc}
100080c0:	197b      	adds	r3, r7, r5
100080c2:	2000      	movs	r0, #0
100080c4:	78d9      	ldrb	r1, [r3, #3]
100080c6:	4698      	mov	r8, r3
100080c8:	f7ff fe34 	bl	10007d34 <usbd_edpt_claim>
100080cc:	2800      	cmp	r0, #0
100080ce:	d0f3      	beq.n	100080b8 <tud_cdc_n_read+0x28>
100080d0:	0020      	movs	r0, r4
100080d2:	f000 fb2b 	bl	1000872c <tu_fifo_remaining>
100080d6:	283f      	cmp	r0, #63	; 0x3f
100080d8:	d90a      	bls.n	100080f0 <tud_cdc_n_read+0x60>
100080da:	2396      	movs	r3, #150	; 0x96
100080dc:	009b      	lsls	r3, r3, #2
100080de:	18ea      	adds	r2, r5, r3
100080e0:	4643      	mov	r3, r8
100080e2:	19d2      	adds	r2, r2, r7
100080e4:	78d9      	ldrb	r1, [r3, #3]
100080e6:	2000      	movs	r0, #0
100080e8:	2340      	movs	r3, #64	; 0x40
100080ea:	f7ff fe7b 	bl	10007de4 <usbd_edpt_xfer>
100080ee:	e7e3      	b.n	100080b8 <tud_cdc_n_read+0x28>
100080f0:	4643      	mov	r3, r8
100080f2:	2000      	movs	r0, #0
100080f4:	78d9      	ldrb	r1, [r3, #3]
100080f6:	f7ff fe4f 	bl	10007d98 <usbd_edpt_release>
100080fa:	e7dd      	b.n	100080b8 <tud_cdc_n_read+0x28>
100080fc:	20000ea0 	.word	0x20000ea0

10008100 <tud_cdc_n_write_flush>:
10008100:	b5f8      	push	{r3, r4, r5, r6, r7, lr}
10008102:	0004      	movs	r4, r0
10008104:	f7fe ffb0 	bl	10007068 <tud_mounted>
10008108:	2800      	cmp	r0, #0
1000810a:	d101      	bne.n	10008110 <tud_cdc_n_write_flush+0x10>
1000810c:	2000      	movs	r0, #0
1000810e:	bdf8      	pop	{r3, r4, r5, r6, r7, pc}
10008110:	f7fe ffb2 	bl	10007078 <tud_suspended>
10008114:	2800      	cmp	r0, #0
10008116:	d1f9      	bne.n	1000810c <tud_cdc_n_write_flush+0xc>
10008118:	20b6      	movs	r0, #182	; 0xb6
1000811a:	0080      	lsls	r0, r0, #2
1000811c:	4344      	muls	r4, r0
1000811e:	0025      	movs	r5, r4
10008120:	4e14      	ldr	r6, [pc, #80]	; (10008174 <tud_cdc_n_write_flush+0x74>)
10008122:	352c      	adds	r5, #44	; 0x2c
10008124:	19ad      	adds	r5, r5, r6
10008126:	0028      	movs	r0, r5
10008128:	f000 fae8 	bl	100086fc <tu_fifo_count>
1000812c:	2800      	cmp	r0, #0
1000812e:	d0ed      	beq.n	1000810c <tud_cdc_n_write_flush+0xc>
10008130:	1937      	adds	r7, r6, r4
10008132:	2000      	movs	r0, #0
10008134:	78b9      	ldrb	r1, [r7, #2]
10008136:	f7ff fdfd 	bl	10007d34 <usbd_edpt_claim>
1000813a:	2800      	cmp	r0, #0
1000813c:	d0e6      	beq.n	1000810c <tud_cdc_n_write_flush+0xc>
1000813e:	23a6      	movs	r3, #166	; 0xa6
10008140:	009b      	lsls	r3, r3, #2
10008142:	469c      	mov	ip, r3
10008144:	4464      	add	r4, ip
10008146:	19a4      	adds	r4, r4, r6
10008148:	0021      	movs	r1, r4
1000814a:	0028      	movs	r0, r5
1000814c:	2240      	movs	r2, #64	; 0x40
1000814e:	f000 fb49 	bl	100087e4 <tu_fifo_read_n>
10008152:	78b9      	ldrb	r1, [r7, #2]
10008154:	1e05      	subs	r5, r0, #0
10008156:	d008      	beq.n	1000816a <tud_cdc_n_write_flush+0x6a>
10008158:	0003      	movs	r3, r0
1000815a:	0022      	movs	r2, r4
1000815c:	2000      	movs	r0, #0
1000815e:	f7ff fe41 	bl	10007de4 <usbd_edpt_xfer>
10008162:	2800      	cmp	r0, #0
10008164:	d0d2      	beq.n	1000810c <tud_cdc_n_write_flush+0xc>
10008166:	0028      	movs	r0, r5
10008168:	e7d1      	b.n	1000810e <tud_cdc_n_write_flush+0xe>
1000816a:	2000      	movs	r0, #0
1000816c:	f7ff fe14 	bl	10007d98 <usbd_edpt_release>
10008170:	e7cc      	b.n	1000810c <tud_cdc_n_write_flush+0xc>
10008172:	46c0      	nop			; (mov r8, r8)
10008174:	20000ea0 	.word	0x20000ea0

10008178 <tud_cdc_n_write>:
10008178:	b570      	push	{r4, r5, r6, lr}
1000817a:	24b6      	movs	r4, #182	; 0xb6
1000817c:	00a4      	lsls	r4, r4, #2
1000817e:	4344      	muls	r4, r0
10008180:	4b09      	ldr	r3, [pc, #36]	; (100081a8 <tud_cdc_n_write+0x30>)
10008182:	342c      	adds	r4, #44	; 0x2c
10008184:	18e4      	adds	r4, r4, r3
10008186:	0005      	movs	r5, r0
10008188:	b292      	uxth	r2, r2
1000818a:	0020      	movs	r0, r4
1000818c:	f000 fbe8 	bl	10008960 <tu_fifo_write_n>
10008190:	0006      	movs	r6, r0
10008192:	0020      	movs	r0, r4
10008194:	f000 fab2 	bl	100086fc <tu_fifo_count>
10008198:	283f      	cmp	r0, #63	; 0x3f
1000819a:	d801      	bhi.n	100081a0 <tud_cdc_n_write+0x28>
1000819c:	0030      	movs	r0, r6
1000819e:	bd70      	pop	{r4, r5, r6, pc}
100081a0:	0028      	movs	r0, r5
100081a2:	f7ff ffad 	bl	10008100 <tud_cdc_n_write_flush>
100081a6:	e7f9      	b.n	1000819c <tud_cdc_n_write+0x24>
100081a8:	20000ea0 	.word	0x20000ea0

100081ac <tud_cdc_n_write_available>:
100081ac:	23b6      	movs	r3, #182	; 0xb6
100081ae:	009b      	lsls	r3, r3, #2
100081b0:	4358      	muls	r0, r3
100081b2:	b510      	push	{r4, lr}
100081b4:	4b02      	ldr	r3, [pc, #8]	; (100081c0 <tud_cdc_n_write_available+0x14>)
100081b6:	302c      	adds	r0, #44	; 0x2c
100081b8:	18c0      	adds	r0, r0, r3
100081ba:	f000 fab7 	bl	1000872c <tu_fifo_remaining>
100081be:	bd10      	pop	{r4, pc}
100081c0:	20000ea0 	.word	0x20000ea0

100081c4 <cdcd_init>:
100081c4:	22b6      	movs	r2, #182	; 0xb6
100081c6:	b5f0      	push	{r4, r5, r6, r7, lr}
100081c8:	4c1b      	ldr	r4, [pc, #108]	; (10008238 <cdcd_init+0x74>)
100081ca:	b083      	sub	sp, #12
100081cc:	2100      	movs	r1, #0
100081ce:	0020      	movs	r0, r4
100081d0:	0092      	lsls	r2, r2, #2
100081d2:	f7fd fe03 	bl	10005ddc <__wrap_memset>
100081d6:	23ff      	movs	r3, #255	; 0xff
100081d8:	7163      	strb	r3, [r4, #5]
100081da:	4b18      	ldr	r3, [pc, #96]	; (1000823c <cdcd_init+0x78>)
100081dc:	2680      	movs	r6, #128	; 0x80
100081de:	2500      	movs	r5, #0
100081e0:	80e3      	strh	r3, [r4, #6]
100081e2:	2701      	movs	r7, #1
100081e4:	2308      	movs	r3, #8
100081e6:	0021      	movs	r1, r4
100081e8:	0020      	movs	r0, r4
100081ea:	0076      	lsls	r6, r6, #1
100081ec:	7323      	strb	r3, [r4, #12]
100081ee:	0032      	movs	r2, r6
100081f0:	8127      	strh	r7, [r4, #8]
100081f2:	8165      	strh	r5, [r4, #10]
100081f4:	3148      	adds	r1, #72	; 0x48
100081f6:	9500      	str	r5, [sp, #0]
100081f8:	3b07      	subs	r3, #7
100081fa:	3010      	adds	r0, #16
100081fc:	f000 fa42 	bl	10008684 <tu_fifo_config>
10008200:	0021      	movs	r1, r4
10008202:	0020      	movs	r0, r4
10008204:	3149      	adds	r1, #73	; 0x49
10008206:	0032      	movs	r2, r6
10008208:	31ff      	adds	r1, #255	; 0xff
1000820a:	2301      	movs	r3, #1
1000820c:	9700      	str	r7, [sp, #0]
1000820e:	302c      	adds	r0, #44	; 0x2c
10008210:	f000 fa38 	bl	10008684 <tu_fifo_config>
10008214:	2392      	movs	r3, #146	; 0x92
10008216:	009b      	lsls	r3, r3, #2
10008218:	18e6      	adds	r6, r4, r3
1000821a:	0030      	movs	r0, r6
1000821c:	f7fa fd1a 	bl	10002c54 <mutex_init>
10008220:	2394      	movs	r3, #148	; 0x94
10008222:	009b      	lsls	r3, r3, #2
10008224:	62a6      	str	r6, [r4, #40]	; 0x28
10008226:	18e6      	adds	r6, r4, r3
10008228:	0030      	movs	r0, r6
1000822a:	6265      	str	r5, [r4, #36]	; 0x24
1000822c:	f7fa fd12 	bl	10002c54 <mutex_init>
10008230:	6426      	str	r6, [r4, #64]	; 0x40
10008232:	6465      	str	r5, [r4, #68]	; 0x44
10008234:	b003      	add	sp, #12
10008236:	bdf0      	pop	{r4, r5, r6, r7, pc}
10008238:	20000ea0 	.word	0x20000ea0
1000823c:	ffffc200 	.word	0xffffc200

10008240 <cdcd_reset>:
10008240:	b510      	push	{r4, lr}
10008242:	4c09      	ldr	r4, [pc, #36]	; (10008268 <cdcd_reset+0x28>)
10008244:	2205      	movs	r2, #5
10008246:	2100      	movs	r1, #0
10008248:	0020      	movs	r0, r4
1000824a:	f7fd fdc7 	bl	10005ddc <__wrap_memset>
1000824e:	0020      	movs	r0, r4
10008250:	342c      	adds	r4, #44	; 0x2c
10008252:	3010      	adds	r0, #16
10008254:	f000 fc00 	bl	10008a58 <tu_fifo_clear>
10008258:	0020      	movs	r0, r4
1000825a:	f000 fbfd 	bl	10008a58 <tu_fifo_clear>
1000825e:	2101      	movs	r1, #1
10008260:	0020      	movs	r0, r4
10008262:	f000 fc1f 	bl	10008aa4 <tu_fifo_set_overwritable>
10008266:	bd10      	pop	{r4, pc}
10008268:	20000ea0 	.word	0x20000ea0

1000826c <cdcd_open>:
1000826c:	b5f0      	push	{r4, r5, r6, r7, lr}
1000826e:	794b      	ldrb	r3, [r1, #5]
10008270:	0006      	movs	r6, r0
10008272:	b083      	sub	sp, #12
10008274:	2b02      	cmp	r3, #2
10008276:	d102      	bne.n	1000827e <cdcd_open+0x12>
10008278:	798b      	ldrb	r3, [r1, #6]
1000827a:	2b02      	cmp	r3, #2
1000827c:	d003      	beq.n	10008286 <cdcd_open+0x1a>
1000827e:	2500      	movs	r5, #0
10008280:	0028      	movs	r0, r5
10008282:	b003      	add	sp, #12
10008284:	bdf0      	pop	{r4, r5, r6, r7, pc}
10008286:	4f2f      	ldr	r7, [pc, #188]	; (10008344 <cdcd_open+0xd8>)
10008288:	78bb      	ldrb	r3, [r7, #2]
1000828a:	2b00      	cmp	r3, #0
1000828c:	d1f7      	bne.n	1000827e <cdcd_open+0x12>
1000828e:	788b      	ldrb	r3, [r1, #2]
10008290:	2509      	movs	r5, #9
10008292:	703b      	strb	r3, [r7, #0]
10008294:	780c      	ldrb	r4, [r1, #0]
10008296:	190c      	adds	r4, r1, r4
10008298:	7863      	ldrb	r3, [r4, #1]
1000829a:	2b24      	cmp	r3, #36	; 0x24
1000829c:	d10b      	bne.n	100082b6 <cdcd_open+0x4a>
1000829e:	2a08      	cmp	r2, #8
100082a0:	d802      	bhi.n	100082a8 <cdcd_open+0x3c>
100082a2:	e00f      	b.n	100082c4 <cdcd_open+0x58>
100082a4:	42aa      	cmp	r2, r5
100082a6:	d30d      	bcc.n	100082c4 <cdcd_open+0x58>
100082a8:	7823      	ldrb	r3, [r4, #0]
100082aa:	18e4      	adds	r4, r4, r3
100082ac:	18ed      	adds	r5, r5, r3
100082ae:	7863      	ldrb	r3, [r4, #1]
100082b0:	b2ad      	uxth	r5, r5
100082b2:	2b24      	cmp	r3, #36	; 0x24
100082b4:	d0f6      	beq.n	100082a4 <cdcd_open+0x38>
100082b6:	2b05      	cmp	r3, #5
100082b8:	d020      	beq.n	100082fc <cdcd_open+0x90>
100082ba:	2b04      	cmp	r3, #4
100082bc:	d102      	bne.n	100082c4 <cdcd_open+0x58>
100082be:	7963      	ldrb	r3, [r4, #5]
100082c0:	2b0a      	cmp	r3, #10
100082c2:	d02e      	beq.n	10008322 <cdcd_open+0xb6>
100082c4:	4c20      	ldr	r4, [pc, #128]	; (10008348 <cdcd_open+0xdc>)
100082c6:	0020      	movs	r0, r4
100082c8:	f000 fa30 	bl	1000872c <tu_fifo_remaining>
100082cc:	283f      	cmp	r0, #63	; 0x3f
100082ce:	d9d7      	bls.n	10008280 <cdcd_open+0x14>
100082d0:	0026      	movs	r6, r4
100082d2:	3e10      	subs	r6, #16
100082d4:	2000      	movs	r0, #0
100082d6:	78f1      	ldrb	r1, [r6, #3]
100082d8:	f7ff fd2c 	bl	10007d34 <usbd_edpt_claim>
100082dc:	2800      	cmp	r0, #0
100082de:	d0cf      	beq.n	10008280 <cdcd_open+0x14>
100082e0:	0020      	movs	r0, r4
100082e2:	f000 fa23 	bl	1000872c <tu_fifo_remaining>
100082e6:	283f      	cmp	r0, #63	; 0x3f
100082e8:	d916      	bls.n	10008318 <cdcd_open+0xac>
100082ea:	2392      	movs	r3, #146	; 0x92
100082ec:	009b      	lsls	r3, r3, #2
100082ee:	18e2      	adds	r2, r4, r3
100082f0:	78f1      	ldrb	r1, [r6, #3]
100082f2:	2340      	movs	r3, #64	; 0x40
100082f4:	2000      	movs	r0, #0
100082f6:	f7ff fd75 	bl	10007de4 <usbd_edpt_xfer>
100082fa:	e7c1      	b.n	10008280 <cdcd_open+0x14>
100082fc:	0021      	movs	r1, r4
100082fe:	0030      	movs	r0, r6
10008300:	f7ff fd00 	bl	10007d04 <usbd_edpt_open>
10008304:	2800      	cmp	r0, #0
10008306:	d0ba      	beq.n	1000827e <cdcd_open+0x12>
10008308:	78a3      	ldrb	r3, [r4, #2]
1000830a:	707b      	strb	r3, [r7, #1]
1000830c:	7823      	ldrb	r3, [r4, #0]
1000830e:	18ed      	adds	r5, r5, r3
10008310:	18e4      	adds	r4, r4, r3
10008312:	7863      	ldrb	r3, [r4, #1]
10008314:	b2ad      	uxth	r5, r5
10008316:	e7d0      	b.n	100082ba <cdcd_open+0x4e>
10008318:	78f1      	ldrb	r1, [r6, #3]
1000831a:	2000      	movs	r0, #0
1000831c:	f7ff fd3c 	bl	10007d98 <usbd_edpt_release>
10008320:	e7ae      	b.n	10008280 <cdcd_open+0x14>
10008322:	4b0a      	ldr	r3, [pc, #40]	; (1000834c <cdcd_open+0xe0>)
10008324:	7827      	ldrb	r7, [r4, #0]
10008326:	9301      	str	r3, [sp, #4]
10008328:	3301      	adds	r3, #1
1000832a:	9300      	str	r3, [sp, #0]
1000832c:	2202      	movs	r2, #2
1000832e:	2302      	movs	r3, #2
10008330:	0030      	movs	r0, r6
10008332:	19e1      	adds	r1, r4, r7
10008334:	f7ff fca6 	bl	10007c84 <usbd_open_edpt_pair>
10008338:	2800      	cmp	r0, #0
1000833a:	d0a0      	beq.n	1000827e <cdcd_open+0x12>
1000833c:	350e      	adds	r5, #14
1000833e:	19ed      	adds	r5, r5, r7
10008340:	b2ad      	uxth	r5, r5
10008342:	e7bf      	b.n	100082c4 <cdcd_open+0x58>
10008344:	20000ea0 	.word	0x20000ea0
10008348:	20000eb0 	.word	0x20000eb0
1000834c:	20000ea2 	.word	0x20000ea2

10008350 <cdcd_control_xfer_cb>:
10008350:	b5f8      	push	{r3, r4, r5, r6, r7, lr}
10008352:	2360      	movs	r3, #96	; 0x60
10008354:	0014      	movs	r4, r2
10008356:	7812      	ldrb	r2, [r2, #0]
10008358:	0005      	movs	r5, r0
1000835a:	4013      	ands	r3, r2
1000835c:	2000      	movs	r0, #0
1000835e:	2b20      	cmp	r3, #32
10008360:	d112      	bne.n	10008388 <cdcd_control_xfer_cb+0x38>
10008362:	4e2f      	ldr	r6, [pc, #188]	; (10008420 <cdcd_control_xfer_cb+0xd0>)
10008364:	7963      	ldrb	r3, [r4, #5]
10008366:	7927      	ldrb	r7, [r4, #4]
10008368:	7832      	ldrb	r2, [r6, #0]
1000836a:	021b      	lsls	r3, r3, #8
1000836c:	433b      	orrs	r3, r7
1000836e:	429a      	cmp	r2, r3
10008370:	d10a      	bne.n	10008388 <cdcd_control_xfer_cb+0x38>
10008372:	7863      	ldrb	r3, [r4, #1]
10008374:	2b22      	cmp	r3, #34	; 0x22
10008376:	d027      	beq.n	100083c8 <cdcd_control_xfer_cb+0x78>
10008378:	d807      	bhi.n	1000838a <cdcd_control_xfer_cb+0x3a>
1000837a:	2b20      	cmp	r3, #32
1000837c:	d017      	beq.n	100083ae <cdcd_control_xfer_cb+0x5e>
1000837e:	2b21      	cmp	r3, #33	; 0x21
10008380:	d102      	bne.n	10008388 <cdcd_control_xfer_cb+0x38>
10008382:	2900      	cmp	r1, #0
10008384:	d03e      	beq.n	10008404 <cdcd_control_xfer_cb+0xb4>
10008386:	2001      	movs	r0, #1
10008388:	bdf8      	pop	{r3, r4, r5, r6, r7, pc}
1000838a:	2b23      	cmp	r3, #35	; 0x23
1000838c:	d1fc      	bne.n	10008388 <cdcd_control_xfer_cb+0x38>
1000838e:	2900      	cmp	r1, #0
10008390:	d040      	beq.n	10008414 <cdcd_control_xfer_cb+0xc4>
10008392:	2902      	cmp	r1, #2
10008394:	d1f7      	bne.n	10008386 <cdcd_control_xfer_cb+0x36>
10008396:	4b23      	ldr	r3, [pc, #140]	; (10008424 <cdcd_control_xfer_cb+0xd4>)
10008398:	2b00      	cmp	r3, #0
1000839a:	d0f4      	beq.n	10008386 <cdcd_control_xfer_cb+0x36>
1000839c:	78e1      	ldrb	r1, [r4, #3]
1000839e:	78a3      	ldrb	r3, [r4, #2]
100083a0:	0209      	lsls	r1, r1, #8
100083a2:	2000      	movs	r0, #0
100083a4:	4319      	orrs	r1, r3
100083a6:	e000      	b.n	100083aa <cdcd_control_xfer_cb+0x5a>
100083a8:	bf00      	nop
100083aa:	2001      	movs	r0, #1
100083ac:	e7ec      	b.n	10008388 <cdcd_control_xfer_cb+0x38>
100083ae:	2900      	cmp	r1, #0
100083b0:	d028      	beq.n	10008404 <cdcd_control_xfer_cb+0xb4>
100083b2:	2902      	cmp	r1, #2
100083b4:	d1e7      	bne.n	10008386 <cdcd_control_xfer_cb+0x36>
100083b6:	4b1c      	ldr	r3, [pc, #112]	; (10008428 <cdcd_control_xfer_cb+0xd8>)
100083b8:	2b00      	cmp	r3, #0
100083ba:	d0e4      	beq.n	10008386 <cdcd_control_xfer_cb+0x36>
100083bc:	2000      	movs	r0, #0
100083be:	1db1      	adds	r1, r6, #6
100083c0:	f7fe f80e 	bl	100063e0 <tud_cdc_line_coding_cb>
100083c4:	2001      	movs	r0, #1
100083c6:	e7df      	b.n	10008388 <cdcd_control_xfer_cb+0x38>
100083c8:	2900      	cmp	r1, #0
100083ca:	d023      	beq.n	10008414 <cdcd_control_xfer_cb+0xc4>
100083cc:	2902      	cmp	r1, #2
100083ce:	d1da      	bne.n	10008386 <cdcd_control_xfer_cb+0x36>
100083d0:	2501      	movs	r5, #1
100083d2:	002f      	movs	r7, r5
100083d4:	0030      	movs	r0, r6
100083d6:	78a3      	ldrb	r3, [r4, #2]
100083d8:	78e4      	ldrb	r4, [r4, #3]
100083da:	3901      	subs	r1, #1
100083dc:	0224      	lsls	r4, r4, #8
100083de:	431c      	orrs	r4, r3
100083e0:	4027      	ands	r7, r4
100083e2:	7134      	strb	r4, [r6, #4]
100083e4:	4079      	eors	r1, r7
100083e6:	302c      	adds	r0, #44	; 0x2c
100083e8:	f000 fb5c 	bl	10008aa4 <tu_fifo_set_overwritable>
100083ec:	4b0f      	ldr	r3, [pc, #60]	; (1000842c <cdcd_control_xfer_cb+0xdc>)
100083ee:	2b00      	cmp	r3, #0
100083f0:	d0c9      	beq.n	10008386 <cdcd_control_xfer_cb+0x36>
100083f2:	002a      	movs	r2, r5
100083f4:	0864      	lsrs	r4, r4, #1
100083f6:	2000      	movs	r0, #0
100083f8:	0039      	movs	r1, r7
100083fa:	4022      	ands	r2, r4
100083fc:	e000      	b.n	10008400 <cdcd_control_xfer_cb+0xb0>
100083fe:	bf00      	nop
10008400:	2001      	movs	r0, #1
10008402:	e7c1      	b.n	10008388 <cdcd_control_xfer_cb+0x38>
10008404:	2307      	movs	r3, #7
10008406:	0021      	movs	r1, r4
10008408:	0028      	movs	r0, r5
1000840a:	4a09      	ldr	r2, [pc, #36]	; (10008430 <cdcd_control_xfer_cb+0xe0>)
1000840c:	f7ff fd26 	bl	10007e5c <tud_control_xfer>
10008410:	2001      	movs	r0, #1
10008412:	e7b9      	b.n	10008388 <cdcd_control_xfer_cb+0x38>
10008414:	0021      	movs	r1, r4
10008416:	0028      	movs	r0, r5
10008418:	f7ff fd08 	bl	10007e2c <tud_control_status>
1000841c:	2001      	movs	r0, #1
1000841e:	e7b3      	b.n	10008388 <cdcd_control_xfer_cb+0x38>
10008420:	20000ea0 	.word	0x20000ea0
10008424:	00000000 	.word	0x00000000
10008428:	100063e1 	.word	0x100063e1
1000842c:	00000000 	.word	0x00000000
10008430:	20000ea6 	.word	0x20000ea6

10008434 <cdcd_xfer_cb>:
10008434:	b5f8      	push	{r3, r4, r5, r6, r7, lr}
10008436:	4657      	mov	r7, sl
10008438:	464e      	mov	r6, r9
1000843a:	4645      	mov	r5, r8
1000843c:	46de      	mov	lr, fp
1000843e:	b5e0      	push	{r5, r6, r7, lr}
10008440:	4f5d      	ldr	r7, [pc, #372]	; (100085b8 <cdcd_xfer_cb+0x184>)
10008442:	4680      	mov	r8, r0
10008444:	78fa      	ldrb	r2, [r7, #3]
10008446:	000c      	movs	r4, r1
10008448:	001e      	movs	r6, r3
1000844a:	428a      	cmp	r2, r1
1000844c:	d165      	bne.n	1000851a <cdcd_xfer_cb+0xe6>
1000844e:	b29a      	uxth	r2, r3
10008450:	2396      	movs	r3, #150	; 0x96
10008452:	009b      	lsls	r3, r3, #2
10008454:	18fd      	adds	r5, r7, r3
10008456:	2310      	movs	r3, #16
10008458:	4699      	mov	r9, r3
1000845a:	44b9      	add	r9, r7
1000845c:	0029      	movs	r1, r5
1000845e:	4648      	mov	r0, r9
10008460:	f000 fa7e 	bl	10008960 <tu_fifo_write_n>
10008464:	4b55      	ldr	r3, [pc, #340]	; (100085bc <cdcd_xfer_cb+0x188>)
10008466:	2b00      	cmp	r3, #0
10008468:	d019      	beq.n	1000849e <cdcd_xfer_cb+0x6a>
1000846a:	797b      	ldrb	r3, [r7, #5]
1000846c:	2bff      	cmp	r3, #255	; 0xff
1000846e:	d016      	beq.n	1000849e <cdcd_xfer_cb+0x6a>
10008470:	2e00      	cmp	r6, #0
10008472:	d014      	beq.n	1000849e <cdcd_xfer_cb+0x6a>
10008474:	19aa      	adds	r2, r5, r6
10008476:	4692      	mov	sl, r2
10008478:	46bb      	mov	fp, r7
1000847a:	e003      	b.n	10008484 <cdcd_xfer_cb+0x50>
1000847c:	3501      	adds	r5, #1
1000847e:	4555      	cmp	r5, sl
10008480:	d00d      	beq.n	1000849e <cdcd_xfer_cb+0x6a>
10008482:	797b      	ldrb	r3, [r7, #5]
10008484:	782a      	ldrb	r2, [r5, #0]
10008486:	429a      	cmp	r2, r3
10008488:	d1f8      	bne.n	1000847c <cdcd_xfer_cb+0x48>
1000848a:	4648      	mov	r0, r9
1000848c:	f000 f946 	bl	1000871c <tu_fifo_empty>
10008490:	2800      	cmp	r0, #0
10008492:	d1f3      	bne.n	1000847c <cdcd_xfer_cb+0x48>
10008494:	465b      	mov	r3, fp
10008496:	7959      	ldrb	r1, [r3, #5]
10008498:	e000      	b.n	1000849c <cdcd_xfer_cb+0x68>
1000849a:	bf00      	nop
1000849c:	e7ee      	b.n	1000847c <cdcd_xfer_cb+0x48>
1000849e:	4b48      	ldr	r3, [pc, #288]	; (100085c0 <cdcd_xfer_cb+0x18c>)
100084a0:	2b00      	cmp	r3, #0
100084a2:	d005      	beq.n	100084b0 <cdcd_xfer_cb+0x7c>
100084a4:	4648      	mov	r0, r9
100084a6:	f000 f939 	bl	1000871c <tu_fifo_empty>
100084aa:	2800      	cmp	r0, #0
100084ac:	d100      	bne.n	100084b0 <cdcd_xfer_cb+0x7c>
100084ae:	e076      	b.n	1000859e <cdcd_xfer_cb+0x16a>
100084b0:	4648      	mov	r0, r9
100084b2:	f000 f93b 	bl	1000872c <tu_fifo_remaining>
100084b6:	283f      	cmp	r0, #63	; 0x3f
100084b8:	d858      	bhi.n	1000856c <cdcd_xfer_cb+0x138>
100084ba:	464a      	mov	r2, r9
100084bc:	3a10      	subs	r2, #16
100084be:	7893      	ldrb	r3, [r2, #2]
100084c0:	429c      	cmp	r4, r3
100084c2:	d007      	beq.n	100084d4 <cdcd_xfer_cb+0xa0>
100084c4:	2401      	movs	r4, #1
100084c6:	0020      	movs	r0, r4
100084c8:	bc3c      	pop	{r2, r3, r4, r5}
100084ca:	4690      	mov	r8, r2
100084cc:	4699      	mov	r9, r3
100084ce:	46a2      	mov	sl, r4
100084d0:	46ab      	mov	fp, r5
100084d2:	bdf8      	pop	{r3, r4, r5, r6, r7, pc}
100084d4:	4b3b      	ldr	r3, [pc, #236]	; (100085c4 <cdcd_xfer_cb+0x190>)
100084d6:	2b00      	cmp	r3, #0
100084d8:	d002      	beq.n	100084e0 <cdcd_xfer_cb+0xac>
100084da:	2000      	movs	r0, #0
100084dc:	e000      	b.n	100084e0 <cdcd_xfer_cb+0xac>
100084de:	bf00      	nop
100084e0:	f7fe fdc2 	bl	10007068 <tud_mounted>
100084e4:	2800      	cmp	r0, #0
100084e6:	d11d      	bne.n	10008524 <cdcd_xfer_cb+0xf0>
100084e8:	4c37      	ldr	r4, [pc, #220]	; (100085c8 <cdcd_xfer_cb+0x194>)
100084ea:	0020      	movs	r0, r4
100084ec:	f000 f906 	bl	100086fc <tu_fifo_count>
100084f0:	2800      	cmp	r0, #0
100084f2:	d1e7      	bne.n	100084c4 <cdcd_xfer_cb+0x90>
100084f4:	2e00      	cmp	r6, #0
100084f6:	d0e5      	beq.n	100084c4 <cdcd_xfer_cb+0x90>
100084f8:	06b3      	lsls	r3, r6, #26
100084fa:	d1e3      	bne.n	100084c4 <cdcd_xfer_cb+0x90>
100084fc:	3c2c      	subs	r4, #44	; 0x2c
100084fe:	78a1      	ldrb	r1, [r4, #2]
10008500:	4640      	mov	r0, r8
10008502:	f7ff fc17 	bl	10007d34 <usbd_edpt_claim>
10008506:	0025      	movs	r5, r4
10008508:	1e04      	subs	r4, r0, #0
1000850a:	d0db      	beq.n	100084c4 <cdcd_xfer_cb+0x90>
1000850c:	2300      	movs	r3, #0
1000850e:	2200      	movs	r2, #0
10008510:	4640      	mov	r0, r8
10008512:	78a9      	ldrb	r1, [r5, #2]
10008514:	f7ff fc66 	bl	10007de4 <usbd_edpt_xfer>
10008518:	e7d5      	b.n	100084c6 <cdcd_xfer_cb+0x92>
1000851a:	78bb      	ldrb	r3, [r7, #2]
1000851c:	428b      	cmp	r3, r1
1000851e:	d0d9      	beq.n	100084d4 <cdcd_xfer_cb+0xa0>
10008520:	2400      	movs	r4, #0
10008522:	e7d0      	b.n	100084c6 <cdcd_xfer_cb+0x92>
10008524:	f7fe fda8 	bl	10007078 <tud_suspended>
10008528:	4c27      	ldr	r4, [pc, #156]	; (100085c8 <cdcd_xfer_cb+0x194>)
1000852a:	2800      	cmp	r0, #0
1000852c:	d1dd      	bne.n	100084ea <cdcd_xfer_cb+0xb6>
1000852e:	0020      	movs	r0, r4
10008530:	f000 f8e4 	bl	100086fc <tu_fifo_count>
10008534:	2800      	cmp	r0, #0
10008536:	d0d8      	beq.n	100084ea <cdcd_xfer_cb+0xb6>
10008538:	0025      	movs	r5, r4
1000853a:	3d2c      	subs	r5, #44	; 0x2c
1000853c:	2000      	movs	r0, #0
1000853e:	78a9      	ldrb	r1, [r5, #2]
10008540:	f7ff fbf8 	bl	10007d34 <usbd_edpt_claim>
10008544:	2800      	cmp	r0, #0
10008546:	d0d0      	beq.n	100084ea <cdcd_xfer_cb+0xb6>
10008548:	239b      	movs	r3, #155	; 0x9b
1000854a:	009b      	lsls	r3, r3, #2
1000854c:	18e7      	adds	r7, r4, r3
1000854e:	0039      	movs	r1, r7
10008550:	2240      	movs	r2, #64	; 0x40
10008552:	0020      	movs	r0, r4
10008554:	f000 f946 	bl	100087e4 <tu_fifo_read_n>
10008558:	78a9      	ldrb	r1, [r5, #2]
1000855a:	1e03      	subs	r3, r0, #0
1000855c:	d028      	beq.n	100085b0 <cdcd_xfer_cb+0x17c>
1000855e:	003a      	movs	r2, r7
10008560:	2000      	movs	r0, #0
10008562:	f7ff fc3f 	bl	10007de4 <usbd_edpt_xfer>
10008566:	2800      	cmp	r0, #0
10008568:	d1ac      	bne.n	100084c4 <cdcd_xfer_cb+0x90>
1000856a:	e7be      	b.n	100084ea <cdcd_xfer_cb+0xb6>
1000856c:	464d      	mov	r5, r9
1000856e:	3d10      	subs	r5, #16
10008570:	2000      	movs	r0, #0
10008572:	78e9      	ldrb	r1, [r5, #3]
10008574:	f7ff fbde 	bl	10007d34 <usbd_edpt_claim>
10008578:	2800      	cmp	r0, #0
1000857a:	d101      	bne.n	10008580 <cdcd_xfer_cb+0x14c>
1000857c:	78ab      	ldrb	r3, [r5, #2]
1000857e:	e79f      	b.n	100084c0 <cdcd_xfer_cb+0x8c>
10008580:	4648      	mov	r0, r9
10008582:	f000 f8d3 	bl	1000872c <tu_fifo_remaining>
10008586:	283f      	cmp	r0, #63	; 0x3f
10008588:	d90c      	bls.n	100085a4 <cdcd_xfer_cb+0x170>
1000858a:	2292      	movs	r2, #146	; 0x92
1000858c:	0092      	lsls	r2, r2, #2
1000858e:	2340      	movs	r3, #64	; 0x40
10008590:	2000      	movs	r0, #0
10008592:	78e9      	ldrb	r1, [r5, #3]
10008594:	444a      	add	r2, r9
10008596:	f7ff fc25 	bl	10007de4 <usbd_edpt_xfer>
1000859a:	78ab      	ldrb	r3, [r5, #2]
1000859c:	e790      	b.n	100084c0 <cdcd_xfer_cb+0x8c>
1000859e:	e000      	b.n	100085a2 <cdcd_xfer_cb+0x16e>
100085a0:	bf00      	nop
100085a2:	e785      	b.n	100084b0 <cdcd_xfer_cb+0x7c>
100085a4:	2000      	movs	r0, #0
100085a6:	78e9      	ldrb	r1, [r5, #3]
100085a8:	f7ff fbf6 	bl	10007d98 <usbd_edpt_release>
100085ac:	78ab      	ldrb	r3, [r5, #2]
100085ae:	e787      	b.n	100084c0 <cdcd_xfer_cb+0x8c>
100085b0:	2000      	movs	r0, #0
100085b2:	f7ff fbf1 	bl	10007d98 <usbd_edpt_release>
100085b6:	e798      	b.n	100084ea <cdcd_xfer_cb+0xb6>
100085b8:	20000ea0 	.word	0x20000ea0
	...
100085c8:	20000ecc 	.word	0x20000ecc

100085cc <tusb_init>:
100085cc:	b510      	push	{r4, lr}
100085ce:	2000      	movs	r0, #0
100085d0:	f7fe fd60 	bl	10007094 <tud_init>
100085d4:	bd10      	pop	{r4, pc}
100085d6:	46c0      	nop			; (mov r8, r8)

100085d8 <tusb_inited>:
100085d8:	b510      	push	{r4, lr}
100085da:	f7fe fd55 	bl	10007088 <tud_inited>
100085de:	bd10      	pop	{r4, pc}

100085e0 <tu_edpt_validate>:
100085e0:	2207      	movs	r2, #7
100085e2:	b510      	push	{r4, lr}
100085e4:	7944      	ldrb	r4, [r0, #5]
100085e6:	7903      	ldrb	r3, [r0, #4]
100085e8:	4022      	ands	r2, r4
100085ea:	0212      	lsls	r2, r2, #8
100085ec:	431a      	orrs	r2, r3
100085ee:	78c3      	ldrb	r3, [r0, #3]
100085f0:	079b      	lsls	r3, r3, #30
100085f2:	0f9b      	lsrs	r3, r3, #30
100085f4:	2b02      	cmp	r3, #2
100085f6:	d005      	beq.n	10008604 <tu_edpt_validate+0x24>
100085f8:	2b03      	cmp	r3, #3
100085fa:	d015      	beq.n	10008628 <tu_edpt_validate+0x48>
100085fc:	2000      	movs	r0, #0
100085fe:	2b01      	cmp	r3, #1
10008600:	d008      	beq.n	10008614 <tu_edpt_validate+0x34>
10008602:	bd10      	pop	{r4, pc}
10008604:	2902      	cmp	r1, #2
10008606:	d01c      	beq.n	10008642 <tu_edpt_validate+0x62>
10008608:	2000      	movs	r0, #0
1000860a:	2340      	movs	r3, #64	; 0x40
1000860c:	4293      	cmp	r3, r2
1000860e:	4140      	adcs	r0, r0
10008610:	b2c0      	uxtb	r0, r0
10008612:	e7f6      	b.n	10008602 <tu_edpt_validate+0x22>
10008614:	3902      	subs	r1, #2
10008616:	424b      	negs	r3, r1
10008618:	4159      	adcs	r1, r3
1000861a:	4b0d      	ldr	r3, [pc, #52]	; (10008650 <tu_edpt_validate+0x70>)
1000861c:	469c      	mov	ip, r3
1000861e:	4461      	add	r1, ip
10008620:	4291      	cmp	r1, r2
10008622:	4140      	adcs	r0, r0
10008624:	b2c0      	uxtb	r0, r0
10008626:	e7ec      	b.n	10008602 <tu_edpt_validate+0x22>
10008628:	3902      	subs	r1, #2
1000862a:	424b      	negs	r3, r1
1000862c:	4159      	adcs	r1, r3
1000862e:	23f0      	movs	r3, #240	; 0xf0
10008630:	2000      	movs	r0, #0
10008632:	4249      	negs	r1, r1
10008634:	009b      	lsls	r3, r3, #2
10008636:	4019      	ands	r1, r3
10008638:	3140      	adds	r1, #64	; 0x40
1000863a:	4291      	cmp	r1, r2
1000863c:	4140      	adcs	r0, r0
1000863e:	b2c0      	uxtb	r0, r0
10008640:	e7df      	b.n	10008602 <tu_edpt_validate+0x22>
10008642:	4b04      	ldr	r3, [pc, #16]	; (10008654 <tu_edpt_validate+0x74>)
10008644:	469c      	mov	ip, r3
10008646:	4462      	add	r2, ip
10008648:	4250      	negs	r0, r2
1000864a:	4150      	adcs	r0, r2
1000864c:	b2c0      	uxtb	r0, r0
1000864e:	e7d8      	b.n	10008602 <tu_edpt_validate+0x22>
10008650:	000003ff 	.word	0x000003ff
10008654:	fffffe00 	.word	0xfffffe00

10008658 <tu_edpt_bind_driver>:
10008658:	b5f0      	push	{r4, r5, r6, r7, lr}
1000865a:	2a00      	cmp	r2, #0
1000865c:	d011      	beq.n	10008682 <tu_edpt_bind_driver+0x2a>
1000865e:	2400      	movs	r4, #0
10008660:	277f      	movs	r7, #127	; 0x7f
10008662:	784d      	ldrb	r5, [r1, #1]
10008664:	2d05      	cmp	r5, #5
10008666:	d106      	bne.n	10008676 <tu_edpt_bind_driver+0x1e>
10008668:	003d      	movs	r5, r7
1000866a:	788e      	ldrb	r6, [r1, #2]
1000866c:	4035      	ands	r5, r6
1000866e:	006d      	lsls	r5, r5, #1
10008670:	09f6      	lsrs	r6, r6, #7
10008672:	1945      	adds	r5, r0, r5
10008674:	55ab      	strb	r3, [r5, r6]
10008676:	780d      	ldrb	r5, [r1, #0]
10008678:	1964      	adds	r4, r4, r5
1000867a:	b2a4      	uxth	r4, r4
1000867c:	1949      	adds	r1, r1, r5
1000867e:	42a2      	cmp	r2, r4
10008680:	d8ef      	bhi.n	10008662 <tu_edpt_bind_driver+0xa>
10008682:	bdf0      	pop	{r4, r5, r6, r7, pc}

10008684 <tu_fifo_config>:
10008684:	b5f0      	push	{r4, r5, r6, r7, lr}
10008686:	46c6      	mov	lr, r8
10008688:	b500      	push	{lr}
1000868a:	0015      	movs	r5, r2
1000868c:	aa06      	add	r2, sp, #24
1000868e:	001e      	movs	r6, r3
10008690:	7813      	ldrb	r3, [r2, #0]
10008692:	2280      	movs	r2, #128	; 0x80
10008694:	0004      	movs	r4, r0
10008696:	000f      	movs	r7, r1
10008698:	4698      	mov	r8, r3
1000869a:	0212      	lsls	r2, r2, #8
1000869c:	4295      	cmp	r5, r2
1000869e:	d82a      	bhi.n	100086f6 <tu_fifo_config+0x72>
100086a0:	6940      	ldr	r0, [r0, #20]
100086a2:	2800      	cmp	r0, #0
100086a4:	d003      	beq.n	100086ae <tu_fifo_config+0x2a>
100086a6:	2101      	movs	r1, #1
100086a8:	4249      	negs	r1, r1
100086aa:	f001 f845 	bl	10009738 <__mutex_enter_timeout_ms_veneer>
100086ae:	69a0      	ldr	r0, [r4, #24]
100086b0:	2800      	cmp	r0, #0
100086b2:	d003      	beq.n	100086bc <tu_fifo_config+0x38>
100086b4:	2101      	movs	r1, #1
100086b6:	4249      	negs	r1, r1
100086b8:	f001 f83e 	bl	10009738 <__mutex_enter_timeout_ms_veneer>
100086bc:	4643      	mov	r3, r8
100086be:	80a5      	strh	r5, [r4, #4]
100086c0:	006d      	lsls	r5, r5, #1
100086c2:	b2ad      	uxth	r5, r5
100086c4:	7223      	strb	r3, [r4, #8]
100086c6:	1e6b      	subs	r3, r5, #1
100086c8:	81a3      	strh	r3, [r4, #12]
100086ca:	2300      	movs	r3, #0
100086cc:	6960      	ldr	r0, [r4, #20]
100086ce:	426d      	negs	r5, r5
100086d0:	81e3      	strh	r3, [r4, #14]
100086d2:	6027      	str	r7, [r4, #0]
100086d4:	80e6      	strh	r6, [r4, #6]
100086d6:	8165      	strh	r5, [r4, #10]
100086d8:	8223      	strh	r3, [r4, #16]
100086da:	2800      	cmp	r0, #0
100086dc:	d001      	beq.n	100086e2 <tu_fifo_config+0x5e>
100086de:	f001 f80b 	bl	100096f8 <__mutex_exit_veneer>
100086e2:	69a0      	ldr	r0, [r4, #24]
100086e4:	2401      	movs	r4, #1
100086e6:	2800      	cmp	r0, #0
100086e8:	d001      	beq.n	100086ee <tu_fifo_config+0x6a>
100086ea:	f001 f805 	bl	100096f8 <__mutex_exit_veneer>
100086ee:	0020      	movs	r0, r4
100086f0:	bc04      	pop	{r2}
100086f2:	4690      	mov	r8, r2
100086f4:	bdf0      	pop	{r4, r5, r6, r7, pc}
100086f6:	2400      	movs	r4, #0
100086f8:	e7f9      	b.n	100086ee <tu_fifo_config+0x6a>
100086fa:	46c0      	nop			; (mov r8, r8)

100086fc <tu_fifo_count>:
100086fc:	89c1      	ldrh	r1, [r0, #14]
100086fe:	8a02      	ldrh	r2, [r0, #16]
10008700:	1a8b      	subs	r3, r1, r2
10008702:	b29b      	uxth	r3, r3
10008704:	4291      	cmp	r1, r2
10008706:	d202      	bcs.n	1000870e <tu_fifo_count+0x12>
10008708:	8942      	ldrh	r2, [r0, #10]
1000870a:	1a9b      	subs	r3, r3, r2
1000870c:	b29b      	uxth	r3, r3
1000870e:	8882      	ldrh	r2, [r0, #4]
10008710:	1c10      	adds	r0, r2, #0
10008712:	429a      	cmp	r2, r3
10008714:	d900      	bls.n	10008718 <tu_fifo_count+0x1c>
10008716:	1c18      	adds	r0, r3, #0
10008718:	b280      	uxth	r0, r0
1000871a:	4770      	bx	lr

1000871c <tu_fifo_empty>:
1000871c:	89c3      	ldrh	r3, [r0, #14]
1000871e:	8a00      	ldrh	r0, [r0, #16]
10008720:	1a18      	subs	r0, r3, r0
10008722:	4243      	negs	r3, r0
10008724:	4158      	adcs	r0, r3
10008726:	b2c0      	uxtb	r0, r0
10008728:	4770      	bx	lr
1000872a:	46c0      	nop			; (mov r8, r8)

1000872c <tu_fifo_remaining>:
1000872c:	b510      	push	{r4, lr}
1000872e:	89c4      	ldrh	r4, [r0, #14]
10008730:	8a01      	ldrh	r1, [r0, #16]
10008732:	8883      	ldrh	r3, [r0, #4]
10008734:	1a62      	subs	r2, r4, r1
10008736:	b292      	uxth	r2, r2
10008738:	428c      	cmp	r4, r1
1000873a:	d202      	bcs.n	10008742 <tu_fifo_remaining+0x16>
1000873c:	8940      	ldrh	r0, [r0, #10]
1000873e:	1a12      	subs	r2, r2, r0
10008740:	b292      	uxth	r2, r2
10008742:	1a98      	subs	r0, r3, r2
10008744:	b280      	uxth	r0, r0
10008746:	bd10      	pop	{r4, pc}

10008748 <tu_fifo_read>:
10008748:	b570      	push	{r4, r5, r6, lr}
1000874a:	0004      	movs	r4, r0
1000874c:	6980      	ldr	r0, [r0, #24]
1000874e:	000d      	movs	r5, r1
10008750:	2800      	cmp	r0, #0
10008752:	d003      	beq.n	1000875c <tu_fifo_read+0x14>
10008754:	2101      	movs	r1, #1
10008756:	4249      	negs	r1, r1
10008758:	f000 ffee 	bl	10009738 <__mutex_enter_timeout_ms_veneer>
1000875c:	89e0      	ldrh	r0, [r4, #14]
1000875e:	8a21      	ldrh	r1, [r4, #16]
10008760:	b286      	uxth	r6, r0
10008762:	1a42      	subs	r2, r0, r1
10008764:	b28b      	uxth	r3, r1
10008766:	b292      	uxth	r2, r2
10008768:	4288      	cmp	r0, r1
1000876a:	d202      	bcs.n	10008772 <tu_fifo_read+0x2a>
1000876c:	8961      	ldrh	r1, [r4, #10]
1000876e:	1a52      	subs	r2, r2, r1
10008770:	b292      	uxth	r2, r2
10008772:	88a0      	ldrh	r0, [r4, #4]
10008774:	4290      	cmp	r0, r2
10008776:	d207      	bcs.n	10008788 <tu_fifo_read+0x40>
10008778:	4286      	cmp	r6, r0
1000877a:	d22c      	bcs.n	100087d6 <tu_fifo_read+0x8e>
1000877c:	8962      	ldrh	r2, [r4, #10]
1000877e:	1882      	adds	r2, r0, r2
10008780:	1ab2      	subs	r2, r6, r2
10008782:	b292      	uxth	r2, r2
10008784:	8222      	strh	r2, [r4, #16]
10008786:	0002      	movs	r2, r0
10008788:	2a00      	cmp	r2, #0
1000878a:	d102      	bne.n	10008792 <tu_fifo_read+0x4a>
1000878c:	e01c      	b.n	100087c8 <tu_fifo_read+0x80>
1000878e:	1a1b      	subs	r3, r3, r0
10008790:	b29b      	uxth	r3, r3
10008792:	4298      	cmp	r0, r3
10008794:	d9fb      	bls.n	1000878e <tu_fifo_read+0x46>
10008796:	88e2      	ldrh	r2, [r4, #6]
10008798:	6821      	ldr	r1, [r4, #0]
1000879a:	4353      	muls	r3, r2
1000879c:	0028      	movs	r0, r5
1000879e:	18c9      	adds	r1, r1, r3
100087a0:	f7fd fb22 	bl	10005de8 <__wrap___aeabi_memcpy>
100087a4:	8a22      	ldrh	r2, [r4, #16]
100087a6:	2501      	movs	r5, #1
100087a8:	1c53      	adds	r3, r2, #1
100087aa:	b29b      	uxth	r3, r3
100087ac:	429a      	cmp	r2, r3
100087ae:	d90e      	bls.n	100087ce <tu_fifo_read+0x86>
100087b0:	2300      	movs	r3, #0
100087b2:	8962      	ldrh	r2, [r4, #10]
100087b4:	189b      	adds	r3, r3, r2
100087b6:	b29b      	uxth	r3, r3
100087b8:	69a0      	ldr	r0, [r4, #24]
100087ba:	8223      	strh	r3, [r4, #16]
100087bc:	2800      	cmp	r0, #0
100087be:	d001      	beq.n	100087c4 <tu_fifo_read+0x7c>
100087c0:	f000 ff9a 	bl	100096f8 <__mutex_exit_veneer>
100087c4:	0028      	movs	r0, r5
100087c6:	bd70      	pop	{r4, r5, r6, pc}
100087c8:	2500      	movs	r5, #0
100087ca:	8a23      	ldrh	r3, [r4, #16]
100087cc:	b29b      	uxth	r3, r3
100087ce:	89a2      	ldrh	r2, [r4, #12]
100087d0:	429a      	cmp	r2, r3
100087d2:	d2f1      	bcs.n	100087b8 <tu_fifo_read+0x70>
100087d4:	e7ed      	b.n	100087b2 <tu_fifo_read+0x6a>
100087d6:	1a32      	subs	r2, r6, r0
100087d8:	89a1      	ldrh	r1, [r4, #12]
100087da:	b292      	uxth	r2, r2
100087dc:	4291      	cmp	r1, r2
100087de:	d2d1      	bcs.n	10008784 <tu_fifo_read+0x3c>
100087e0:	e7cc      	b.n	1000877c <tu_fifo_read+0x34>
100087e2:	46c0      	nop			; (mov r8, r8)

100087e4 <tu_fifo_read_n>:
100087e4:	b5f0      	push	{r4, r5, r6, r7, lr}
100087e6:	464f      	mov	r7, r9
100087e8:	4646      	mov	r6, r8
100087ea:	46d6      	mov	lr, sl
100087ec:	0004      	movs	r4, r0
100087ee:	6980      	ldr	r0, [r0, #24]
100087f0:	4688      	mov	r8, r1
100087f2:	4691      	mov	r9, r2
100087f4:	b5c0      	push	{r6, r7, lr}
100087f6:	2800      	cmp	r0, #0
100087f8:	d003      	beq.n	10008802 <tu_fifo_read_n+0x1e>
100087fa:	2101      	movs	r1, #1
100087fc:	4249      	negs	r1, r1
100087fe:	f000 ff9b 	bl	10009738 <__mutex_enter_timeout_ms_veneer>
10008802:	89e2      	ldrh	r2, [r4, #14]
10008804:	8a23      	ldrh	r3, [r4, #16]
10008806:	b291      	uxth	r1, r2
10008808:	1ad6      	subs	r6, r2, r3
1000880a:	b29d      	uxth	r5, r3
1000880c:	b2b6      	uxth	r6, r6
1000880e:	429a      	cmp	r2, r3
10008810:	d202      	bcs.n	10008818 <tu_fifo_read_n+0x34>
10008812:	8963      	ldrh	r3, [r4, #10]
10008814:	1af6      	subs	r6, r6, r3
10008816:	b2b6      	uxth	r6, r6
10008818:	88a7      	ldrh	r7, [r4, #4]
1000881a:	42b7      	cmp	r7, r6
1000881c:	d209      	bcs.n	10008832 <tu_fifo_read_n+0x4e>
1000881e:	42b9      	cmp	r1, r7
10008820:	d254      	bcs.n	100088cc <tu_fifo_read_n+0xe8>
10008822:	8963      	ldrh	r3, [r4, #10]
10008824:	18fb      	adds	r3, r7, r3
10008826:	1acb      	subs	r3, r1, r3
10008828:	b29b      	uxth	r3, r3
1000882a:	003e      	movs	r6, r7
1000882c:	8223      	strh	r3, [r4, #16]
1000882e:	8a25      	ldrh	r5, [r4, #16]
10008830:	b2ad      	uxth	r5, r5
10008832:	2e00      	cmp	r6, #0
10008834:	d050      	beq.n	100088d8 <tu_fifo_read_n+0xf4>
10008836:	464b      	mov	r3, r9
10008838:	45b1      	cmp	r9, r6
1000883a:	d845      	bhi.n	100088c8 <tu_fifo_read_n+0xe4>
1000883c:	b29e      	uxth	r6, r3
1000883e:	42af      	cmp	r7, r5
10008840:	d803      	bhi.n	1000884a <tu_fifo_read_n+0x66>
10008842:	1bed      	subs	r5, r5, r7
10008844:	b2ad      	uxth	r5, r5
10008846:	42af      	cmp	r7, r5
10008848:	d9fb      	bls.n	10008842 <tu_fifo_read_n+0x5e>
1000884a:	88e3      	ldrh	r3, [r4, #6]
1000884c:	1b78      	subs	r0, r7, r5
1000884e:	0019      	movs	r1, r3
10008850:	4699      	mov	r9, r3
10008852:	6823      	ldr	r3, [r4, #0]
10008854:	4369      	muls	r1, r5
10008856:	469c      	mov	ip, r3
10008858:	b280      	uxth	r0, r0
1000885a:	4461      	add	r1, ip
1000885c:	4286      	cmp	r6, r0
1000885e:	d925      	bls.n	100088ac <tu_fifo_read_n+0xc8>
10008860:	464b      	mov	r3, r9
10008862:	4358      	muls	r0, r3
10008864:	b283      	uxth	r3, r0
10008866:	001a      	movs	r2, r3
10008868:	4640      	mov	r0, r8
1000886a:	469a      	mov	sl, r3
1000886c:	f7fd fabc 	bl	10005de8 <__wrap___aeabi_memcpy>
10008870:	464b      	mov	r3, r9
10008872:	4640      	mov	r0, r8
10008874:	1bf7      	subs	r7, r6, r7
10008876:	19ed      	adds	r5, r5, r7
10008878:	435d      	muls	r5, r3
1000887a:	6821      	ldr	r1, [r4, #0]
1000887c:	b2aa      	uxth	r2, r5
1000887e:	4450      	add	r0, sl
10008880:	f7fd fab2 	bl	10005de8 <__wrap___aeabi_memcpy>
10008884:	8a22      	ldrh	r2, [r4, #16]
10008886:	1993      	adds	r3, r2, r6
10008888:	b29b      	uxth	r3, r3
1000888a:	429a      	cmp	r2, r3
1000888c:	d918      	bls.n	100088c0 <tu_fifo_read_n+0xdc>
1000888e:	8962      	ldrh	r2, [r4, #10]
10008890:	189b      	adds	r3, r3, r2
10008892:	b29b      	uxth	r3, r3
10008894:	69a0      	ldr	r0, [r4, #24]
10008896:	8223      	strh	r3, [r4, #16]
10008898:	2800      	cmp	r0, #0
1000889a:	d001      	beq.n	100088a0 <tu_fifo_read_n+0xbc>
1000889c:	f000 ff2c 	bl	100096f8 <__mutex_exit_veneer>
100088a0:	0030      	movs	r0, r6
100088a2:	bc1c      	pop	{r2, r3, r4}
100088a4:	4690      	mov	r8, r2
100088a6:	4699      	mov	r9, r3
100088a8:	46a2      	mov	sl, r4
100088aa:	bdf0      	pop	{r4, r5, r6, r7, pc}
100088ac:	464a      	mov	r2, r9
100088ae:	4640      	mov	r0, r8
100088b0:	4372      	muls	r2, r6
100088b2:	f7fd fa99 	bl	10005de8 <__wrap___aeabi_memcpy>
100088b6:	8a22      	ldrh	r2, [r4, #16]
100088b8:	1993      	adds	r3, r2, r6
100088ba:	b29b      	uxth	r3, r3
100088bc:	429a      	cmp	r2, r3
100088be:	d8e6      	bhi.n	1000888e <tu_fifo_read_n+0xaa>
100088c0:	89a2      	ldrh	r2, [r4, #12]
100088c2:	429a      	cmp	r2, r3
100088c4:	d2e6      	bcs.n	10008894 <tu_fifo_read_n+0xb0>
100088c6:	e7e2      	b.n	1000888e <tu_fifo_read_n+0xaa>
100088c8:	1c33      	adds	r3, r6, #0
100088ca:	e7b7      	b.n	1000883c <tu_fifo_read_n+0x58>
100088cc:	1bcb      	subs	r3, r1, r7
100088ce:	89a2      	ldrh	r2, [r4, #12]
100088d0:	b29b      	uxth	r3, r3
100088d2:	429a      	cmp	r2, r3
100088d4:	d2a9      	bcs.n	1000882a <tu_fifo_read_n+0x46>
100088d6:	e7a4      	b.n	10008822 <tu_fifo_read_n+0x3e>
100088d8:	8a23      	ldrh	r3, [r4, #16]
100088da:	89a2      	ldrh	r2, [r4, #12]
100088dc:	b29b      	uxth	r3, r3
100088de:	429a      	cmp	r2, r3
100088e0:	d2d8      	bcs.n	10008894 <tu_fifo_read_n+0xb0>
100088e2:	e7d4      	b.n	1000888e <tu_fifo_read_n+0xaa>

100088e4 <tu_fifo_write>:
100088e4:	b5f8      	push	{r3, r4, r5, r6, r7, lr}
100088e6:	0004      	movs	r4, r0
100088e8:	6940      	ldr	r0, [r0, #20]
100088ea:	000e      	movs	r6, r1
100088ec:	2800      	cmp	r0, #0
100088ee:	d003      	beq.n	100088f8 <tu_fifo_write+0x14>
100088f0:	2101      	movs	r1, #1
100088f2:	4249      	negs	r1, r1
100088f4:	f000 ff20 	bl	10009738 <__mutex_enter_timeout_ms_veneer>
100088f8:	89e2      	ldrh	r2, [r4, #14]
100088fa:	8a21      	ldrh	r1, [r4, #16]
100088fc:	b295      	uxth	r5, r2
100088fe:	1a53      	subs	r3, r2, r1
10008900:	b29b      	uxth	r3, r3
10008902:	4291      	cmp	r1, r2
10008904:	d902      	bls.n	1000890c <tu_fifo_write+0x28>
10008906:	8962      	ldrh	r2, [r4, #10]
10008908:	1a9b      	subs	r3, r3, r2
1000890a:	b29b      	uxth	r3, r3
1000890c:	88a2      	ldrh	r2, [r4, #4]
1000890e:	429a      	cmp	r2, r3
10008910:	d021      	beq.n	10008956 <tu_fifo_write+0x72>
10008912:	002b      	movs	r3, r5
10008914:	4295      	cmp	r5, r2
10008916:	d303      	bcc.n	10008920 <tu_fifo_write+0x3c>
10008918:	1a9b      	subs	r3, r3, r2
1000891a:	b29b      	uxth	r3, r3
1000891c:	429a      	cmp	r2, r3
1000891e:	d9fb      	bls.n	10008918 <tu_fifo_write+0x34>
10008920:	88e2      	ldrh	r2, [r4, #6]
10008922:	6821      	ldr	r1, [r4, #0]
10008924:	4353      	muls	r3, r2
10008926:	18c8      	adds	r0, r1, r3
10008928:	0031      	movs	r1, r6
1000892a:	f7fd fa5d 	bl	10005de8 <__wrap___aeabi_memcpy>
1000892e:	1c6b      	adds	r3, r5, #1
10008930:	b29b      	uxth	r3, r3
10008932:	429d      	cmp	r5, r3
10008934:	d90b      	bls.n	1000894e <tu_fifo_write+0x6a>
10008936:	8962      	ldrh	r2, [r4, #10]
10008938:	189b      	adds	r3, r3, r2
1000893a:	b29b      	uxth	r3, r3
1000893c:	6960      	ldr	r0, [r4, #20]
1000893e:	2701      	movs	r7, #1
10008940:	81e3      	strh	r3, [r4, #14]
10008942:	2800      	cmp	r0, #0
10008944:	d001      	beq.n	1000894a <tu_fifo_write+0x66>
10008946:	f000 fed7 	bl	100096f8 <__mutex_exit_veneer>
1000894a:	0038      	movs	r0, r7
1000894c:	bdf8      	pop	{r3, r4, r5, r6, r7, pc}
1000894e:	89a2      	ldrh	r2, [r4, #12]
10008950:	429a      	cmp	r2, r3
10008952:	d2f3      	bcs.n	1000893c <tu_fifo_write+0x58>
10008954:	e7ef      	b.n	10008936 <tu_fifo_write+0x52>
10008956:	7a27      	ldrb	r7, [r4, #8]
10008958:	2f00      	cmp	r7, #0
1000895a:	d1da      	bne.n	10008912 <tu_fifo_write+0x2e>
1000895c:	e7f5      	b.n	1000894a <tu_fifo_write+0x66>
1000895e:	46c0      	nop			; (mov r8, r8)

10008960 <tu_fifo_write_n>:
10008960:	b5f8      	push	{r3, r4, r5, r6, r7, lr}
10008962:	4645      	mov	r5, r8
10008964:	46de      	mov	lr, fp
10008966:	4657      	mov	r7, sl
10008968:	464e      	mov	r6, r9
1000896a:	0004      	movs	r4, r0
1000896c:	b5e0      	push	{r5, r6, r7, lr}
1000896e:	4688      	mov	r8, r1
10008970:	1e15      	subs	r5, r2, #0
10008972:	d05a      	beq.n	10008a2a <tu_fifo_write_n+0xca>
10008974:	6940      	ldr	r0, [r0, #20]
10008976:	2800      	cmp	r0, #0
10008978:	d003      	beq.n	10008982 <tu_fifo_write_n+0x22>
1000897a:	2101      	movs	r1, #1
1000897c:	4249      	negs	r1, r1
1000897e:	f000 fedb 	bl	10009738 <__mutex_enter_timeout_ms_veneer>
10008982:	89e7      	ldrh	r7, [r4, #14]
10008984:	7a23      	ldrb	r3, [r4, #8]
10008986:	8a22      	ldrh	r2, [r4, #16]
10008988:	b2bf      	uxth	r7, r7
1000898a:	b292      	uxth	r2, r2
1000898c:	2b00      	cmp	r3, #0
1000898e:	d13b      	bne.n	10008a08 <tu_fifo_write_n+0xa8>
10008990:	1ab9      	subs	r1, r7, r2
10008992:	88a3      	ldrh	r3, [r4, #4]
10008994:	b289      	uxth	r1, r1
10008996:	4297      	cmp	r7, r2
10008998:	d202      	bcs.n	100089a0 <tu_fifo_write_n+0x40>
1000899a:	8962      	ldrh	r2, [r4, #10]
1000899c:	1a89      	subs	r1, r1, r2
1000899e:	b289      	uxth	r1, r1
100089a0:	1a59      	subs	r1, r3, r1
100089a2:	1c0a      	adds	r2, r1, #0
100089a4:	b289      	uxth	r1, r1
100089a6:	42a9      	cmp	r1, r5
100089a8:	d853      	bhi.n	10008a52 <tu_fifo_write_n+0xf2>
100089aa:	b295      	uxth	r5, r2
100089ac:	88e2      	ldrh	r2, [r4, #6]
100089ae:	1aee      	subs	r6, r5, r3
100089b0:	4692      	mov	sl, r2
100089b2:	b2b2      	uxth	r2, r6
100089b4:	4691      	mov	r9, r2
100089b6:	003e      	movs	r6, r7
100089b8:	429f      	cmp	r7, r3
100089ba:	d303      	bcc.n	100089c4 <tu_fifo_write_n+0x64>
100089bc:	1af6      	subs	r6, r6, r3
100089be:	b2b6      	uxth	r6, r6
100089c0:	429e      	cmp	r6, r3
100089c2:	d2fb      	bcs.n	100089bc <tu_fifo_write_n+0x5c>
100089c4:	4650      	mov	r0, sl
100089c6:	6822      	ldr	r2, [r4, #0]
100089c8:	4370      	muls	r0, r6
100089ca:	4694      	mov	ip, r2
100089cc:	1b9b      	subs	r3, r3, r6
100089ce:	b29b      	uxth	r3, r3
100089d0:	4652      	mov	r2, sl
100089d2:	4460      	add	r0, ip
100089d4:	429d      	cmp	r5, r3
100089d6:	d82a      	bhi.n	10008a2e <tu_fifo_write_n+0xce>
100089d8:	4641      	mov	r1, r8
100089da:	436a      	muls	r2, r5
100089dc:	f7fd fa04 	bl	10005de8 <__wrap___aeabi_memcpy>
100089e0:	19eb      	adds	r3, r5, r7
100089e2:	b29b      	uxth	r3, r3
100089e4:	429f      	cmp	r7, r3
100089e6:	d81c      	bhi.n	10008a22 <tu_fifo_write_n+0xc2>
100089e8:	89a2      	ldrh	r2, [r4, #12]
100089ea:	429a      	cmp	r2, r3
100089ec:	d319      	bcc.n	10008a22 <tu_fifo_write_n+0xc2>
100089ee:	6960      	ldr	r0, [r4, #20]
100089f0:	81e3      	strh	r3, [r4, #14]
100089f2:	2800      	cmp	r0, #0
100089f4:	d001      	beq.n	100089fa <tu_fifo_write_n+0x9a>
100089f6:	f000 fe7f 	bl	100096f8 <__mutex_exit_veneer>
100089fa:	0028      	movs	r0, r5
100089fc:	bc3c      	pop	{r2, r3, r4, r5}
100089fe:	4690      	mov	r8, r2
10008a00:	4699      	mov	r9, r3
10008a02:	46a2      	mov	sl, r4
10008a04:	46ab      	mov	fp, r5
10008a06:	bdf8      	pop	{r3, r4, r5, r6, r7, pc}
10008a08:	88a3      	ldrh	r3, [r4, #4]
10008a0a:	429d      	cmp	r5, r3
10008a0c:	d3ce      	bcc.n	100089ac <tu_fifo_write_n+0x4c>
10008a0e:	0017      	movs	r7, r2
10008a10:	2200      	movs	r2, #0
10008a12:	88e1      	ldrh	r1, [r4, #6]
10008a14:	1aed      	subs	r5, r5, r3
10008a16:	434d      	muls	r5, r1
10008a18:	468a      	mov	sl, r1
10008a1a:	44a8      	add	r8, r5
10008a1c:	4691      	mov	r9, r2
10008a1e:	001d      	movs	r5, r3
10008a20:	e7c9      	b.n	100089b6 <tu_fifo_write_n+0x56>
10008a22:	8962      	ldrh	r2, [r4, #10]
10008a24:	189b      	adds	r3, r3, r2
10008a26:	b29b      	uxth	r3, r3
10008a28:	e7e1      	b.n	100089ee <tu_fifo_write_n+0x8e>
10008a2a:	2500      	movs	r5, #0
10008a2c:	e7e5      	b.n	100089fa <tu_fifo_write_n+0x9a>
10008a2e:	4353      	muls	r3, r2
10008a30:	b29b      	uxth	r3, r3
10008a32:	001a      	movs	r2, r3
10008a34:	4641      	mov	r1, r8
10008a36:	469b      	mov	fp, r3
10008a38:	f7fd f9d6 	bl	10005de8 <__wrap___aeabi_memcpy>
10008a3c:	0032      	movs	r2, r6
10008a3e:	4653      	mov	r3, sl
10008a40:	4641      	mov	r1, r8
10008a42:	444a      	add	r2, r9
10008a44:	435a      	muls	r2, r3
10008a46:	6820      	ldr	r0, [r4, #0]
10008a48:	b292      	uxth	r2, r2
10008a4a:	4459      	add	r1, fp
10008a4c:	f7fd f9cc 	bl	10005de8 <__wrap___aeabi_memcpy>
10008a50:	e7c6      	b.n	100089e0 <tu_fifo_write_n+0x80>
10008a52:	1c2a      	adds	r2, r5, #0
10008a54:	b295      	uxth	r5, r2
10008a56:	e7a9      	b.n	100089ac <tu_fifo_write_n+0x4c>

10008a58 <tu_fifo_clear>:
10008a58:	b510      	push	{r4, lr}
10008a5a:	0004      	movs	r4, r0
10008a5c:	6940      	ldr	r0, [r0, #20]
10008a5e:	2800      	cmp	r0, #0
10008a60:	d003      	beq.n	10008a6a <tu_fifo_clear+0x12>
10008a62:	2101      	movs	r1, #1
10008a64:	4249      	negs	r1, r1
10008a66:	f000 fe67 	bl	10009738 <__mutex_enter_timeout_ms_veneer>
10008a6a:	69a0      	ldr	r0, [r4, #24]
10008a6c:	2800      	cmp	r0, #0
10008a6e:	d003      	beq.n	10008a78 <tu_fifo_clear+0x20>
10008a70:	2101      	movs	r1, #1
10008a72:	4249      	negs	r1, r1
10008a74:	f000 fe60 	bl	10009738 <__mutex_enter_timeout_ms_veneer>
10008a78:	2300      	movs	r3, #0
10008a7a:	81e3      	strh	r3, [r4, #14]
10008a7c:	8223      	strh	r3, [r4, #16]
10008a7e:	88a3      	ldrh	r3, [r4, #4]
10008a80:	6960      	ldr	r0, [r4, #20]
10008a82:	005b      	lsls	r3, r3, #1
10008a84:	b29b      	uxth	r3, r3
10008a86:	1e5a      	subs	r2, r3, #1
10008a88:	425b      	negs	r3, r3
10008a8a:	81a2      	strh	r2, [r4, #12]
10008a8c:	8163      	strh	r3, [r4, #10]
10008a8e:	2800      	cmp	r0, #0
10008a90:	d001      	beq.n	10008a96 <tu_fifo_clear+0x3e>
10008a92:	f000 fe31 	bl	100096f8 <__mutex_exit_veneer>
10008a96:	69a0      	ldr	r0, [r4, #24]
10008a98:	2800      	cmp	r0, #0
10008a9a:	d001      	beq.n	10008aa0 <tu_fifo_clear+0x48>
10008a9c:	f000 fe2c 	bl	100096f8 <__mutex_exit_veneer>
10008aa0:	2001      	movs	r0, #1
10008aa2:	bd10      	pop	{r4, pc}

10008aa4 <tu_fifo_set_overwritable>:
10008aa4:	b570      	push	{r4, r5, r6, lr}
10008aa6:	0004      	movs	r4, r0
10008aa8:	6940      	ldr	r0, [r0, #20]
10008aaa:	000d      	movs	r5, r1
10008aac:	2800      	cmp	r0, #0
10008aae:	d003      	beq.n	10008ab8 <tu_fifo_set_overwritable+0x14>
10008ab0:	2101      	movs	r1, #1
10008ab2:	4249      	negs	r1, r1
10008ab4:	f000 fe40 	bl	10009738 <__mutex_enter_timeout_ms_veneer>
10008ab8:	69a0      	ldr	r0, [r4, #24]
10008aba:	2800      	cmp	r0, #0
10008abc:	d003      	beq.n	10008ac6 <tu_fifo_set_overwritable+0x22>
10008abe:	2101      	movs	r1, #1
10008ac0:	4249      	negs	r1, r1
10008ac2:	f000 fe39 	bl	10009738 <__mutex_enter_timeout_ms_veneer>
10008ac6:	6960      	ldr	r0, [r4, #20]
10008ac8:	7225      	strb	r5, [r4, #8]
10008aca:	2800      	cmp	r0, #0
10008acc:	d001      	beq.n	10008ad2 <tu_fifo_set_overwritable+0x2e>
10008ace:	f000 fe13 	bl	100096f8 <__mutex_exit_veneer>
10008ad2:	69a0      	ldr	r0, [r4, #24]
10008ad4:	2800      	cmp	r0, #0
10008ad6:	d001      	beq.n	10008adc <tu_fifo_set_overwritable+0x38>
10008ad8:	f000 fe0e 	bl	100096f8 <__mutex_exit_veneer>
10008adc:	2001      	movs	r0, #1
10008ade:	bd70      	pop	{r4, r5, r6, pc}

10008ae0 <_retrieve_unique_id_on_boot>:
10008ae0:	b510      	push	{r4, lr}
10008ae2:	4802      	ldr	r0, [pc, #8]	; (10008aec <_retrieve_unique_id_on_boot+0xc>)
10008ae4:	f000 f8e2 	bl	10008cac <flash_get_unique_id>
10008ae8:	bd10      	pop	{r4, pc}
10008aea:	46c0      	nop			; (mov r8, r8)
10008aec:	2000186c 	.word	0x2000186c

10008af0 <pico_get_unique_board_id_string>:
10008af0:	b530      	push	{r4, r5, lr}
10008af2:	1e4b      	subs	r3, r1, #1
10008af4:	2901      	cmp	r1, #1
10008af6:	d100      	bne.n	10008afa <pico_get_unique_board_id_string+0xa>
10008af8:	e0b0      	b.n	10008c5c <pico_get_unique_board_id_string+0x16c>
10008afa:	4a6b      	ldr	r2, [pc, #428]	; (10008ca8 <pico_get_unique_board_id_string+0x1b8>)
10008afc:	7811      	ldrb	r1, [r2, #0]
10008afe:	110d      	asrs	r5, r1, #4
10008b00:	002c      	movs	r4, r5
10008b02:	3430      	adds	r4, #48	; 0x30
10008b04:	299f      	cmp	r1, #159	; 0x9f
10008b06:	d900      	bls.n	10008b0a <pico_get_unique_board_id_string+0x1a>
10008b08:	e0ab      	b.n	10008c62 <pico_get_unique_board_id_string+0x172>
10008b0a:	7004      	strb	r4, [r0, #0]
10008b0c:	2b01      	cmp	r3, #1
10008b0e:	d100      	bne.n	10008b12 <pico_get_unique_board_id_string+0x22>
10008b10:	e0c7      	b.n	10008ca2 <pico_get_unique_board_id_string+0x1b2>
10008b12:	210f      	movs	r1, #15
10008b14:	7814      	ldrb	r4, [r2, #0]
10008b16:	4021      	ands	r1, r4
10008b18:	000c      	movs	r4, r1
10008b1a:	3430      	adds	r4, #48	; 0x30
10008b1c:	2909      	cmp	r1, #9
10008b1e:	dd00      	ble.n	10008b22 <pico_get_unique_board_id_string+0x32>
10008b20:	e0a1      	b.n	10008c66 <pico_get_unique_board_id_string+0x176>
10008b22:	7044      	strb	r4, [r0, #1]
10008b24:	2b02      	cmp	r3, #2
10008b26:	d100      	bne.n	10008b2a <pico_get_unique_board_id_string+0x3a>
10008b28:	e0bb      	b.n	10008ca2 <pico_get_unique_board_id_string+0x1b2>
10008b2a:	7851      	ldrb	r1, [r2, #1]
10008b2c:	110d      	asrs	r5, r1, #4
10008b2e:	002c      	movs	r4, r5
10008b30:	3430      	adds	r4, #48	; 0x30
10008b32:	299f      	cmp	r1, #159	; 0x9f
10008b34:	d900      	bls.n	10008b38 <pico_get_unique_board_id_string+0x48>
10008b36:	e099      	b.n	10008c6c <pico_get_unique_board_id_string+0x17c>
10008b38:	7084      	strb	r4, [r0, #2]
10008b3a:	2b03      	cmp	r3, #3
10008b3c:	d100      	bne.n	10008b40 <pico_get_unique_board_id_string+0x50>
10008b3e:	e0b0      	b.n	10008ca2 <pico_get_unique_board_id_string+0x1b2>
10008b40:	210f      	movs	r1, #15
10008b42:	7854      	ldrb	r4, [r2, #1]
10008b44:	4021      	ands	r1, r4
10008b46:	000c      	movs	r4, r1
10008b48:	3430      	adds	r4, #48	; 0x30
10008b4a:	2909      	cmp	r1, #9
10008b4c:	dd00      	ble.n	10008b50 <pico_get_unique_board_id_string+0x60>
10008b4e:	e08f      	b.n	10008c70 <pico_get_unique_board_id_string+0x180>
10008b50:	70c4      	strb	r4, [r0, #3]
10008b52:	2b04      	cmp	r3, #4
10008b54:	d100      	bne.n	10008b58 <pico_get_unique_board_id_string+0x68>
10008b56:	e0a4      	b.n	10008ca2 <pico_get_unique_board_id_string+0x1b2>
10008b58:	7891      	ldrb	r1, [r2, #2]
10008b5a:	110d      	asrs	r5, r1, #4
10008b5c:	002c      	movs	r4, r5
10008b5e:	3430      	adds	r4, #48	; 0x30
10008b60:	299f      	cmp	r1, #159	; 0x9f
10008b62:	d900      	bls.n	10008b66 <pico_get_unique_board_id_string+0x76>
10008b64:	e087      	b.n	10008c76 <pico_get_unique_board_id_string+0x186>
10008b66:	7104      	strb	r4, [r0, #4]
10008b68:	2b05      	cmp	r3, #5
10008b6a:	d100      	bne.n	10008b6e <pico_get_unique_board_id_string+0x7e>
10008b6c:	e099      	b.n	10008ca2 <pico_get_unique_board_id_string+0x1b2>
10008b6e:	210f      	movs	r1, #15
10008b70:	7894      	ldrb	r4, [r2, #2]
10008b72:	4021      	ands	r1, r4
10008b74:	000c      	movs	r4, r1
10008b76:	3430      	adds	r4, #48	; 0x30
10008b78:	2909      	cmp	r1, #9
10008b7a:	dd00      	ble.n	10008b7e <pico_get_unique_board_id_string+0x8e>
10008b7c:	e07d      	b.n	10008c7a <pico_get_unique_board_id_string+0x18a>
10008b7e:	7144      	strb	r4, [r0, #5]
10008b80:	2b06      	cmp	r3, #6
10008b82:	d100      	bne.n	10008b86 <pico_get_unique_board_id_string+0x96>
10008b84:	e08d      	b.n	10008ca2 <pico_get_unique_board_id_string+0x1b2>
10008b86:	78d1      	ldrb	r1, [r2, #3]
10008b88:	110d      	asrs	r5, r1, #4
10008b8a:	002c      	movs	r4, r5
10008b8c:	3430      	adds	r4, #48	; 0x30
10008b8e:	299f      	cmp	r1, #159	; 0x9f
10008b90:	d900      	bls.n	10008b94 <pico_get_unique_board_id_string+0xa4>
10008b92:	e075      	b.n	10008c80 <pico_get_unique_board_id_string+0x190>
10008b94:	7184      	strb	r4, [r0, #6]
10008b96:	2b07      	cmp	r3, #7
10008b98:	d100      	bne.n	10008b9c <pico_get_unique_board_id_string+0xac>
10008b9a:	e082      	b.n	10008ca2 <pico_get_unique_board_id_string+0x1b2>
10008b9c:	210f      	movs	r1, #15
10008b9e:	78d4      	ldrb	r4, [r2, #3]
10008ba0:	4021      	ands	r1, r4
10008ba2:	000c      	movs	r4, r1
10008ba4:	3430      	adds	r4, #48	; 0x30
10008ba6:	2909      	cmp	r1, #9
10008ba8:	dd00      	ble.n	10008bac <pico_get_unique_board_id_string+0xbc>
10008baa:	e06b      	b.n	10008c84 <pico_get_unique_board_id_string+0x194>
10008bac:	71c4      	strb	r4, [r0, #7]
10008bae:	2b08      	cmp	r3, #8
10008bb0:	d100      	bne.n	10008bb4 <pico_get_unique_board_id_string+0xc4>
10008bb2:	e076      	b.n	10008ca2 <pico_get_unique_board_id_string+0x1b2>
10008bb4:	7911      	ldrb	r1, [r2, #4]
10008bb6:	110d      	asrs	r5, r1, #4
10008bb8:	002c      	movs	r4, r5
10008bba:	3430      	adds	r4, #48	; 0x30
10008bbc:	299f      	cmp	r1, #159	; 0x9f
10008bbe:	d864      	bhi.n	10008c8a <pico_get_unique_board_id_string+0x19a>
10008bc0:	7204      	strb	r4, [r0, #8]
10008bc2:	2b09      	cmp	r3, #9
10008bc4:	d100      	bne.n	10008bc8 <pico_get_unique_board_id_string+0xd8>
10008bc6:	e06c      	b.n	10008ca2 <pico_get_unique_board_id_string+0x1b2>
10008bc8:	210f      	movs	r1, #15
10008bca:	7914      	ldrb	r4, [r2, #4]
10008bcc:	4021      	ands	r1, r4
10008bce:	000c      	movs	r4, r1
10008bd0:	3430      	adds	r4, #48	; 0x30
10008bd2:	2909      	cmp	r1, #9
10008bd4:	dc5b      	bgt.n	10008c8e <pico_get_unique_board_id_string+0x19e>
10008bd6:	7244      	strb	r4, [r0, #9]
10008bd8:	2b0a      	cmp	r3, #10
10008bda:	d062      	beq.n	10008ca2 <pico_get_unique_board_id_string+0x1b2>
10008bdc:	7951      	ldrb	r1, [r2, #5]
10008bde:	110d      	asrs	r5, r1, #4
10008be0:	002c      	movs	r4, r5
10008be2:	3430      	adds	r4, #48	; 0x30
10008be4:	299f      	cmp	r1, #159	; 0x9f
10008be6:	d855      	bhi.n	10008c94 <pico_get_unique_board_id_string+0x1a4>
10008be8:	7284      	strb	r4, [r0, #10]
10008bea:	2b0b      	cmp	r3, #11
10008bec:	d059      	beq.n	10008ca2 <pico_get_unique_board_id_string+0x1b2>
10008bee:	210f      	movs	r1, #15
10008bf0:	7954      	ldrb	r4, [r2, #5]
10008bf2:	4021      	ands	r1, r4
10008bf4:	000c      	movs	r4, r1
10008bf6:	3430      	adds	r4, #48	; 0x30
10008bf8:	2909      	cmp	r1, #9
10008bfa:	dc4d      	bgt.n	10008c98 <pico_get_unique_board_id_string+0x1a8>
10008bfc:	72c4      	strb	r4, [r0, #11]
10008bfe:	2b0c      	cmp	r3, #12
10008c00:	d04f      	beq.n	10008ca2 <pico_get_unique_board_id_string+0x1b2>
10008c02:	7991      	ldrb	r1, [r2, #6]
10008c04:	110d      	asrs	r5, r1, #4
10008c06:	002c      	movs	r4, r5
10008c08:	3430      	adds	r4, #48	; 0x30
10008c0a:	299f      	cmp	r1, #159	; 0x9f
10008c0c:	d900      	bls.n	10008c10 <pico_get_unique_board_id_string+0x120>
10008c0e:	3407      	adds	r4, #7
10008c10:	7304      	strb	r4, [r0, #12]
10008c12:	2b0d      	cmp	r3, #13
10008c14:	d045      	beq.n	10008ca2 <pico_get_unique_board_id_string+0x1b2>
10008c16:	210f      	movs	r1, #15
10008c18:	7994      	ldrb	r4, [r2, #6]
10008c1a:	4021      	ands	r1, r4
10008c1c:	000c      	movs	r4, r1
10008c1e:	3430      	adds	r4, #48	; 0x30
10008c20:	2909      	cmp	r1, #9
10008c22:	dd01      	ble.n	10008c28 <pico_get_unique_board_id_string+0x138>
10008c24:	3137      	adds	r1, #55	; 0x37
10008c26:	000c      	movs	r4, r1
10008c28:	7344      	strb	r4, [r0, #13]
10008c2a:	2b0e      	cmp	r3, #14
10008c2c:	d039      	beq.n	10008ca2 <pico_get_unique_board_id_string+0x1b2>
10008c2e:	79d1      	ldrb	r1, [r2, #7]
10008c30:	110d      	asrs	r5, r1, #4
10008c32:	002c      	movs	r4, r5
10008c34:	3430      	adds	r4, #48	; 0x30
10008c36:	299f      	cmp	r1, #159	; 0x9f
10008c38:	d900      	bls.n	10008c3c <pico_get_unique_board_id_string+0x14c>
10008c3a:	3407      	adds	r4, #7
10008c3c:	7384      	strb	r4, [r0, #14]
10008c3e:	2b0f      	cmp	r3, #15
10008c40:	d02f      	beq.n	10008ca2 <pico_get_unique_board_id_string+0x1b2>
10008c42:	79d1      	ldrb	r1, [r2, #7]
10008c44:	220f      	movs	r2, #15
10008c46:	400a      	ands	r2, r1
10008c48:	0011      	movs	r1, r2
10008c4a:	3137      	adds	r1, #55	; 0x37
10008c4c:	2a09      	cmp	r2, #9
10008c4e:	dc01      	bgt.n	10008c54 <pico_get_unique_board_id_string+0x164>
10008c50:	3230      	adds	r2, #48	; 0x30
10008c52:	0011      	movs	r1, r2
10008c54:	73c1      	strb	r1, [r0, #15]
10008c56:	2b10      	cmp	r3, #16
10008c58:	d023      	beq.n	10008ca2 <pico_get_unique_board_id_string+0x1b2>
10008c5a:	3010      	adds	r0, #16
10008c5c:	2300      	movs	r3, #0
10008c5e:	7003      	strb	r3, [r0, #0]
10008c60:	bd30      	pop	{r4, r5, pc}
10008c62:	3407      	adds	r4, #7
10008c64:	e751      	b.n	10008b0a <pico_get_unique_board_id_string+0x1a>
10008c66:	3137      	adds	r1, #55	; 0x37
10008c68:	000c      	movs	r4, r1
10008c6a:	e75a      	b.n	10008b22 <pico_get_unique_board_id_string+0x32>
10008c6c:	3407      	adds	r4, #7
10008c6e:	e763      	b.n	10008b38 <pico_get_unique_board_id_string+0x48>
10008c70:	3137      	adds	r1, #55	; 0x37
10008c72:	000c      	movs	r4, r1
10008c74:	e76c      	b.n	10008b50 <pico_get_unique_board_id_string+0x60>
10008c76:	3407      	adds	r4, #7
10008c78:	e775      	b.n	10008b66 <pico_get_unique_board_id_string+0x76>
10008c7a:	3137      	adds	r1, #55	; 0x37
10008c7c:	000c      	movs	r4, r1
10008c7e:	e77e      	b.n	10008b7e <pico_get_unique_board_id_string+0x8e>
10008c80:	3407      	adds	r4, #7
10008c82:	e787      	b.n	10008b94 <pico_get_unique_board_id_string+0xa4>
10008c84:	3137      	adds	r1, #55	; 0x37
10008c86:	000c      	movs	r4, r1
10008c88:	e790      	b.n	10008bac <pico_get_unique_board_id_string+0xbc>
10008c8a:	3407      	adds	r4, #7
10008c8c:	e798      	b.n	10008bc0 <pico_get_unique_board_id_string+0xd0>
10008c8e:	3137      	adds	r1, #55	; 0x37
10008c90:	000c      	movs	r4, r1
10008c92:	e7a0      	b.n	10008bd6 <pico_get_unique_board_id_string+0xe6>
10008c94:	3407      	adds	r4, #7
10008c96:	e7a7      	b.n	10008be8 <pico_get_unique_board_id_string+0xf8>
10008c98:	3137      	adds	r1, #55	; 0x37
10008c9a:	000c      	movs	r4, r1
10008c9c:	72c4      	strb	r4, [r0, #11]
10008c9e:	2b0c      	cmp	r3, #12
10008ca0:	d1af      	bne.n	10008c02 <pico_get_unique_board_id_string+0x112>
10008ca2:	18c0      	adds	r0, r0, r3
10008ca4:	e7da      	b.n	10008c5c <pico_get_unique_board_id_string+0x16c>
10008ca6:	46c0      	nop			; (mov r8, r8)
10008ca8:	2000186c 	.word	0x2000186c

10008cac <flash_get_unique_id>:
10008cac:	b530      	push	{r4, r5, lr}
10008cae:	2500      	movs	r5, #0
10008cb0:	b089      	sub	sp, #36	; 0x24
10008cb2:	0004      	movs	r4, r0
10008cb4:	2209      	movs	r2, #9
10008cb6:	2100      	movs	r1, #0
10008cb8:	a801      	add	r0, sp, #4
10008cba:	9500      	str	r5, [sp, #0]
10008cbc:	f7fd f88e 	bl	10005ddc <__wrap_memset>
10008cc0:	2209      	movs	r2, #9
10008cc2:	2100      	movs	r1, #0
10008cc4:	a805      	add	r0, sp, #20
10008cc6:	9504      	str	r5, [sp, #16]
10008cc8:	f7fd f888 	bl	10005ddc <__wrap_memset>
10008ccc:	234b      	movs	r3, #75	; 0x4b
10008cce:	466a      	mov	r2, sp
10008cd0:	4668      	mov	r0, sp
10008cd2:	7013      	strb	r3, [r2, #0]
10008cd4:	a904      	add	r1, sp, #16
10008cd6:	220d      	movs	r2, #13
10008cd8:	f000 fd06 	bl	100096e8 <__flash_do_cmd_veneer>
10008cdc:	2115      	movs	r1, #21
10008cde:	2208      	movs	r2, #8
10008ce0:	0020      	movs	r0, r4
10008ce2:	4469      	add	r1, sp
10008ce4:	f7fd f880 	bl	10005de8 <__wrap___aeabi_memcpy>
10008ce8:	b009      	add	sp, #36	; 0x24
10008cea:	bd30      	pop	{r4, r5, pc}

10008cec <spi_init>:
10008cec:	b5f8      	push	{r3, r4, r5, r6, r7, lr}
10008cee:	4657      	mov	r7, sl
10008cf0:	4682      	mov	sl, r0
10008cf2:	4b37      	ldr	r3, [pc, #220]	; (10008dd0 <spi_init+0xe4>)
10008cf4:	4645      	mov	r5, r8
10008cf6:	4453      	add	r3, sl
10008cf8:	425a      	negs	r2, r3
10008cfa:	4153      	adcs	r3, r2
10008cfc:	2280      	movs	r2, #128	; 0x80
10008cfe:	0292      	lsls	r2, r2, #10
10008d00:	4694      	mov	ip, r2
10008d02:	46de      	mov	lr, fp
10008d04:	464e      	mov	r6, r9
10008d06:	425b      	negs	r3, r3
10008d08:	4a32      	ldr	r2, [pc, #200]	; (10008dd4 <spi_init+0xe8>)
10008d0a:	041b      	lsls	r3, r3, #16
10008d0c:	4463      	add	r3, ip
10008d0e:	b5e0      	push	{r5, r6, r7, lr}
10008d10:	6013      	str	r3, [r2, #0]
10008d12:	4a31      	ldr	r2, [pc, #196]	; (10008dd8 <spi_init+0xec>)
10008d14:	4688      	mov	r8, r1
10008d16:	4931      	ldr	r1, [pc, #196]	; (10008ddc <spi_init+0xf0>)
10008d18:	6013      	str	r3, [r2, #0]
10008d1a:	001d      	movs	r5, r3
10008d1c:	688a      	ldr	r2, [r1, #8]
10008d1e:	4395      	bics	r5, r2
10008d20:	d1fb      	bne.n	10008d1a <spi_init+0x2e>
10008d22:	2006      	movs	r0, #6
10008d24:	f7fa fbc2 	bl	100034ac <clock_get_hz>
10008d28:	4643      	mov	r3, r8
10008d2a:	4641      	mov	r1, r8
10008d2c:	4681      	mov	r9, r0
10008d2e:	2080      	movs	r0, #128	; 0x80
10008d30:	0ddf      	lsrs	r7, r3, #23
10008d32:	025e      	lsls	r6, r3, #9
10008d34:	028a      	lsls	r2, r1, #10
10008d36:	0d9b      	lsrs	r3, r3, #22
10008d38:	2102      	movs	r1, #2
10008d3a:	0040      	lsls	r0, r0, #1
10008d3c:	e005      	b.n	10008d4a <spi_init+0x5e>
10008d3e:	4591      	cmp	r9, r2
10008d40:	d307      	bcc.n	10008d52 <spi_init+0x66>
10008d42:	1992      	adds	r2, r2, r6
10008d44:	417b      	adcs	r3, r7
10008d46:	4281      	cmp	r1, r0
10008d48:	d03d      	beq.n	10008dc6 <spi_init+0xda>
10008d4a:	000c      	movs	r4, r1
10008d4c:	3102      	adds	r1, #2
10008d4e:	2b00      	cmp	r3, #0
10008d50:	d0f5      	beq.n	10008d3e <spi_init+0x52>
10008d52:	2680      	movs	r6, #128	; 0x80
10008d54:	0227      	lsls	r7, r4, #8
10008d56:	1b3f      	subs	r7, r7, r4
10008d58:	0076      	lsls	r6, r6, #1
10008d5a:	e002      	b.n	10008d62 <spi_init+0x76>
10008d5c:	1b3f      	subs	r7, r7, r4
10008d5e:	2e01      	cmp	r6, #1
10008d60:	d033      	beq.n	10008dca <spi_init+0xde>
10008d62:	0039      	movs	r1, r7
10008d64:	4648      	mov	r0, r9
10008d66:	46b3      	mov	fp, r6
10008d68:	3e01      	subs	r6, #1
10008d6a:	f7fc f98d 	bl	10005088 <__wrap___aeabi_uidiv>
10008d6e:	4580      	cmp	r8, r0
10008d70:	d2f4      	bcs.n	10008d5c <spi_init+0x70>
10008d72:	4659      	mov	r1, fp
10008d74:	4361      	muls	r1, r4
10008d76:	0235      	lsls	r5, r6, #8
10008d78:	4653      	mov	r3, sl
10008d7a:	611c      	str	r4, [r3, #16]
10008d7c:	681b      	ldr	r3, [r3, #0]
10008d7e:	4652      	mov	r2, sl
10008d80:	405d      	eors	r5, r3
10008d82:	23ff      	movs	r3, #255	; 0xff
10008d84:	021b      	lsls	r3, r3, #8
10008d86:	401d      	ands	r5, r3
10008d88:	2380      	movs	r3, #128	; 0x80
10008d8a:	2007      	movs	r0, #7
10008d8c:	015b      	lsls	r3, r3, #5
10008d8e:	4313      	orrs	r3, r2
10008d90:	601d      	str	r5, [r3, #0]
10008d92:	6812      	ldr	r2, [r2, #0]
10008d94:	4050      	eors	r0, r2
10008d96:	22cf      	movs	r2, #207	; 0xcf
10008d98:	4002      	ands	r2, r0
10008d9a:	601a      	str	r2, [r3, #0]
10008d9c:	4652      	mov	r2, sl
10008d9e:	2380      	movs	r3, #128	; 0x80
10008da0:	2003      	movs	r0, #3
10008da2:	019b      	lsls	r3, r3, #6
10008da4:	3224      	adds	r2, #36	; 0x24
10008da6:	431a      	orrs	r2, r3
10008da8:	6010      	str	r0, [r2, #0]
10008daa:	4652      	mov	r2, sl
10008dac:	1d10      	adds	r0, r2, #4
10008dae:	4318      	orrs	r0, r3
10008db0:	2302      	movs	r3, #2
10008db2:	6003      	str	r3, [r0, #0]
10008db4:	4648      	mov	r0, r9
10008db6:	f7fc f967 	bl	10005088 <__wrap___aeabi_uidiv>
10008dba:	bc3c      	pop	{r2, r3, r4, r5}
10008dbc:	4690      	mov	r8, r2
10008dbe:	4699      	mov	r9, r3
10008dc0:	46a2      	mov	sl, r4
10008dc2:	46ab      	mov	fp, r5
10008dc4:	bdf8      	pop	{r3, r4, r5, r6, r7, pc}
10008dc6:	000c      	movs	r4, r1
10008dc8:	e7c3      	b.n	10008d52 <spi_init+0x66>
10008dca:	0021      	movs	r1, r4
10008dcc:	e7d4      	b.n	10008d78 <spi_init+0x8c>
10008dce:	46c0      	nop			; (mov r8, r8)
10008dd0:	bffc4000 	.word	0xbffc4000
10008dd4:	4000e000 	.word	0x4000e000
10008dd8:	4000f000 	.word	0x4000f000
10008ddc:	4000c000 	.word	0x4000c000

10008de0 <spi_deinit>:
10008de0:	23c0      	movs	r3, #192	; 0xc0
10008de2:	2102      	movs	r1, #2
10008de4:	1d02      	adds	r2, r0, #4
10008de6:	019b      	lsls	r3, r3, #6
10008de8:	431a      	orrs	r2, r3
10008dea:	6011      	str	r1, [r2, #0]
10008dec:	0002      	movs	r2, r0
10008dee:	3224      	adds	r2, #36	; 0x24
10008df0:	4313      	orrs	r3, r2
10008df2:	2203      	movs	r2, #3
10008df4:	601a      	str	r2, [r3, #0]
10008df6:	4b07      	ldr	r3, [pc, #28]	; (10008e14 <spi_deinit+0x34>)
10008df8:	469c      	mov	ip, r3
10008dfa:	4460      	add	r0, ip
10008dfc:	4243      	negs	r3, r0
10008dfe:	4158      	adcs	r0, r3
10008e00:	2380      	movs	r3, #128	; 0x80
10008e02:	029b      	lsls	r3, r3, #10
10008e04:	469c      	mov	ip, r3
10008e06:	4240      	negs	r0, r0
10008e08:	4b03      	ldr	r3, [pc, #12]	; (10008e18 <spi_deinit+0x38>)
10008e0a:	0400      	lsls	r0, r0, #16
10008e0c:	4460      	add	r0, ip
10008e0e:	6018      	str	r0, [r3, #0]
10008e10:	4770      	bx	lr
10008e12:	46c0      	nop			; (mov r8, r8)
10008e14:	bffc4000 	.word	0xbffc4000
10008e18:	4000e000 	.word	0x4000e000

10008e1c <malloc>:
10008e1c:	b510      	push	{r4, lr}
10008e1e:	4b03      	ldr	r3, [pc, #12]	; (10008e2c <malloc+0x10>)
10008e20:	0001      	movs	r1, r0
10008e22:	6818      	ldr	r0, [r3, #0]
10008e24:	f000 f80e 	bl	10008e44 <_malloc_r>
10008e28:	bd10      	pop	{r4, pc}
10008e2a:	46c0      	nop			; (mov r8, r8)
10008e2c:	200004d0 	.word	0x200004d0

10008e30 <free>:
10008e30:	b510      	push	{r4, lr}
10008e32:	4b03      	ldr	r3, [pc, #12]	; (10008e40 <free+0x10>)
10008e34:	0001      	movs	r1, r0
10008e36:	6818      	ldr	r0, [r3, #0]
10008e38:	f000 fb64 	bl	10009504 <_free_r>
10008e3c:	bd10      	pop	{r4, pc}
10008e3e:	46c0      	nop			; (mov r8, r8)
10008e40:	200004d0 	.word	0x200004d0

10008e44 <_malloc_r>:
10008e44:	b5f0      	push	{r4, r5, r6, r7, lr}
10008e46:	4657      	mov	r7, sl
10008e48:	4645      	mov	r5, r8
10008e4a:	46de      	mov	lr, fp
10008e4c:	464e      	mov	r6, r9
10008e4e:	b5e0      	push	{r5, r6, r7, lr}
10008e50:	000d      	movs	r5, r1
10008e52:	350b      	adds	r5, #11
10008e54:	b083      	sub	sp, #12
10008e56:	0007      	movs	r7, r0
10008e58:	2d16      	cmp	r5, #22
10008e5a:	d822      	bhi.n	10008ea2 <_malloc_r+0x5e>
10008e5c:	2910      	cmp	r1, #16
10008e5e:	d900      	bls.n	10008e62 <_malloc_r+0x1e>
10008e60:	e0bb      	b.n	10008fda <_malloc_r+0x196>
10008e62:	f000 fab5 	bl	100093d0 <__malloc_lock>
10008e66:	2510      	movs	r5, #16
10008e68:	2318      	movs	r3, #24
10008e6a:	2002      	movs	r0, #2
10008e6c:	4ed1      	ldr	r6, [pc, #836]	; (100091b4 <_malloc_r+0x370>)
10008e6e:	18f3      	adds	r3, r6, r3
10008e70:	001a      	movs	r2, r3
10008e72:	685c      	ldr	r4, [r3, #4]
10008e74:	3a08      	subs	r2, #8
10008e76:	4294      	cmp	r4, r2
10008e78:	d100      	bne.n	10008e7c <_malloc_r+0x38>
10008e7a:	e0be      	b.n	10008ffa <_malloc_r+0x1b6>
10008e7c:	2303      	movs	r3, #3
10008e7e:	6862      	ldr	r2, [r4, #4]
10008e80:	439a      	bics	r2, r3
10008e82:	0013      	movs	r3, r2
10008e84:	68e2      	ldr	r2, [r4, #12]
10008e86:	68a1      	ldr	r1, [r4, #8]
10008e88:	60ca      	str	r2, [r1, #12]
10008e8a:	6091      	str	r1, [r2, #8]
10008e8c:	2201      	movs	r2, #1
10008e8e:	18e3      	adds	r3, r4, r3
10008e90:	6859      	ldr	r1, [r3, #4]
10008e92:	0038      	movs	r0, r7
10008e94:	430a      	orrs	r2, r1
10008e96:	605a      	str	r2, [r3, #4]
10008e98:	f000 fa9c 	bl	100093d4 <__malloc_unlock>
10008e9c:	0020      	movs	r0, r4
10008e9e:	3008      	adds	r0, #8
10008ea0:	e09e      	b.n	10008fe0 <_malloc_r+0x19c>
10008ea2:	2307      	movs	r3, #7
10008ea4:	439d      	bics	r5, r3
10008ea6:	d500      	bpl.n	10008eaa <_malloc_r+0x66>
10008ea8:	e097      	b.n	10008fda <_malloc_r+0x196>
10008eaa:	42a9      	cmp	r1, r5
10008eac:	d900      	bls.n	10008eb0 <_malloc_r+0x6c>
10008eae:	e094      	b.n	10008fda <_malloc_r+0x196>
10008eb0:	f000 fa8e 	bl	100093d0 <__malloc_lock>
10008eb4:	23f8      	movs	r3, #248	; 0xf8
10008eb6:	33ff      	adds	r3, #255	; 0xff
10008eb8:	429d      	cmp	r5, r3
10008eba:	d800      	bhi.n	10008ebe <_malloc_r+0x7a>
10008ebc:	e1ad      	b.n	1000921a <_malloc_r+0x3d6>
10008ebe:	0a68      	lsrs	r0, r5, #9
10008ec0:	d100      	bne.n	10008ec4 <_malloc_r+0x80>
10008ec2:	e094      	b.n	10008fee <_malloc_r+0x1aa>
10008ec4:	2804      	cmp	r0, #4
10008ec6:	d900      	bls.n	10008eca <_malloc_r+0x86>
10008ec8:	e180      	b.n	100091cc <_malloc_r+0x388>
10008eca:	2338      	movs	r3, #56	; 0x38
10008ecc:	4698      	mov	r8, r3
10008ece:	09a8      	lsrs	r0, r5, #6
10008ed0:	4480      	add	r8, r0
10008ed2:	3039      	adds	r0, #57	; 0x39
10008ed4:	00c1      	lsls	r1, r0, #3
10008ed6:	4eb7      	ldr	r6, [pc, #732]	; (100091b4 <_malloc_r+0x370>)
10008ed8:	1871      	adds	r1, r6, r1
10008eda:	3908      	subs	r1, #8
10008edc:	68cc      	ldr	r4, [r1, #12]
10008ede:	42a1      	cmp	r1, r4
10008ee0:	d018      	beq.n	10008f14 <_malloc_r+0xd0>
10008ee2:	2303      	movs	r3, #3
10008ee4:	6862      	ldr	r2, [r4, #4]
10008ee6:	439a      	bics	r2, r3
10008ee8:	0013      	movs	r3, r2
10008eea:	1b52      	subs	r2, r2, r5
10008eec:	2a0f      	cmp	r2, #15
10008eee:	dd00      	ble.n	10008ef2 <_malloc_r+0xae>
10008ef0:	e136      	b.n	10009160 <_malloc_r+0x31c>
10008ef2:	2a00      	cmp	r2, #0
10008ef4:	dac6      	bge.n	10008e84 <_malloc_r+0x40>
10008ef6:	2303      	movs	r3, #3
10008ef8:	469c      	mov	ip, r3
10008efa:	e008      	b.n	10008f0e <_malloc_r+0xca>
10008efc:	4662      	mov	r2, ip
10008efe:	6863      	ldr	r3, [r4, #4]
10008f00:	4393      	bics	r3, r2
10008f02:	1b5a      	subs	r2, r3, r5
10008f04:	2a0f      	cmp	r2, #15
10008f06:	dd00      	ble.n	10008f0a <_malloc_r+0xc6>
10008f08:	e12a      	b.n	10009160 <_malloc_r+0x31c>
10008f0a:	2a00      	cmp	r2, #0
10008f0c:	daba      	bge.n	10008e84 <_malloc_r+0x40>
10008f0e:	68e4      	ldr	r4, [r4, #12]
10008f10:	42a1      	cmp	r1, r4
10008f12:	d1f3      	bne.n	10008efc <_malloc_r+0xb8>
10008f14:	0032      	movs	r2, r6
10008f16:	6934      	ldr	r4, [r6, #16]
10008f18:	3208      	adds	r2, #8
10008f1a:	4294      	cmp	r4, r2
10008f1c:	d100      	bne.n	10008f20 <_malloc_r+0xdc>
10008f1e:	e077      	b.n	10009010 <_malloc_r+0x1cc>
10008f20:	2303      	movs	r3, #3
10008f22:	6861      	ldr	r1, [r4, #4]
10008f24:	4399      	bics	r1, r3
10008f26:	4689      	mov	r9, r1
10008f28:	000b      	movs	r3, r1
10008f2a:	1b49      	subs	r1, r1, r5
10008f2c:	290f      	cmp	r1, #15
10008f2e:	dd00      	ble.n	10008f32 <_malloc_r+0xee>
10008f30:	e177      	b.n	10009222 <_malloc_r+0x3de>
10008f32:	6172      	str	r2, [r6, #20]
10008f34:	6132      	str	r2, [r6, #16]
10008f36:	2900      	cmp	r1, #0
10008f38:	daa8      	bge.n	10008e8c <_malloc_r+0x48>
10008f3a:	4a9f      	ldr	r2, [pc, #636]	; (100091b8 <_malloc_r+0x374>)
10008f3c:	4591      	cmp	r9, r2
10008f3e:	d900      	bls.n	10008f42 <_malloc_r+0xfe>
10008f40:	e110      	b.n	10009164 <_malloc_r+0x320>
10008f42:	08da      	lsrs	r2, r3, #3
10008f44:	2301      	movs	r3, #1
10008f46:	1091      	asrs	r1, r2, #2
10008f48:	408b      	lsls	r3, r1
10008f4a:	00d2      	lsls	r2, r2, #3
10008f4c:	6871      	ldr	r1, [r6, #4]
10008f4e:	1992      	adds	r2, r2, r6
10008f50:	430b      	orrs	r3, r1
10008f52:	6891      	ldr	r1, [r2, #8]
10008f54:	6073      	str	r3, [r6, #4]
10008f56:	60e2      	str	r2, [r4, #12]
10008f58:	60a1      	str	r1, [r4, #8]
10008f5a:	6094      	str	r4, [r2, #8]
10008f5c:	60cc      	str	r4, [r1, #12]
10008f5e:	2101      	movs	r1, #1
10008f60:	1082      	asrs	r2, r0, #2
10008f62:	4091      	lsls	r1, r2
10008f64:	4299      	cmp	r1, r3
10008f66:	d859      	bhi.n	1000901c <_malloc_r+0x1d8>
10008f68:	420b      	tst	r3, r1
10008f6a:	d105      	bne.n	10008f78 <_malloc_r+0x134>
10008f6c:	2203      	movs	r2, #3
10008f6e:	4390      	bics	r0, r2
10008f70:	0049      	lsls	r1, r1, #1
10008f72:	3004      	adds	r0, #4
10008f74:	420b      	tst	r3, r1
10008f76:	d0fb      	beq.n	10008f70 <_malloc_r+0x12c>
10008f78:	2303      	movs	r3, #3
10008f7a:	4698      	mov	r8, r3
10008f7c:	00c3      	lsls	r3, r0, #3
10008f7e:	4699      	mov	r9, r3
10008f80:	44b1      	add	r9, r6
10008f82:	46cc      	mov	ip, r9
10008f84:	4682      	mov	sl, r0
10008f86:	4663      	mov	r3, ip
10008f88:	68dc      	ldr	r4, [r3, #12]
10008f8a:	45a4      	cmp	ip, r4
10008f8c:	d107      	bne.n	10008f9e <_malloc_r+0x15a>
10008f8e:	e129      	b.n	100091e4 <_malloc_r+0x3a0>
10008f90:	2a00      	cmp	r2, #0
10008f92:	db00      	blt.n	10008f96 <_malloc_r+0x152>
10008f94:	e132      	b.n	100091fc <_malloc_r+0x3b8>
10008f96:	68e4      	ldr	r4, [r4, #12]
10008f98:	45a4      	cmp	ip, r4
10008f9a:	d100      	bne.n	10008f9e <_malloc_r+0x15a>
10008f9c:	e122      	b.n	100091e4 <_malloc_r+0x3a0>
10008f9e:	4642      	mov	r2, r8
10008fa0:	6863      	ldr	r3, [r4, #4]
10008fa2:	4393      	bics	r3, r2
10008fa4:	1b5a      	subs	r2, r3, r5
10008fa6:	2a0f      	cmp	r2, #15
10008fa8:	ddf2      	ble.n	10008f90 <_malloc_r+0x14c>
10008faa:	2001      	movs	r0, #1
10008fac:	4680      	mov	r8, r0
10008fae:	1961      	adds	r1, r4, r5
10008fb0:	4305      	orrs	r5, r0
10008fb2:	6065      	str	r5, [r4, #4]
10008fb4:	68a0      	ldr	r0, [r4, #8]
10008fb6:	68e5      	ldr	r5, [r4, #12]
10008fb8:	3608      	adds	r6, #8
10008fba:	60c5      	str	r5, [r0, #12]
10008fbc:	60a8      	str	r0, [r5, #8]
10008fbe:	4640      	mov	r0, r8
10008fc0:	60f1      	str	r1, [r6, #12]
10008fc2:	60b1      	str	r1, [r6, #8]
10008fc4:	4310      	orrs	r0, r2
10008fc6:	6048      	str	r0, [r1, #4]
10008fc8:	60ce      	str	r6, [r1, #12]
10008fca:	608e      	str	r6, [r1, #8]
10008fcc:	0038      	movs	r0, r7
10008fce:	50e2      	str	r2, [r4, r3]
10008fd0:	f000 fa00 	bl	100093d4 <__malloc_unlock>
10008fd4:	0020      	movs	r0, r4
10008fd6:	3008      	adds	r0, #8
10008fd8:	e002      	b.n	10008fe0 <_malloc_r+0x19c>
10008fda:	230c      	movs	r3, #12
10008fdc:	2000      	movs	r0, #0
10008fde:	603b      	str	r3, [r7, #0]
10008fe0:	b003      	add	sp, #12
10008fe2:	bc3c      	pop	{r2, r3, r4, r5}
10008fe4:	4690      	mov	r8, r2
10008fe6:	4699      	mov	r9, r3
10008fe8:	46a2      	mov	sl, r4
10008fea:	46ab      	mov	fp, r5
10008fec:	bdf0      	pop	{r4, r5, r6, r7, pc}
10008fee:	2180      	movs	r1, #128	; 0x80
10008ff0:	233f      	movs	r3, #63	; 0x3f
10008ff2:	0089      	lsls	r1, r1, #2
10008ff4:	2040      	movs	r0, #64	; 0x40
10008ff6:	4698      	mov	r8, r3
10008ff8:	e76d      	b.n	10008ed6 <_malloc_r+0x92>
10008ffa:	68dc      	ldr	r4, [r3, #12]
10008ffc:	3002      	adds	r0, #2
10008ffe:	42a3      	cmp	r3, r4
10009000:	d000      	beq.n	10009004 <_malloc_r+0x1c0>
10009002:	e73b      	b.n	10008e7c <_malloc_r+0x38>
10009004:	0032      	movs	r2, r6
10009006:	6934      	ldr	r4, [r6, #16]
10009008:	3208      	adds	r2, #8
1000900a:	4294      	cmp	r4, r2
1000900c:	d000      	beq.n	10009010 <_malloc_r+0x1cc>
1000900e:	e787      	b.n	10008f20 <_malloc_r+0xdc>
10009010:	2101      	movs	r1, #1
10009012:	6873      	ldr	r3, [r6, #4]
10009014:	1082      	asrs	r2, r0, #2
10009016:	4091      	lsls	r1, r2
10009018:	4299      	cmp	r1, r3
1000901a:	d9a5      	bls.n	10008f68 <_malloc_r+0x124>
1000901c:	2303      	movs	r3, #3
1000901e:	68b4      	ldr	r4, [r6, #8]
10009020:	6862      	ldr	r2, [r4, #4]
10009022:	439a      	bics	r2, r3
10009024:	4690      	mov	r8, r2
10009026:	42aa      	cmp	r2, r5
10009028:	d303      	bcc.n	10009032 <_malloc_r+0x1ee>
1000902a:	1b53      	subs	r3, r2, r5
1000902c:	2b0f      	cmp	r3, #15
1000902e:	dd00      	ble.n	10009032 <_malloc_r+0x1ee>
10009030:	e088      	b.n	10009144 <_malloc_r+0x300>
10009032:	0023      	movs	r3, r4
10009034:	4443      	add	r3, r8
10009036:	4a61      	ldr	r2, [pc, #388]	; (100091bc <_malloc_r+0x378>)
10009038:	9301      	str	r3, [sp, #4]
1000903a:	4b61      	ldr	r3, [pc, #388]	; (100091c0 <_malloc_r+0x37c>)
1000903c:	4693      	mov	fp, r2
1000903e:	469a      	mov	sl, r3
10009040:	6812      	ldr	r2, [r2, #0]
10009042:	681b      	ldr	r3, [r3, #0]
10009044:	18eb      	adds	r3, r5, r3
10009046:	3201      	adds	r2, #1
10009048:	d100      	bne.n	1000904c <_malloc_r+0x208>
1000904a:	e139      	b.n	100092c0 <_malloc_r+0x47c>
1000904c:	4a5d      	ldr	r2, [pc, #372]	; (100091c4 <_malloc_r+0x380>)
1000904e:	4694      	mov	ip, r2
10009050:	4463      	add	r3, ip
10009052:	0b1b      	lsrs	r3, r3, #12
10009054:	031b      	lsls	r3, r3, #12
10009056:	9300      	str	r3, [sp, #0]
10009058:	9900      	ldr	r1, [sp, #0]
1000905a:	0038      	movs	r0, r7
1000905c:	f000 f9bc 	bl	100093d8 <_sbrk_r>
10009060:	0003      	movs	r3, r0
10009062:	4681      	mov	r9, r0
10009064:	3301      	adds	r3, #1
10009066:	d100      	bne.n	1000906a <_malloc_r+0x226>
10009068:	e0f6      	b.n	10009258 <_malloc_r+0x414>
1000906a:	9b01      	ldr	r3, [sp, #4]
1000906c:	4283      	cmp	r3, r0
1000906e:	d900      	bls.n	10009072 <_malloc_r+0x22e>
10009070:	e0f0      	b.n	10009254 <_malloc_r+0x410>
10009072:	4651      	mov	r1, sl
10009074:	6849      	ldr	r1, [r1, #4]
10009076:	9b00      	ldr	r3, [sp, #0]
10009078:	468c      	mov	ip, r1
1000907a:	4651      	mov	r1, sl
1000907c:	4463      	add	r3, ip
1000907e:	604b      	str	r3, [r1, #4]
10009080:	9901      	ldr	r1, [sp, #4]
10009082:	001a      	movs	r2, r3
10009084:	4549      	cmp	r1, r9
10009086:	d100      	bne.n	1000908a <_malloc_r+0x246>
10009088:	e14f      	b.n	1000932a <_malloc_r+0x4e6>
1000908a:	465b      	mov	r3, fp
1000908c:	681b      	ldr	r3, [r3, #0]
1000908e:	3301      	adds	r3, #1
10009090:	d100      	bne.n	10009094 <_malloc_r+0x250>
10009092:	e154      	b.n	1000933e <_malloc_r+0x4fa>
10009094:	464b      	mov	r3, r9
10009096:	9901      	ldr	r1, [sp, #4]
10009098:	1a5b      	subs	r3, r3, r1
1000909a:	189a      	adds	r2, r3, r2
1000909c:	4653      	mov	r3, sl
1000909e:	605a      	str	r2, [r3, #4]
100090a0:	2307      	movs	r3, #7
100090a2:	464a      	mov	r2, r9
100090a4:	401a      	ands	r2, r3
100090a6:	9201      	str	r2, [sp, #4]
100090a8:	d100      	bne.n	100090ac <_malloc_r+0x268>
100090aa:	e113      	b.n	100092d4 <_malloc_r+0x490>
100090ac:	2108      	movs	r1, #8
100090ae:	464b      	mov	r3, r9
100090b0:	4689      	mov	r9, r1
100090b2:	1a9b      	subs	r3, r3, r2
100090b4:	4499      	add	r9, r3
100090b6:	9900      	ldr	r1, [sp, #0]
100090b8:	4b43      	ldr	r3, [pc, #268]	; (100091c8 <_malloc_r+0x384>)
100090ba:	4449      	add	r1, r9
100090bc:	1a9b      	subs	r3, r3, r2
100090be:	1a5b      	subs	r3, r3, r1
100090c0:	051b      	lsls	r3, r3, #20
100090c2:	0d1b      	lsrs	r3, r3, #20
100090c4:	9100      	str	r1, [sp, #0]
100090c6:	0038      	movs	r0, r7
100090c8:	0019      	movs	r1, r3
100090ca:	469b      	mov	fp, r3
100090cc:	f000 f984 	bl	100093d8 <_sbrk_r>
100090d0:	1c43      	adds	r3, r0, #1
100090d2:	d100      	bne.n	100090d6 <_malloc_r+0x292>
100090d4:	e14f      	b.n	10009376 <_malloc_r+0x532>
100090d6:	464b      	mov	r3, r9
100090d8:	1ac0      	subs	r0, r0, r3
100090da:	0003      	movs	r3, r0
100090dc:	445b      	add	r3, fp
100090de:	9300      	str	r3, [sp, #0]
100090e0:	4653      	mov	r3, sl
100090e2:	4652      	mov	r2, sl
100090e4:	685b      	ldr	r3, [r3, #4]
100090e6:	2101      	movs	r1, #1
100090e8:	445b      	add	r3, fp
100090ea:	6053      	str	r3, [r2, #4]
100090ec:	464a      	mov	r2, r9
100090ee:	4648      	mov	r0, r9
100090f0:	60b2      	str	r2, [r6, #8]
100090f2:	9a00      	ldr	r2, [sp, #0]
100090f4:	430a      	orrs	r2, r1
100090f6:	6042      	str	r2, [r0, #4]
100090f8:	42b4      	cmp	r4, r6
100090fa:	d100      	bne.n	100090fe <_malloc_r+0x2ba>
100090fc:	e123      	b.n	10009346 <_malloc_r+0x502>
100090fe:	4642      	mov	r2, r8
10009100:	2a0f      	cmp	r2, #15
10009102:	d800      	bhi.n	10009106 <_malloc_r+0x2c2>
10009104:	e121      	b.n	1000934a <_malloc_r+0x506>
10009106:	2007      	movs	r0, #7
10009108:	3a0c      	subs	r2, #12
1000910a:	4382      	bics	r2, r0
1000910c:	6860      	ldr	r0, [r4, #4]
1000910e:	4001      	ands	r1, r0
10009110:	2005      	movs	r0, #5
10009112:	4311      	orrs	r1, r2
10009114:	6061      	str	r1, [r4, #4]
10009116:	18a1      	adds	r1, r4, r2
10009118:	6048      	str	r0, [r1, #4]
1000911a:	6088      	str	r0, [r1, #8]
1000911c:	2a0f      	cmp	r2, #15
1000911e:	d900      	bls.n	10009122 <_malloc_r+0x2de>
10009120:	e134      	b.n	1000938c <_malloc_r+0x548>
10009122:	464a      	mov	r2, r9
10009124:	464c      	mov	r4, r9
10009126:	6852      	ldr	r2, [r2, #4]
10009128:	4651      	mov	r1, sl
1000912a:	6ac9      	ldr	r1, [r1, #44]	; 0x2c
1000912c:	4299      	cmp	r1, r3
1000912e:	d201      	bcs.n	10009134 <_malloc_r+0x2f0>
10009130:	4651      	mov	r1, sl
10009132:	62cb      	str	r3, [r1, #44]	; 0x2c
10009134:	4651      	mov	r1, sl
10009136:	6b09      	ldr	r1, [r1, #48]	; 0x30
10009138:	4299      	cmp	r1, r3
1000913a:	d300      	bcc.n	1000913e <_malloc_r+0x2fa>
1000913c:	e08e      	b.n	1000925c <_malloc_r+0x418>
1000913e:	4651      	mov	r1, sl
10009140:	630b      	str	r3, [r1, #48]	; 0x30
10009142:	e08b      	b.n	1000925c <_malloc_r+0x418>
10009144:	2201      	movs	r2, #1
10009146:	0029      	movs	r1, r5
10009148:	4313      	orrs	r3, r2
1000914a:	4311      	orrs	r1, r2
1000914c:	1965      	adds	r5, r4, r5
1000914e:	6061      	str	r1, [r4, #4]
10009150:	0038      	movs	r0, r7
10009152:	60b5      	str	r5, [r6, #8]
10009154:	606b      	str	r3, [r5, #4]
10009156:	f000 f93d 	bl	100093d4 <__malloc_unlock>
1000915a:	0020      	movs	r0, r4
1000915c:	3008      	adds	r0, #8
1000915e:	e73f      	b.n	10008fe0 <_malloc_r+0x19c>
10009160:	4640      	mov	r0, r8
10009162:	e6d7      	b.n	10008f14 <_malloc_r+0xd0>
10009164:	0a5a      	lsrs	r2, r3, #9
10009166:	2a04      	cmp	r2, #4
10009168:	d96e      	bls.n	10009248 <_malloc_r+0x404>
1000916a:	2a14      	cmp	r2, #20
1000916c:	d900      	bls.n	10009170 <_malloc_r+0x32c>
1000916e:	e0c1      	b.n	100092f4 <_malloc_r+0x4b0>
10009170:	0011      	movs	r1, r2
10009172:	325c      	adds	r2, #92	; 0x5c
10009174:	315b      	adds	r1, #91	; 0x5b
10009176:	00d2      	lsls	r2, r2, #3
10009178:	2308      	movs	r3, #8
1000917a:	425b      	negs	r3, r3
1000917c:	469c      	mov	ip, r3
1000917e:	18b2      	adds	r2, r6, r2
10009180:	4494      	add	ip, r2
10009182:	4663      	mov	r3, ip
10009184:	689a      	ldr	r2, [r3, #8]
10009186:	2303      	movs	r3, #3
10009188:	4698      	mov	r8, r3
1000918a:	4594      	cmp	ip, r2
1000918c:	d100      	bne.n	10009190 <_malloc_r+0x34c>
1000918e:	e09a      	b.n	100092c6 <_malloc_r+0x482>
10009190:	4643      	mov	r3, r8
10009192:	6851      	ldr	r1, [r2, #4]
10009194:	4399      	bics	r1, r3
10009196:	4549      	cmp	r1, r9
10009198:	d902      	bls.n	100091a0 <_malloc_r+0x35c>
1000919a:	6892      	ldr	r2, [r2, #8]
1000919c:	4594      	cmp	ip, r2
1000919e:	d1f7      	bne.n	10009190 <_malloc_r+0x34c>
100091a0:	68d3      	ldr	r3, [r2, #12]
100091a2:	469c      	mov	ip, r3
100091a4:	6873      	ldr	r3, [r6, #4]
100091a6:	4661      	mov	r1, ip
100091a8:	60a2      	str	r2, [r4, #8]
100091aa:	60e1      	str	r1, [r4, #12]
100091ac:	608c      	str	r4, [r1, #8]
100091ae:	60d4      	str	r4, [r2, #12]
100091b0:	e6d5      	b.n	10008f5e <_malloc_r+0x11a>
100091b2:	46c0      	nop			; (mov r8, r8)
100091b4:	20000908 	.word	0x20000908
100091b8:	000001ff 	.word	0x000001ff
100091bc:	20000900 	.word	0x20000900
100091c0:	20000e5c 	.word	0x20000e5c
100091c4:	0000100f 	.word	0x0000100f
100091c8:	00001008 	.word	0x00001008
100091cc:	2814      	cmp	r0, #20
100091ce:	d952      	bls.n	10009276 <_malloc_r+0x432>
100091d0:	2854      	cmp	r0, #84	; 0x54
100091d2:	d900      	bls.n	100091d6 <_malloc_r+0x392>
100091d4:	e096      	b.n	10009304 <_malloc_r+0x4c0>
100091d6:	236e      	movs	r3, #110	; 0x6e
100091d8:	4698      	mov	r8, r3
100091da:	0b28      	lsrs	r0, r5, #12
100091dc:	4480      	add	r8, r0
100091de:	306f      	adds	r0, #111	; 0x6f
100091e0:	00c1      	lsls	r1, r0, #3
100091e2:	e678      	b.n	10008ed6 <_malloc_r+0x92>
100091e4:	2308      	movs	r3, #8
100091e6:	469b      	mov	fp, r3
100091e8:	3b07      	subs	r3, #7
100091ea:	44dc      	add	ip, fp
100091ec:	469b      	mov	fp, r3
100091ee:	44da      	add	sl, fp
100091f0:	4643      	mov	r3, r8
100091f2:	4652      	mov	r2, sl
100091f4:	4213      	tst	r3, r2
100091f6:	d000      	beq.n	100091fa <_malloc_r+0x3b6>
100091f8:	e6c5      	b.n	10008f86 <_malloc_r+0x142>
100091fa:	e04c      	b.n	10009296 <_malloc_r+0x452>
100091fc:	2201      	movs	r2, #1
100091fe:	18e3      	adds	r3, r4, r3
10009200:	6859      	ldr	r1, [r3, #4]
10009202:	0038      	movs	r0, r7
10009204:	430a      	orrs	r2, r1
10009206:	605a      	str	r2, [r3, #4]
10009208:	68e3      	ldr	r3, [r4, #12]
1000920a:	68a2      	ldr	r2, [r4, #8]
1000920c:	60d3      	str	r3, [r2, #12]
1000920e:	609a      	str	r2, [r3, #8]
10009210:	f000 f8e0 	bl	100093d4 <__malloc_unlock>
10009214:	0020      	movs	r0, r4
10009216:	3008      	adds	r0, #8
10009218:	e6e2      	b.n	10008fe0 <_malloc_r+0x19c>
1000921a:	002b      	movs	r3, r5
1000921c:	08e8      	lsrs	r0, r5, #3
1000921e:	3308      	adds	r3, #8
10009220:	e624      	b.n	10008e6c <_malloc_r+0x28>
10009222:	2301      	movs	r3, #1
10009224:	1960      	adds	r0, r4, r5
10009226:	431d      	orrs	r5, r3
10009228:	6065      	str	r5, [r4, #4]
1000922a:	6170      	str	r0, [r6, #20]
1000922c:	6130      	str	r0, [r6, #16]
1000922e:	60c2      	str	r2, [r0, #12]
10009230:	6082      	str	r2, [r0, #8]
10009232:	001a      	movs	r2, r3
10009234:	464b      	mov	r3, r9
10009236:	430a      	orrs	r2, r1
10009238:	6042      	str	r2, [r0, #4]
1000923a:	0038      	movs	r0, r7
1000923c:	50e1      	str	r1, [r4, r3]
1000923e:	f000 f8c9 	bl	100093d4 <__malloc_unlock>
10009242:	0020      	movs	r0, r4
10009244:	3008      	adds	r0, #8
10009246:	e6cb      	b.n	10008fe0 <_malloc_r+0x19c>
10009248:	099a      	lsrs	r2, r3, #6
1000924a:	0011      	movs	r1, r2
1000924c:	3239      	adds	r2, #57	; 0x39
1000924e:	3138      	adds	r1, #56	; 0x38
10009250:	00d2      	lsls	r2, r2, #3
10009252:	e791      	b.n	10009178 <_malloc_r+0x334>
10009254:	42b4      	cmp	r4, r6
10009256:	d060      	beq.n	1000931a <_malloc_r+0x4d6>
10009258:	68b4      	ldr	r4, [r6, #8]
1000925a:	6862      	ldr	r2, [r4, #4]
1000925c:	2303      	movs	r3, #3
1000925e:	439a      	bics	r2, r3
10009260:	1b53      	subs	r3, r2, r5
10009262:	42aa      	cmp	r2, r5
10009264:	d302      	bcc.n	1000926c <_malloc_r+0x428>
10009266:	2b0f      	cmp	r3, #15
10009268:	dd00      	ble.n	1000926c <_malloc_r+0x428>
1000926a:	e76b      	b.n	10009144 <_malloc_r+0x300>
1000926c:	0038      	movs	r0, r7
1000926e:	f000 f8b1 	bl	100093d4 <__malloc_unlock>
10009272:	2000      	movs	r0, #0
10009274:	e6b4      	b.n	10008fe0 <_malloc_r+0x19c>
10009276:	235b      	movs	r3, #91	; 0x5b
10009278:	4698      	mov	r8, r3
1000927a:	4480      	add	r8, r0
1000927c:	305c      	adds	r0, #92	; 0x5c
1000927e:	00c1      	lsls	r1, r0, #3
10009280:	e629      	b.n	10008ed6 <_malloc_r+0x92>
10009282:	2308      	movs	r3, #8
10009284:	425b      	negs	r3, r3
10009286:	469c      	mov	ip, r3
10009288:	44e1      	add	r9, ip
1000928a:	464b      	mov	r3, r9
1000928c:	689b      	ldr	r3, [r3, #8]
1000928e:	3801      	subs	r0, #1
10009290:	454b      	cmp	r3, r9
10009292:	d000      	beq.n	10009296 <_malloc_r+0x452>
10009294:	e097      	b.n	100093c6 <_malloc_r+0x582>
10009296:	4643      	mov	r3, r8
10009298:	4203      	tst	r3, r0
1000929a:	d1f2      	bne.n	10009282 <_malloc_r+0x43e>
1000929c:	6873      	ldr	r3, [r6, #4]
1000929e:	438b      	bics	r3, r1
100092a0:	6073      	str	r3, [r6, #4]
100092a2:	0049      	lsls	r1, r1, #1
100092a4:	4299      	cmp	r1, r3
100092a6:	d900      	bls.n	100092aa <_malloc_r+0x466>
100092a8:	e6b8      	b.n	1000901c <_malloc_r+0x1d8>
100092aa:	2900      	cmp	r1, #0
100092ac:	d104      	bne.n	100092b8 <_malloc_r+0x474>
100092ae:	e6b5      	b.n	1000901c <_malloc_r+0x1d8>
100092b0:	2204      	movs	r2, #4
100092b2:	4694      	mov	ip, r2
100092b4:	0049      	lsls	r1, r1, #1
100092b6:	44e2      	add	sl, ip
100092b8:	420b      	tst	r3, r1
100092ba:	d0f9      	beq.n	100092b0 <_malloc_r+0x46c>
100092bc:	4650      	mov	r0, sl
100092be:	e65d      	b.n	10008f7c <_malloc_r+0x138>
100092c0:	3310      	adds	r3, #16
100092c2:	9300      	str	r3, [sp, #0]
100092c4:	e6c8      	b.n	10009058 <_malloc_r+0x214>
100092c6:	1089      	asrs	r1, r1, #2
100092c8:	3b02      	subs	r3, #2
100092ca:	408b      	lsls	r3, r1
100092cc:	6871      	ldr	r1, [r6, #4]
100092ce:	430b      	orrs	r3, r1
100092d0:	6073      	str	r3, [r6, #4]
100092d2:	e768      	b.n	100091a6 <_malloc_r+0x362>
100092d4:	9b00      	ldr	r3, [sp, #0]
100092d6:	0038      	movs	r0, r7
100092d8:	444b      	add	r3, r9
100092da:	051b      	lsls	r3, r3, #20
100092dc:	425b      	negs	r3, r3
100092de:	0d1b      	lsrs	r3, r3, #20
100092e0:	0019      	movs	r1, r3
100092e2:	469b      	mov	fp, r3
100092e4:	f000 f878 	bl	100093d8 <_sbrk_r>
100092e8:	1c43      	adds	r3, r0, #1
100092ea:	d000      	beq.n	100092ee <_malloc_r+0x4aa>
100092ec:	e6f3      	b.n	100090d6 <_malloc_r+0x292>
100092ee:	2300      	movs	r3, #0
100092f0:	469b      	mov	fp, r3
100092f2:	e6f5      	b.n	100090e0 <_malloc_r+0x29c>
100092f4:	2a54      	cmp	r2, #84	; 0x54
100092f6:	d82a      	bhi.n	1000934e <_malloc_r+0x50a>
100092f8:	0b1a      	lsrs	r2, r3, #12
100092fa:	0011      	movs	r1, r2
100092fc:	326f      	adds	r2, #111	; 0x6f
100092fe:	316e      	adds	r1, #110	; 0x6e
10009300:	00d2      	lsls	r2, r2, #3
10009302:	e739      	b.n	10009178 <_malloc_r+0x334>
10009304:	23aa      	movs	r3, #170	; 0xaa
10009306:	005b      	lsls	r3, r3, #1
10009308:	4298      	cmp	r0, r3
1000930a:	d82a      	bhi.n	10009362 <_malloc_r+0x51e>
1000930c:	3bdd      	subs	r3, #221	; 0xdd
1000930e:	4698      	mov	r8, r3
10009310:	0be8      	lsrs	r0, r5, #15
10009312:	4480      	add	r8, r0
10009314:	3078      	adds	r0, #120	; 0x78
10009316:	00c1      	lsls	r1, r0, #3
10009318:	e5dd      	b.n	10008ed6 <_malloc_r+0x92>
1000931a:	4653      	mov	r3, sl
1000931c:	685b      	ldr	r3, [r3, #4]
1000931e:	9a00      	ldr	r2, [sp, #0]
10009320:	469c      	mov	ip, r3
10009322:	4653      	mov	r3, sl
10009324:	4462      	add	r2, ip
10009326:	605a      	str	r2, [r3, #4]
10009328:	e6af      	b.n	1000908a <_malloc_r+0x246>
1000932a:	0509      	lsls	r1, r1, #20
1000932c:	d000      	beq.n	10009330 <_malloc_r+0x4ec>
1000932e:	e6ac      	b.n	1000908a <_malloc_r+0x246>
10009330:	9a00      	ldr	r2, [sp, #0]
10009332:	68b4      	ldr	r4, [r6, #8]
10009334:	4442      	add	r2, r8
10009336:	3101      	adds	r1, #1
10009338:	430a      	orrs	r2, r1
1000933a:	6062      	str	r2, [r4, #4]
1000933c:	e6f4      	b.n	10009128 <_malloc_r+0x2e4>
1000933e:	465b      	mov	r3, fp
10009340:	464a      	mov	r2, r9
10009342:	601a      	str	r2, [r3, #0]
10009344:	e6ac      	b.n	100090a0 <_malloc_r+0x25c>
10009346:	464c      	mov	r4, r9
10009348:	e6ee      	b.n	10009128 <_malloc_r+0x2e4>
1000934a:	6041      	str	r1, [r0, #4]
1000934c:	e78e      	b.n	1000926c <_malloc_r+0x428>
1000934e:	21aa      	movs	r1, #170	; 0xaa
10009350:	0049      	lsls	r1, r1, #1
10009352:	428a      	cmp	r2, r1
10009354:	d824      	bhi.n	100093a0 <_malloc_r+0x55c>
10009356:	0bda      	lsrs	r2, r3, #15
10009358:	0011      	movs	r1, r2
1000935a:	3278      	adds	r2, #120	; 0x78
1000935c:	3177      	adds	r1, #119	; 0x77
1000935e:	00d2      	lsls	r2, r2, #3
10009360:	e70a      	b.n	10009178 <_malloc_r+0x334>
10009362:	4b1a      	ldr	r3, [pc, #104]	; (100093cc <_malloc_r+0x588>)
10009364:	4298      	cmp	r0, r3
10009366:	d824      	bhi.n	100093b2 <_malloc_r+0x56e>
10009368:	237c      	movs	r3, #124	; 0x7c
1000936a:	4698      	mov	r8, r3
1000936c:	0ca8      	lsrs	r0, r5, #18
1000936e:	4480      	add	r8, r0
10009370:	307d      	adds	r0, #125	; 0x7d
10009372:	00c1      	lsls	r1, r0, #3
10009374:	e5af      	b.n	10008ed6 <_malloc_r+0x92>
10009376:	9a00      	ldr	r2, [sp, #0]
10009378:	9b01      	ldr	r3, [sp, #4]
1000937a:	4694      	mov	ip, r2
1000937c:	464a      	mov	r2, r9
1000937e:	3b08      	subs	r3, #8
10009380:	4463      	add	r3, ip
10009382:	1a9b      	subs	r3, r3, r2
10009384:	9300      	str	r3, [sp, #0]
10009386:	2300      	movs	r3, #0
10009388:	469b      	mov	fp, r3
1000938a:	e6a9      	b.n	100090e0 <_malloc_r+0x29c>
1000938c:	0021      	movs	r1, r4
1000938e:	0038      	movs	r0, r7
10009390:	3108      	adds	r1, #8
10009392:	f000 f8b7 	bl	10009504 <_free_r>
10009396:	4653      	mov	r3, sl
10009398:	68b4      	ldr	r4, [r6, #8]
1000939a:	685b      	ldr	r3, [r3, #4]
1000939c:	6862      	ldr	r2, [r4, #4]
1000939e:	e6c3      	b.n	10009128 <_malloc_r+0x2e4>
100093a0:	490a      	ldr	r1, [pc, #40]	; (100093cc <_malloc_r+0x588>)
100093a2:	428a      	cmp	r2, r1
100093a4:	d80b      	bhi.n	100093be <_malloc_r+0x57a>
100093a6:	0c9a      	lsrs	r2, r3, #18
100093a8:	0011      	movs	r1, r2
100093aa:	327d      	adds	r2, #125	; 0x7d
100093ac:	317c      	adds	r1, #124	; 0x7c
100093ae:	00d2      	lsls	r2, r2, #3
100093b0:	e6e2      	b.n	10009178 <_malloc_r+0x334>
100093b2:	21fe      	movs	r1, #254	; 0xfe
100093b4:	237e      	movs	r3, #126	; 0x7e
100093b6:	0089      	lsls	r1, r1, #2
100093b8:	207f      	movs	r0, #127	; 0x7f
100093ba:	4698      	mov	r8, r3
100093bc:	e58b      	b.n	10008ed6 <_malloc_r+0x92>
100093be:	22fe      	movs	r2, #254	; 0xfe
100093c0:	217e      	movs	r1, #126	; 0x7e
100093c2:	0092      	lsls	r2, r2, #2
100093c4:	e6d8      	b.n	10009178 <_malloc_r+0x334>
100093c6:	6873      	ldr	r3, [r6, #4]
100093c8:	e76b      	b.n	100092a2 <_malloc_r+0x45e>
100093ca:	46c0      	nop			; (mov r8, r8)
100093cc:	00000554 	.word	0x00000554

100093d0 <__malloc_lock>:
100093d0:	4770      	bx	lr
100093d2:	46c0      	nop			; (mov r8, r8)

100093d4 <__malloc_unlock>:
100093d4:	4770      	bx	lr
100093d6:	46c0      	nop			; (mov r8, r8)

100093d8 <_sbrk_r>:
100093d8:	2300      	movs	r3, #0
100093da:	b570      	push	{r4, r5, r6, lr}
100093dc:	4c06      	ldr	r4, [pc, #24]	; (100093f8 <_sbrk_r+0x20>)
100093de:	0005      	movs	r5, r0
100093e0:	0008      	movs	r0, r1
100093e2:	6023      	str	r3, [r4, #0]
100093e4:	f7f9 feca 	bl	1000317c <_sbrk>
100093e8:	1c43      	adds	r3, r0, #1
100093ea:	d000      	beq.n	100093ee <_sbrk_r+0x16>
100093ec:	bd70      	pop	{r4, r5, r6, pc}
100093ee:	6823      	ldr	r3, [r4, #0]
100093f0:	2b00      	cmp	r3, #0
100093f2:	d0fb      	beq.n	100093ec <_sbrk_r+0x14>
100093f4:	602b      	str	r3, [r5, #0]
100093f6:	e7f9      	b.n	100093ec <_sbrk_r+0x14>
100093f8:	20001b70 	.word	0x20001b70

100093fc <strlen>:
100093fc:	b510      	push	{r4, lr}
100093fe:	0783      	lsls	r3, r0, #30
10009400:	d027      	beq.n	10009452 <strlen+0x56>
10009402:	7803      	ldrb	r3, [r0, #0]
10009404:	2b00      	cmp	r3, #0
10009406:	d026      	beq.n	10009456 <strlen+0x5a>
10009408:	0003      	movs	r3, r0
1000940a:	2103      	movs	r1, #3
1000940c:	e002      	b.n	10009414 <strlen+0x18>
1000940e:	781a      	ldrb	r2, [r3, #0]
10009410:	2a00      	cmp	r2, #0
10009412:	d01c      	beq.n	1000944e <strlen+0x52>
10009414:	3301      	adds	r3, #1
10009416:	420b      	tst	r3, r1
10009418:	d1f9      	bne.n	1000940e <strlen+0x12>
1000941a:	6819      	ldr	r1, [r3, #0]
1000941c:	4a0f      	ldr	r2, [pc, #60]	; (1000945c <strlen+0x60>)
1000941e:	4c10      	ldr	r4, [pc, #64]	; (10009460 <strlen+0x64>)
10009420:	188a      	adds	r2, r1, r2
10009422:	438a      	bics	r2, r1
10009424:	4222      	tst	r2, r4
10009426:	d10f      	bne.n	10009448 <strlen+0x4c>
10009428:	3304      	adds	r3, #4
1000942a:	6819      	ldr	r1, [r3, #0]
1000942c:	4a0b      	ldr	r2, [pc, #44]	; (1000945c <strlen+0x60>)
1000942e:	188a      	adds	r2, r1, r2
10009430:	438a      	bics	r2, r1
10009432:	4222      	tst	r2, r4
10009434:	d108      	bne.n	10009448 <strlen+0x4c>
10009436:	3304      	adds	r3, #4
10009438:	6819      	ldr	r1, [r3, #0]
1000943a:	4a08      	ldr	r2, [pc, #32]	; (1000945c <strlen+0x60>)
1000943c:	188a      	adds	r2, r1, r2
1000943e:	438a      	bics	r2, r1
10009440:	4222      	tst	r2, r4
10009442:	d0f1      	beq.n	10009428 <strlen+0x2c>
10009444:	e000      	b.n	10009448 <strlen+0x4c>
10009446:	3301      	adds	r3, #1
10009448:	781a      	ldrb	r2, [r3, #0]
1000944a:	2a00      	cmp	r2, #0
1000944c:	d1fb      	bne.n	10009446 <strlen+0x4a>
1000944e:	1a18      	subs	r0, r3, r0
10009450:	bd10      	pop	{r4, pc}
10009452:	0003      	movs	r3, r0
10009454:	e7e1      	b.n	1000941a <strlen+0x1e>
10009456:	2000      	movs	r0, #0
10009458:	e7fa      	b.n	10009450 <strlen+0x54>
1000945a:	46c0      	nop			; (mov r8, r8)
1000945c:	fefefeff 	.word	0xfefefeff
10009460:	80808080 	.word	0x80808080

10009464 <_malloc_trim_r>:
10009464:	b5f8      	push	{r3, r4, r5, r6, r7, lr}
10009466:	000c      	movs	r4, r1
10009468:	0006      	movs	r6, r0
1000946a:	f7ff ffb1 	bl	100093d0 <__malloc_lock>
1000946e:	4f20      	ldr	r7, [pc, #128]	; (100094f0 <_malloc_trim_r+0x8c>)
10009470:	68bb      	ldr	r3, [r7, #8]
10009472:	685d      	ldr	r5, [r3, #4]
10009474:	2303      	movs	r3, #3
10009476:	439d      	bics	r5, r3
10009478:	4b1e      	ldr	r3, [pc, #120]	; (100094f4 <_malloc_trim_r+0x90>)
1000947a:	1b2c      	subs	r4, r5, r4
1000947c:	469c      	mov	ip, r3
1000947e:	4464      	add	r4, ip
10009480:	0b24      	lsrs	r4, r4, #12
10009482:	4b1d      	ldr	r3, [pc, #116]	; (100094f8 <_malloc_trim_r+0x94>)
10009484:	3c01      	subs	r4, #1
10009486:	0324      	lsls	r4, r4, #12
10009488:	429c      	cmp	r4, r3
1000948a:	dd07      	ble.n	1000949c <_malloc_trim_r+0x38>
1000948c:	2100      	movs	r1, #0
1000948e:	0030      	movs	r0, r6
10009490:	f7ff ffa2 	bl	100093d8 <_sbrk_r>
10009494:	68bb      	ldr	r3, [r7, #8]
10009496:	195b      	adds	r3, r3, r5
10009498:	4298      	cmp	r0, r3
1000949a:	d004      	beq.n	100094a6 <_malloc_trim_r+0x42>
1000949c:	0030      	movs	r0, r6
1000949e:	f7ff ff99 	bl	100093d4 <__malloc_unlock>
100094a2:	2000      	movs	r0, #0
100094a4:	bdf8      	pop	{r3, r4, r5, r6, r7, pc}
100094a6:	4261      	negs	r1, r4
100094a8:	0030      	movs	r0, r6
100094aa:	f7ff ff95 	bl	100093d8 <_sbrk_r>
100094ae:	1c43      	adds	r3, r0, #1
100094b0:	d00d      	beq.n	100094ce <_malloc_trim_r+0x6a>
100094b2:	2201      	movs	r2, #1
100094b4:	68bb      	ldr	r3, [r7, #8]
100094b6:	1b2d      	subs	r5, r5, r4
100094b8:	4315      	orrs	r5, r2
100094ba:	605d      	str	r5, [r3, #4]
100094bc:	4b0f      	ldr	r3, [pc, #60]	; (100094fc <_malloc_trim_r+0x98>)
100094be:	0030      	movs	r0, r6
100094c0:	681a      	ldr	r2, [r3, #0]
100094c2:	1b14      	subs	r4, r2, r4
100094c4:	601c      	str	r4, [r3, #0]
100094c6:	f7ff ff85 	bl	100093d4 <__malloc_unlock>
100094ca:	2001      	movs	r0, #1
100094cc:	e7ea      	b.n	100094a4 <_malloc_trim_r+0x40>
100094ce:	2100      	movs	r1, #0
100094d0:	0030      	movs	r0, r6
100094d2:	f7ff ff81 	bl	100093d8 <_sbrk_r>
100094d6:	68ba      	ldr	r2, [r7, #8]
100094d8:	1a83      	subs	r3, r0, r2
100094da:	2b0f      	cmp	r3, #15
100094dc:	ddde      	ble.n	1000949c <_malloc_trim_r+0x38>
100094de:	4908      	ldr	r1, [pc, #32]	; (10009500 <_malloc_trim_r+0x9c>)
100094e0:	6809      	ldr	r1, [r1, #0]
100094e2:	1a40      	subs	r0, r0, r1
100094e4:	4905      	ldr	r1, [pc, #20]	; (100094fc <_malloc_trim_r+0x98>)
100094e6:	6008      	str	r0, [r1, #0]
100094e8:	2101      	movs	r1, #1
100094ea:	430b      	orrs	r3, r1
100094ec:	6053      	str	r3, [r2, #4]
100094ee:	e7d5      	b.n	1000949c <_malloc_trim_r+0x38>
100094f0:	20000908 	.word	0x20000908
100094f4:	00000fef 	.word	0x00000fef
100094f8:	00000fff 	.word	0x00000fff
100094fc:	20000e60 	.word	0x20000e60
10009500:	20000900 	.word	0x20000900

10009504 <_free_r>:
10009504:	b5f0      	push	{r4, r5, r6, r7, lr}
10009506:	46d6      	mov	lr, sl
10009508:	464f      	mov	r7, r9
1000950a:	4646      	mov	r6, r8
1000950c:	0005      	movs	r5, r0
1000950e:	b5c0      	push	{r6, r7, lr}
10009510:	1e0c      	subs	r4, r1, #0
10009512:	d05c      	beq.n	100095ce <_free_r+0xca>
10009514:	f7ff ff5c 	bl	100093d0 <__malloc_lock>
10009518:	0021      	movs	r1, r4
1000951a:	3908      	subs	r1, #8
1000951c:	684f      	ldr	r7, [r1, #4]
1000951e:	2401      	movs	r4, #1
10009520:	003b      	movs	r3, r7
10009522:	2203      	movs	r2, #3
10009524:	43a3      	bics	r3, r4
10009526:	18c8      	adds	r0, r1, r3
10009528:	6846      	ldr	r6, [r0, #4]
1000952a:	4396      	bics	r6, r2
1000952c:	46b1      	mov	r9, r6
1000952e:	4e66      	ldr	r6, [pc, #408]	; (100096c8 <_free_r+0x1c4>)
10009530:	68b2      	ldr	r2, [r6, #8]
10009532:	4282      	cmp	r2, r0
10009534:	d100      	bne.n	10009538 <_free_r+0x34>
10009536:	e075      	b.n	10009624 <_free_r+0x120>
10009538:	464a      	mov	r2, r9
1000953a:	6042      	str	r2, [r0, #4]
1000953c:	1882      	adds	r2, r0, r2
1000953e:	4694      	mov	ip, r2
10009540:	423c      	tst	r4, r7
10009542:	d129      	bne.n	10009598 <_free_r+0x94>
10009544:	680f      	ldr	r7, [r1, #0]
10009546:	1bc9      	subs	r1, r1, r7
10009548:	688a      	ldr	r2, [r1, #8]
1000954a:	19db      	adds	r3, r3, r7
1000954c:	4690      	mov	r8, r2
1000954e:	4662      	mov	r2, ip
10009550:	6857      	ldr	r7, [r2, #4]
10009552:	2208      	movs	r2, #8
10009554:	4694      	mov	ip, r2
10009556:	4027      	ands	r7, r4
10009558:	44b4      	add	ip, r6
1000955a:	46ba      	mov	sl, r7
1000955c:	45e0      	cmp	r8, ip
1000955e:	d056      	beq.n	1000960e <_free_r+0x10a>
10009560:	68ca      	ldr	r2, [r1, #12]
10009562:	4694      	mov	ip, r2
10009564:	4642      	mov	r2, r8
10009566:	4667      	mov	r7, ip
10009568:	60d7      	str	r7, [r2, #12]
1000956a:	4662      	mov	r2, ip
1000956c:	4647      	mov	r7, r8
1000956e:	6097      	str	r7, [r2, #8]
10009570:	4652      	mov	r2, sl
10009572:	2a00      	cmp	r2, #0
10009574:	d113      	bne.n	1000959e <_free_r+0x9a>
10009576:	2201      	movs	r2, #1
10009578:	444b      	add	r3, r9
1000957a:	18cf      	adds	r7, r1, r3
1000957c:	46bc      	mov	ip, r7
1000957e:	6884      	ldr	r4, [r0, #8]
10009580:	4f52      	ldr	r7, [pc, #328]	; (100096cc <_free_r+0x1c8>)
10009582:	431a      	orrs	r2, r3
10009584:	42bc      	cmp	r4, r7
10009586:	d100      	bne.n	1000958a <_free_r+0x86>
10009588:	e07a      	b.n	10009680 <_free_r+0x17c>
1000958a:	68c0      	ldr	r0, [r0, #12]
1000958c:	60e0      	str	r0, [r4, #12]
1000958e:	6084      	str	r4, [r0, #8]
10009590:	604a      	str	r2, [r1, #4]
10009592:	4662      	mov	r2, ip
10009594:	6013      	str	r3, [r2, #0]
10009596:	e005      	b.n	100095a4 <_free_r+0xa0>
10009598:	6857      	ldr	r7, [r2, #4]
1000959a:	4227      	tst	r7, r4
1000959c:	d0eb      	beq.n	10009576 <_free_r+0x72>
1000959e:	431c      	orrs	r4, r3
100095a0:	604c      	str	r4, [r1, #4]
100095a2:	6003      	str	r3, [r0, #0]
100095a4:	4a4a      	ldr	r2, [pc, #296]	; (100096d0 <_free_r+0x1cc>)
100095a6:	4293      	cmp	r3, r2
100095a8:	d816      	bhi.n	100095d8 <_free_r+0xd4>
100095aa:	08db      	lsrs	r3, r3, #3
100095ac:	3aff      	subs	r2, #255	; 0xff
100095ae:	1098      	asrs	r0, r3, #2
100095b0:	3aff      	subs	r2, #255	; 0xff
100095b2:	4082      	lsls	r2, r0
100095b4:	6870      	ldr	r0, [r6, #4]
100095b6:	00db      	lsls	r3, r3, #3
100095b8:	4302      	orrs	r2, r0
100095ba:	6072      	str	r2, [r6, #4]
100095bc:	199e      	adds	r6, r3, r6
100095be:	68b3      	ldr	r3, [r6, #8]
100095c0:	60ce      	str	r6, [r1, #12]
100095c2:	608b      	str	r3, [r1, #8]
100095c4:	60b1      	str	r1, [r6, #8]
100095c6:	60d9      	str	r1, [r3, #12]
100095c8:	0028      	movs	r0, r5
100095ca:	f7ff ff03 	bl	100093d4 <__malloc_unlock>
100095ce:	bc1c      	pop	{r2, r3, r4}
100095d0:	4690      	mov	r8, r2
100095d2:	4699      	mov	r9, r3
100095d4:	46a2      	mov	sl, r4
100095d6:	bdf0      	pop	{r4, r5, r6, r7, pc}
100095d8:	0a5c      	lsrs	r4, r3, #9
100095da:	2c04      	cmp	r4, #4
100095dc:	d83a      	bhi.n	10009654 <_free_r+0x150>
100095de:	099c      	lsrs	r4, r3, #6
100095e0:	0020      	movs	r0, r4
100095e2:	3439      	adds	r4, #57	; 0x39
100095e4:	3038      	adds	r0, #56	; 0x38
100095e6:	00e4      	lsls	r4, r4, #3
100095e8:	1934      	adds	r4, r6, r4
100095ea:	3c08      	subs	r4, #8
100095ec:	68a2      	ldr	r2, [r4, #8]
100095ee:	2703      	movs	r7, #3
100095f0:	4294      	cmp	r4, r2
100095f2:	d03e      	beq.n	10009672 <_free_r+0x16e>
100095f4:	6850      	ldr	r0, [r2, #4]
100095f6:	43b8      	bics	r0, r7
100095f8:	4298      	cmp	r0, r3
100095fa:	d902      	bls.n	10009602 <_free_r+0xfe>
100095fc:	6892      	ldr	r2, [r2, #8]
100095fe:	4294      	cmp	r4, r2
10009600:	d1f8      	bne.n	100095f4 <_free_r+0xf0>
10009602:	68d4      	ldr	r4, [r2, #12]
10009604:	60cc      	str	r4, [r1, #12]
10009606:	608a      	str	r2, [r1, #8]
10009608:	60a1      	str	r1, [r4, #8]
1000960a:	60d1      	str	r1, [r2, #12]
1000960c:	e7dc      	b.n	100095c8 <_free_r+0xc4>
1000960e:	2f00      	cmp	r7, #0
10009610:	d155      	bne.n	100096be <_free_r+0x1ba>
10009612:	68c2      	ldr	r2, [r0, #12]
10009614:	444b      	add	r3, r9
10009616:	6880      	ldr	r0, [r0, #8]
10009618:	431c      	orrs	r4, r3
1000961a:	60c2      	str	r2, [r0, #12]
1000961c:	6090      	str	r0, [r2, #8]
1000961e:	604c      	str	r4, [r1, #4]
10009620:	50cb      	str	r3, [r1, r3]
10009622:	e7d1      	b.n	100095c8 <_free_r+0xc4>
10009624:	444b      	add	r3, r9
10009626:	423c      	tst	r4, r7
10009628:	d106      	bne.n	10009638 <_free_r+0x134>
1000962a:	680a      	ldr	r2, [r1, #0]
1000962c:	1a89      	subs	r1, r1, r2
1000962e:	6888      	ldr	r0, [r1, #8]
10009630:	189b      	adds	r3, r3, r2
10009632:	68ca      	ldr	r2, [r1, #12]
10009634:	60c2      	str	r2, [r0, #12]
10009636:	6090      	str	r0, [r2, #8]
10009638:	2201      	movs	r2, #1
1000963a:	431a      	orrs	r2, r3
1000963c:	604a      	str	r2, [r1, #4]
1000963e:	4a25      	ldr	r2, [pc, #148]	; (100096d4 <_free_r+0x1d0>)
10009640:	60b1      	str	r1, [r6, #8]
10009642:	6812      	ldr	r2, [r2, #0]
10009644:	429a      	cmp	r2, r3
10009646:	d8bf      	bhi.n	100095c8 <_free_r+0xc4>
10009648:	4b23      	ldr	r3, [pc, #140]	; (100096d8 <_free_r+0x1d4>)
1000964a:	0028      	movs	r0, r5
1000964c:	6819      	ldr	r1, [r3, #0]
1000964e:	f7ff ff09 	bl	10009464 <_malloc_trim_r>
10009652:	e7b9      	b.n	100095c8 <_free_r+0xc4>
10009654:	2c14      	cmp	r4, #20
10009656:	d907      	bls.n	10009668 <_free_r+0x164>
10009658:	2c54      	cmp	r4, #84	; 0x54
1000965a:	d819      	bhi.n	10009690 <_free_r+0x18c>
1000965c:	0b1c      	lsrs	r4, r3, #12
1000965e:	0020      	movs	r0, r4
10009660:	346f      	adds	r4, #111	; 0x6f
10009662:	306e      	adds	r0, #110	; 0x6e
10009664:	00e4      	lsls	r4, r4, #3
10009666:	e7bf      	b.n	100095e8 <_free_r+0xe4>
10009668:	0020      	movs	r0, r4
1000966a:	345c      	adds	r4, #92	; 0x5c
1000966c:	305b      	adds	r0, #91	; 0x5b
1000966e:	00e4      	lsls	r4, r4, #3
10009670:	e7ba      	b.n	100095e8 <_free_r+0xe4>
10009672:	2301      	movs	r3, #1
10009674:	1080      	asrs	r0, r0, #2
10009676:	4083      	lsls	r3, r0
10009678:	6870      	ldr	r0, [r6, #4]
1000967a:	4303      	orrs	r3, r0
1000967c:	6073      	str	r3, [r6, #4]
1000967e:	e7c1      	b.n	10009604 <_free_r+0x100>
10009680:	60e1      	str	r1, [r4, #12]
10009682:	60a1      	str	r1, [r4, #8]
10009684:	604a      	str	r2, [r1, #4]
10009686:	4662      	mov	r2, ip
10009688:	60cc      	str	r4, [r1, #12]
1000968a:	608c      	str	r4, [r1, #8]
1000968c:	6013      	str	r3, [r2, #0]
1000968e:	e79b      	b.n	100095c8 <_free_r+0xc4>
10009690:	20aa      	movs	r0, #170	; 0xaa
10009692:	0040      	lsls	r0, r0, #1
10009694:	4284      	cmp	r4, r0
10009696:	d805      	bhi.n	100096a4 <_free_r+0x1a0>
10009698:	0bdc      	lsrs	r4, r3, #15
1000969a:	0020      	movs	r0, r4
1000969c:	3478      	adds	r4, #120	; 0x78
1000969e:	3077      	adds	r0, #119	; 0x77
100096a0:	00e4      	lsls	r4, r4, #3
100096a2:	e7a1      	b.n	100095e8 <_free_r+0xe4>
100096a4:	480d      	ldr	r0, [pc, #52]	; (100096dc <_free_r+0x1d8>)
100096a6:	4284      	cmp	r4, r0
100096a8:	d805      	bhi.n	100096b6 <_free_r+0x1b2>
100096aa:	0c9c      	lsrs	r4, r3, #18
100096ac:	0020      	movs	r0, r4
100096ae:	347d      	adds	r4, #125	; 0x7d
100096b0:	307c      	adds	r0, #124	; 0x7c
100096b2:	00e4      	lsls	r4, r4, #3
100096b4:	e798      	b.n	100095e8 <_free_r+0xe4>
100096b6:	24fe      	movs	r4, #254	; 0xfe
100096b8:	207e      	movs	r0, #126	; 0x7e
100096ba:	00a4      	lsls	r4, r4, #2
100096bc:	e794      	b.n	100095e8 <_free_r+0xe4>
100096be:	431c      	orrs	r4, r3
100096c0:	604c      	str	r4, [r1, #4]
100096c2:	6003      	str	r3, [r0, #0]
100096c4:	e780      	b.n	100095c8 <_free_r+0xc4>
100096c6:	46c0      	nop			; (mov r8, r8)
100096c8:	20000908 	.word	0x20000908
100096cc:	20000910 	.word	0x20000910
100096d0:	000001ff 	.word	0x000001ff
100096d4:	20000904 	.word	0x20000904
100096d8:	20000e5c 	.word	0x20000e5c
100096dc:	00000554 	.word	0x00000554

100096e0 <_fini>:
100096e0:	b5f8      	push	{r3, r4, r5, r6, r7, lr}
100096e2:	46c0      	nop			; (mov r8, r8)
100096e4:	0000      	movs	r0, r0
	...

100096e8 <__flash_do_cmd_veneer>:
100096e8:	b401      	push	{r0}
100096ea:	4802      	ldr	r0, [pc, #8]	; (100096f4 <__flash_do_cmd_veneer+0xc>)
100096ec:	4684      	mov	ip, r0
100096ee:	bc01      	pop	{r0}
100096f0:	4760      	bx	ip
100096f2:	bf00      	nop
100096f4:	20000289 	.word	0x20000289

100096f8 <__mutex_exit_veneer>:
100096f8:	b401      	push	{r0}
100096fa:	4802      	ldr	r0, [pc, #8]	; (10009704 <__mutex_exit_veneer+0xc>)
100096fc:	4684      	mov	ip, r0
100096fe:	bc01      	pop	{r0}
10009700:	4760      	bx	ip
10009702:	bf00      	nop
10009704:	200001e9 	.word	0x200001e9

10009708 <____aeabi_ldiv0_veneer>:
10009708:	b401      	push	{r0}
1000970a:	4802      	ldr	r0, [pc, #8]	; (10009714 <____aeabi_ldiv0_veneer+0xc>)
1000970c:	4684      	mov	ip, r0
1000970e:	bc01      	pop	{r0}
10009710:	4760      	bx	ip
10009712:	bf00      	nop
10009714:	200003c1 	.word	0x200003c1

10009718 <____aeabi_idiv0_veneer>:
10009718:	b401      	push	{r0}
1000971a:	4802      	ldr	r0, [pc, #8]	; (10009724 <____aeabi_idiv0_veneer+0xc>)
1000971c:	4684      	mov	ip, r0
1000971e:	bc01      	pop	{r0}
10009720:	4760      	bx	ip
10009722:	bf00      	nop
10009724:	200003c1 	.word	0x200003c1

10009728 <__mutex_try_enter_veneer>:
10009728:	b401      	push	{r0}
1000972a:	4802      	ldr	r0, [pc, #8]	; (10009734 <__mutex_try_enter_veneer+0xc>)
1000972c:	4684      	mov	ip, r0
1000972e:	bc01      	pop	{r0}
10009730:	4760      	bx	ip
10009732:	bf00      	nop
10009734:	20000109 	.word	0x20000109

10009738 <__mutex_enter_timeout_ms_veneer>:
10009738:	b401      	push	{r0}
1000973a:	4802      	ldr	r0, [pc, #8]	; (10009744 <__mutex_enter_timeout_ms_veneer+0xc>)
1000973c:	4684      	mov	ip, r0
1000973e:	bc01      	pop	{r0}
10009740:	4760      	bx	ip
10009742:	bf00      	nop
10009744:	20000151 	.word	0x20000151

10009748 <__spi_write_read_blocking_veneer>:
10009748:	b401      	push	{r0}
1000974a:	4802      	ldr	r0, [pc, #8]	; (10009754 <__spi_write_read_blocking_veneer+0xc>)
1000974c:	4684      	mov	ip, r0
1000974e:	bc01      	pop	{r0}
10009750:	4760      	bx	ip
10009752:	bf00      	nop
10009754:	2000034d 	.word	0x2000034d

10009758 <__mutex_enter_blocking_veneer>:
10009758:	b401      	push	{r0}
1000975a:	4802      	ldr	r0, [pc, #8]	; (10009764 <__mutex_enter_blocking_veneer+0xc>)
1000975c:	4684      	mov	ip, r0
1000975e:	bc01      	pop	{r0}
10009760:	4760      	bx	ip
10009762:	bf00      	nop
10009764:	200000c1 	.word	0x200000c1

Disassembly of section .data:

200000c0 <mutex_enter_blocking>:
200000c0:	23d0      	movs	r3, #208	; 0xd0
200000c2:	b530      	push	{r4, r5, lr}
200000c4:	2500      	movs	r5, #0
200000c6:	061b      	lsls	r3, r3, #24
200000c8:	2400      	movs	r4, #0
200000ca:	575d      	ldrsb	r5, [r3, r5]
200000cc:	e006      	b.n	200000dc <mutex_enter_blocking+0x1c>
200000ce:	6803      	ldr	r3, [r0, #0]
200000d0:	f3bf 8f5f 	dmb	sy
200000d4:	601c      	str	r4, [r3, #0]
200000d6:	f381 8810 	msr	PRIMASK, r1
200000da:	bf20      	wfe
200000dc:	6802      	ldr	r2, [r0, #0]
200000de:	f3ef 8110 	mrs	r1, PRIMASK
200000e2:	b672      	cpsid	i
200000e4:	6813      	ldr	r3, [r2, #0]
200000e6:	2b00      	cmp	r3, #0
200000e8:	d0fc      	beq.n	200000e4 <mutex_enter_blocking+0x24>
200000ea:	f3bf 8f5f 	dmb	sy
200000ee:	7903      	ldrb	r3, [r0, #4]
200000f0:	2b7f      	cmp	r3, #127	; 0x7f
200000f2:	d9ec      	bls.n	200000ce <mutex_enter_blocking+0xe>
200000f4:	7105      	strb	r5, [r0, #4]
200000f6:	6803      	ldr	r3, [r0, #0]
200000f8:	f3bf 8f5f 	dmb	sy
200000fc:	2200      	movs	r2, #0
200000fe:	601a      	str	r2, [r3, #0]
20000100:	f381 8810 	msr	PRIMASK, r1
20000104:	bd30      	pop	{r4, r5, pc}
20000106:	46c0      	nop			; (mov r8, r8)

20000108 <mutex_try_enter>:
20000108:	0003      	movs	r3, r0
2000010a:	b510      	push	{r4, lr}
2000010c:	6800      	ldr	r0, [r0, #0]
2000010e:	f3ef 8410 	mrs	r4, PRIMASK
20000112:	b672      	cpsid	i
20000114:	6802      	ldr	r2, [r0, #0]
20000116:	2a00      	cmp	r2, #0
20000118:	d0fc      	beq.n	20000114 <mutex_try_enter+0xc>
2000011a:	f3bf 8f5f 	dmb	sy
2000011e:	2204      	movs	r2, #4
20000120:	569a      	ldrsb	r2, [r3, r2]
20000122:	2a00      	cmp	r2, #0
20000124:	db0b      	blt.n	2000013e <mutex_try_enter+0x36>
20000126:	2900      	cmp	r1, #0
20000128:	d00f      	beq.n	2000014a <mutex_try_enter+0x42>
2000012a:	2000      	movs	r0, #0
2000012c:	600a      	str	r2, [r1, #0]
2000012e:	681b      	ldr	r3, [r3, #0]
20000130:	f3bf 8f5f 	dmb	sy
20000134:	2200      	movs	r2, #0
20000136:	601a      	str	r2, [r3, #0]
20000138:	f384 8810 	msr	PRIMASK, r4
2000013c:	bd10      	pop	{r4, pc}
2000013e:	22d0      	movs	r2, #208	; 0xd0
20000140:	0612      	lsls	r2, r2, #24
20000142:	6812      	ldr	r2, [r2, #0]
20000144:	2001      	movs	r0, #1
20000146:	711a      	strb	r2, [r3, #4]
20000148:	e7f1      	b.n	2000012e <mutex_try_enter+0x26>
2000014a:	2000      	movs	r0, #0
2000014c:	e7ef      	b.n	2000012e <mutex_try_enter+0x26>
2000014e:	46c0      	nop			; (mov r8, r8)

20000150 <mutex_enter_timeout_ms>:
20000150:	b5f0      	push	{r4, r5, r6, r7, lr}
20000152:	46c6      	mov	lr, r8
20000154:	b500      	push	{lr}
20000156:	000c      	movs	r4, r1
20000158:	4680      	mov	r8, r0
2000015a:	f000 f93d 	bl	200003d8 <__time_us_64_veneer>
2000015e:	22fa      	movs	r2, #250	; 0xfa
20000160:	0006      	movs	r6, r0
20000162:	000f      	movs	r7, r1
20000164:	0020      	movs	r0, r4
20000166:	2300      	movs	r3, #0
20000168:	2100      	movs	r1, #0
2000016a:	0092      	lsls	r2, r2, #2
2000016c:	f000 f92c 	bl	200003c8 <____wrap___aeabi_lmul_veneer>
20000170:	1980      	adds	r0, r0, r6
20000172:	4179      	adcs	r1, r7
20000174:	0004      	movs	r4, r0
20000176:	000d      	movs	r5, r1
20000178:	428f      	cmp	r7, r1
2000017a:	d82f      	bhi.n	200001dc <mutex_enter_timeout_ms+0x8c>
2000017c:	d02c      	beq.n	200001d8 <mutex_enter_timeout_ms+0x88>
2000017e:	23d0      	movs	r3, #208	; 0xd0
20000180:	061b      	lsls	r3, r3, #24
20000182:	2600      	movs	r6, #0
20000184:	681f      	ldr	r7, [r3, #0]
20000186:	e00c      	b.n	200001a2 <mutex_enter_timeout_ms+0x52>
20000188:	4642      	mov	r2, r8
2000018a:	6812      	ldr	r2, [r2, #0]
2000018c:	f3bf 8f5f 	dmb	sy
20000190:	6016      	str	r6, [r2, #0]
20000192:	f383 8810 	msr	PRIMASK, r3
20000196:	0020      	movs	r0, r4
20000198:	0029      	movs	r1, r5
2000019a:	f000 f925 	bl	200003e8 <__best_effort_wfe_or_timeout_veneer>
2000019e:	2800      	cmp	r0, #0
200001a0:	d120      	bne.n	200001e4 <mutex_enter_timeout_ms+0x94>
200001a2:	4643      	mov	r3, r8
200001a4:	681a      	ldr	r2, [r3, #0]
200001a6:	f3ef 8310 	mrs	r3, PRIMASK
200001aa:	b672      	cpsid	i
200001ac:	6811      	ldr	r1, [r2, #0]
200001ae:	2900      	cmp	r1, #0
200001b0:	d0fc      	beq.n	200001ac <mutex_enter_timeout_ms+0x5c>
200001b2:	f3bf 8f5f 	dmb	sy
200001b6:	4642      	mov	r2, r8
200001b8:	7912      	ldrb	r2, [r2, #4]
200001ba:	2a7f      	cmp	r2, #127	; 0x7f
200001bc:	d9e4      	bls.n	20000188 <mutex_enter_timeout_ms+0x38>
200001be:	4642      	mov	r2, r8
200001c0:	7117      	strb	r7, [r2, #4]
200001c2:	6812      	ldr	r2, [r2, #0]
200001c4:	f3bf 8f5f 	dmb	sy
200001c8:	2100      	movs	r1, #0
200001ca:	6011      	str	r1, [r2, #0]
200001cc:	f383 8810 	msr	PRIMASK, r3
200001d0:	2001      	movs	r0, #1
200001d2:	bc04      	pop	{r2}
200001d4:	4690      	mov	r8, r2
200001d6:	bdf0      	pop	{r4, r5, r6, r7, pc}
200001d8:	4286      	cmp	r6, r0
200001da:	d9d0      	bls.n	2000017e <mutex_enter_timeout_ms+0x2e>
200001dc:	2401      	movs	r4, #1
200001de:	4264      	negs	r4, r4
200001e0:	17e5      	asrs	r5, r4, #31
200001e2:	e7cc      	b.n	2000017e <mutex_enter_timeout_ms+0x2e>
200001e4:	2000      	movs	r0, #0
200001e6:	e7f4      	b.n	200001d2 <mutex_enter_timeout_ms+0x82>

200001e8 <mutex_exit>:
200001e8:	6802      	ldr	r2, [r0, #0]
200001ea:	f3ef 8110 	mrs	r1, PRIMASK
200001ee:	b672      	cpsid	i
200001f0:	6813      	ldr	r3, [r2, #0]
200001f2:	2b00      	cmp	r3, #0
200001f4:	d0fc      	beq.n	200001f0 <mutex_exit+0x8>
200001f6:	f3bf 8f5f 	dmb	sy
200001fa:	23ff      	movs	r3, #255	; 0xff
200001fc:	7103      	strb	r3, [r0, #4]
200001fe:	6803      	ldr	r3, [r0, #0]
20000200:	f3bf 8f5f 	dmb	sy
20000204:	2200      	movs	r2, #0
20000206:	601a      	str	r2, [r3, #0]
20000208:	f381 8810 	msr	PRIMASK, r1
2000020c:	bf40      	sev
2000020e:	4770      	bx	lr

20000210 <flash_init_boot2_copyout>:
20000210:	4808      	ldr	r0, [pc, #32]	; (20000234 <flash_init_boot2_copyout+0x24>)
20000212:	b510      	push	{r4, lr}
20000214:	7803      	ldrb	r3, [r0, #0]
20000216:	2b00      	cmp	r3, #0
20000218:	d10a      	bne.n	20000230 <flash_init_boot2_copyout+0x20>
2000021a:	2380      	movs	r3, #128	; 0x80
2000021c:	4906      	ldr	r1, [pc, #24]	; (20000238 <flash_init_boot2_copyout+0x28>)
2000021e:	4a07      	ldr	r2, [pc, #28]	; (2000023c <flash_init_boot2_copyout+0x2c>)
20000220:	055b      	lsls	r3, r3, #21
20000222:	681c      	ldr	r4, [r3, #0]
20000224:	50cc      	str	r4, [r1, r3]
20000226:	3304      	adds	r3, #4
20000228:	4293      	cmp	r3, r2
2000022a:	d1fa      	bne.n	20000222 <flash_init_boot2_copyout+0x12>
2000022c:	2301      	movs	r3, #1
2000022e:	7003      	strb	r3, [r0, #0]
20000230:	bd10      	pop	{r4, pc}
20000232:	46c0      	nop			; (mov r8, r8)
20000234:	200018a7 	.word	0x200018a7
20000238:	10001240 	.word	0x10001240
2000023c:	10000100 	.word	0x10000100

20000240 <flash_enable_xip_via_boot2>:
20000240:	b510      	push	{r4, lr}
20000242:	4b02      	ldr	r3, [pc, #8]	; (2000024c <flash_enable_xip_via_boot2+0xc>)
20000244:	3301      	adds	r3, #1
20000246:	4798      	blx	r3
20000248:	bd10      	pop	{r4, pc}
2000024a:	46c0      	nop			; (mov r8, r8)
2000024c:	20001240 	.word	0x20001240

20000250 <flash_cs_force.constprop.0>:
20000250:	4b05      	ldr	r3, [pc, #20]	; (20000268 <flash_cs_force.constprop.0+0x18>)
20000252:	681a      	ldr	r2, [r3, #0]
20000254:	2380      	movs	r3, #128	; 0x80
20000256:	009b      	lsls	r3, r3, #2
20000258:	4053      	eors	r3, r2
2000025a:	22c0      	movs	r2, #192	; 0xc0
2000025c:	0092      	lsls	r2, r2, #2
2000025e:	4013      	ands	r3, r2
20000260:	4a02      	ldr	r2, [pc, #8]	; (2000026c <flash_cs_force.constprop.0+0x1c>)
20000262:	6013      	str	r3, [r2, #0]
20000264:	4770      	bx	lr
20000266:	46c0      	nop			; (mov r8, r8)
20000268:	4001800c 	.word	0x4001800c
2000026c:	4001900c 	.word	0x4001900c

20000270 <flash_cs_force.constprop.1>:
20000270:	4b03      	ldr	r3, [pc, #12]	; (20000280 <flash_cs_force.constprop.1+0x10>)
20000272:	681a      	ldr	r2, [r3, #0]
20000274:	23c0      	movs	r3, #192	; 0xc0
20000276:	009b      	lsls	r3, r3, #2
20000278:	4393      	bics	r3, r2
2000027a:	4a02      	ldr	r2, [pc, #8]	; (20000284 <flash_cs_force.constprop.1+0x14>)
2000027c:	6013      	str	r3, [r2, #0]
2000027e:	4770      	bx	lr
20000280:	4001800c 	.word	0x4001800c
20000284:	4001900c 	.word	0x4001900c

20000288 <flash_do_cmd>:
20000288:	2314      	movs	r3, #20
2000028a:	b5f0      	push	{r4, r5, r6, r7, lr}
2000028c:	46d6      	mov	lr, sl
2000028e:	464f      	mov	r7, r9
20000290:	4646      	mov	r6, r8
20000292:	469a      	mov	sl, r3
20000294:	4681      	mov	r9, r0
20000296:	8818      	ldrh	r0, [r3, #0]
20000298:	3304      	adds	r3, #4
2000029a:	b5c0      	push	{r6, r7, lr}
2000029c:	4698      	mov	r8, r3
2000029e:	000e      	movs	r6, r1
200002a0:	881b      	ldrh	r3, [r3, #0]
200002a2:	4927      	ldr	r1, [pc, #156]	; (20000340 <flash_do_cmd+0xb8>)
200002a4:	0014      	movs	r4, r2
200002a6:	4798      	blx	r3
200002a8:	4653      	mov	r3, sl
200002aa:	0007      	movs	r7, r0
200002ac:	8818      	ldrh	r0, [r3, #0]
200002ae:	4643      	mov	r3, r8
200002b0:	4924      	ldr	r1, [pc, #144]	; (20000344 <flash_do_cmd+0xbc>)
200002b2:	881b      	ldrh	r3, [r3, #0]
200002b4:	4798      	blx	r3
200002b6:	4653      	mov	r3, sl
200002b8:	0005      	movs	r5, r0
200002ba:	8818      	ldrh	r0, [r3, #0]
200002bc:	4643      	mov	r3, r8
200002be:	4922      	ldr	r1, [pc, #136]	; (20000348 <flash_do_cmd+0xc0>)
200002c0:	881b      	ldrh	r3, [r3, #0]
200002c2:	4798      	blx	r3
200002c4:	4680      	mov	r8, r0
200002c6:	f7ff ffa3 	bl	20000210 <flash_init_boot2_copyout>
200002ca:	47b8      	blx	r7
200002cc:	47a8      	blx	r5
200002ce:	f7ff ffbf 	bl	20000250 <flash_cs_force.constprop.0>
200002d2:	2c00      	cmp	r4, #0
200002d4:	d01b      	beq.n	2000030e <flash_do_cmd+0x86>
200002d6:	21c0      	movs	r1, #192	; 0xc0
200002d8:	0022      	movs	r2, r4
200002da:	2708      	movs	r7, #8
200002dc:	2002      	movs	r0, #2
200002de:	0549      	lsls	r1, r1, #21
200002e0:	003d      	movs	r5, r7
200002e2:	6a8b      	ldr	r3, [r1, #40]	; 0x28
200002e4:	401d      	ands	r5, r3
200002e6:	4218      	tst	r0, r3
200002e8:	d00b      	beq.n	20000302 <flash_do_cmd+0x7a>
200002ea:	2c00      	cmp	r4, #0
200002ec:	d009      	beq.n	20000302 <flash_do_cmd+0x7a>
200002ee:	1b13      	subs	r3, r2, r4
200002f0:	2b0d      	cmp	r3, #13
200002f2:	d81f      	bhi.n	20000334 <flash_do_cmd+0xac>
200002f4:	464b      	mov	r3, r9
200002f6:	781b      	ldrb	r3, [r3, #0]
200002f8:	3c01      	subs	r4, #1
200002fa:	660b      	str	r3, [r1, #96]	; 0x60
200002fc:	2301      	movs	r3, #1
200002fe:	469c      	mov	ip, r3
20000300:	44e1      	add	r9, ip
20000302:	0023      	movs	r3, r4
20000304:	2d00      	cmp	r5, #0
20000306:	d10c      	bne.n	20000322 <flash_do_cmd+0x9a>
20000308:	4313      	orrs	r3, r2
2000030a:	2b00      	cmp	r3, #0
2000030c:	d1e8      	bne.n	200002e0 <flash_do_cmd+0x58>
2000030e:	f7ff ffaf 	bl	20000270 <flash_cs_force.constprop.1>
20000312:	47c0      	blx	r8
20000314:	f7ff ff94 	bl	20000240 <flash_enable_xip_via_boot2>
20000318:	bc1c      	pop	{r2, r3, r4}
2000031a:	4690      	mov	r8, r2
2000031c:	4699      	mov	r9, r3
2000031e:	46a2      	mov	sl, r4
20000320:	bdf0      	pop	{r4, r5, r6, r7, pc}
20000322:	2a00      	cmp	r2, #0
20000324:	d0f1      	beq.n	2000030a <flash_do_cmd+0x82>
20000326:	6e0b      	ldr	r3, [r1, #96]	; 0x60
20000328:	3a01      	subs	r2, #1
2000032a:	7033      	strb	r3, [r6, #0]
2000032c:	0013      	movs	r3, r2
2000032e:	3601      	adds	r6, #1
20000330:	4323      	orrs	r3, r4
20000332:	e7ea      	b.n	2000030a <flash_do_cmd+0x82>
20000334:	2d00      	cmp	r5, #0
20000336:	d0d3      	beq.n	200002e0 <flash_do_cmd+0x58>
20000338:	2a00      	cmp	r2, #0
2000033a:	d0d1      	beq.n	200002e0 <flash_do_cmd+0x58>
2000033c:	e7f3      	b.n	20000326 <flash_do_cmd+0x9e>
2000033e:	46c0      	nop			; (mov r8, r8)
20000340:	00004649 	.word	0x00004649
20000344:	00005845 	.word	0x00005845
20000348:	00004346 	.word	0x00004346

2000034c <spi_write_read_blocking>:
2000034c:	b5f0      	push	{r4, r5, r6, r7, lr}
2000034e:	464f      	mov	r7, r9
20000350:	4646      	mov	r6, r8
20000352:	46d6      	mov	lr, sl
20000354:	4689      	mov	r9, r1
20000356:	b5c0      	push	{r6, r7, lr}
20000358:	0006      	movs	r6, r0
2000035a:	1e18      	subs	r0, r3, #0
2000035c:	d01b      	beq.n	20000396 <spi_write_read_blocking+0x4a>
2000035e:	001d      	movs	r5, r3
20000360:	001c      	movs	r4, r3
20000362:	2302      	movs	r3, #2
20000364:	4698      	mov	r8, r3
20000366:	3302      	adds	r3, #2
20000368:	469c      	mov	ip, r3
2000036a:	2d00      	cmp	r5, #0
2000036c:	d018      	beq.n	200003a0 <spi_write_read_blocking+0x54>
2000036e:	002b      	movs	r3, r5
20000370:	3308      	adds	r3, #8
20000372:	4641      	mov	r1, r8
20000374:	68f7      	ldr	r7, [r6, #12]
20000376:	4239      	tst	r1, r7
20000378:	d01f      	beq.n	200003ba <spi_write_read_blocking+0x6e>
2000037a:	42a3      	cmp	r3, r4
2000037c:	d91d      	bls.n	200003ba <spi_write_read_blocking+0x6e>
2000037e:	2101      	movs	r1, #1
20000380:	464b      	mov	r3, r9
20000382:	468a      	mov	sl, r1
20000384:	781b      	ldrb	r3, [r3, #0]
20000386:	3d01      	subs	r5, #1
20000388:	60b3      	str	r3, [r6, #8]
2000038a:	44d1      	add	r9, sl
2000038c:	002b      	movs	r3, r5
2000038e:	2c00      	cmp	r4, #0
20000390:	d108      	bne.n	200003a4 <spi_write_read_blocking+0x58>
20000392:	2b00      	cmp	r3, #0
20000394:	d1e9      	bne.n	2000036a <spi_write_read_blocking+0x1e>
20000396:	bc1c      	pop	{r2, r3, r4}
20000398:	4690      	mov	r8, r2
2000039a:	4699      	mov	r9, r3
2000039c:	46a2      	mov	sl, r4
2000039e:	bdf0      	pop	{r4, r5, r6, r7, pc}
200003a0:	2c00      	cmp	r4, #0
200003a2:	d0f8      	beq.n	20000396 <spi_write_read_blocking+0x4a>
200003a4:	4663      	mov	r3, ip
200003a6:	68f7      	ldr	r7, [r6, #12]
200003a8:	423b      	tst	r3, r7
200003aa:	d0de      	beq.n	2000036a <spi_write_read_blocking+0x1e>
200003ac:	68b3      	ldr	r3, [r6, #8]
200003ae:	3c01      	subs	r4, #1
200003b0:	7013      	strb	r3, [r2, #0]
200003b2:	0023      	movs	r3, r4
200003b4:	3201      	adds	r2, #1
200003b6:	432b      	orrs	r3, r5
200003b8:	e7eb      	b.n	20000392 <spi_write_read_blocking+0x46>
200003ba:	2c00      	cmp	r4, #0
200003bc:	d1f2      	bne.n	200003a4 <spi_write_read_blocking+0x58>
200003be:	e7d8      	b.n	20000372 <spi_write_read_blocking+0x26>

200003c0 <__aeabi_idiv0>:
200003c0:	4770      	bx	lr
200003c2:	46c0      	nop			; (mov r8, r8)
200003c4:	0000      	movs	r0, r0
	...

200003c8 <____wrap___aeabi_lmul_veneer>:
200003c8:	b401      	push	{r0}
200003ca:	4802      	ldr	r0, [pc, #8]	; (200003d4 <____wrap___aeabi_lmul_veneer+0xc>)
200003cc:	4684      	mov	ip, r0
200003ce:	bc01      	pop	{r0}
200003d0:	4760      	bx	ip
200003d2:	bf00      	nop
200003d4:	10005d01 	.word	0x10005d01

200003d8 <__time_us_64_veneer>:
200003d8:	b401      	push	{r0}
200003da:	4802      	ldr	r0, [pc, #8]	; (200003e4 <__time_us_64_veneer+0xc>)
200003dc:	4684      	mov	ip, r0
200003de:	bc01      	pop	{r0}
200003e0:	4760      	bx	ip
200003e2:	bf00      	nop
200003e4:	10002a0d 	.word	0x10002a0d

200003e8 <__best_effort_wfe_or_timeout_veneer>:
200003e8:	b401      	push	{r0}
200003ea:	4802      	ldr	r0, [pc, #8]	; (200003f4 <__best_effort_wfe_or_timeout_veneer+0xc>)
200003ec:	4684      	mov	ip, r0
200003ee:	bc01      	pop	{r0}
200003f0:	4760      	bx	ip
200003f2:	bf00      	nop
200003f4:	10002869 	.word	0x10002869

200003f8 <striped_spin_lock_num>:
200003f8:	00000010                                ....

200003fc <default_alarm_pool>:
200003fc:	20000414 00000000 20000d38 2000136c     ... ....8.. l.. 
	...

20000414 <default_alarm_pool_heap>:
20000414:	2000137c 00000000 00000000 00000010     |.. ............

20000424 <irq_handler_chain_slots>:
20000424:	00000000 	.word	0x00000000
20000428:	00010000 	.word	0x00010000
	...
20000434:	00020000 	.word	0x00020000
	...
20000440:	00030000 	.word	0x00030000
	...
2000044c:	00ff0000 	.word	0x00ff0000
20000450:	00000000 	.word	0x00000000

20000454 <irq_handler_chain_first_slot>:
20000454:	b500      	push	{lr}
20000456:	6848      	ldr	r0, [r1, #4]
20000458:	3101      	adds	r1, #1
2000045a:	468e      	mov	lr, r1
2000045c:	4700      	bx	r0

2000045e <irq_handler_chain_remove_tail>:
2000045e:	4670      	mov	r0, lr
20000460:	3809      	subs	r0, #9
20000462:	4901      	ldr	r1, [pc, #4]	; (20000468 <irq_handler_chain_remove_tail+0xa>)
20000464:	4788      	blx	r1
20000466:	bd00      	pop	{pc}
20000468:	10003709 	.word	0x10003709
2000046c:	00000000 	.word	0x00000000

20000470 <aeabi_bits_funcs>:
20000470:	00003350 	.word	0x00003350
20000474:	0000334c 	.word	0x0000334c
20000478:	00003354 	.word	0x00003354
2000047c:	00003352 	.word	0x00003352

20000480 <aeabi_bits_funcs_end>:
20000480:	0000534d 	.word	0x0000534d
20000484:	0000434d 	.word	0x0000434d
20000488:	00003453 	.word	0x00003453
2000048c:	00003443 	.word	0x00003443

20000490 <stdio_usb>:
20000490:	1000647d 00000000 10006415 00000000     }d.......d......
200004a0:	00000100                                ....

200004a4 <ep_dir_string>:
200004a4:	10009e30 10009e34                       0...4...

200004ac <_usbd_qdef>:
200004ac:	20001ab0 000c0010 ffe00000 0000001f     ... ............
	...

200004d0 <_impure_ptr>:
200004d0:	200004d8 00000000                       ... ....

200004d8 <impure_data>:
200004d8:	00000000 200007c4 2000082c 20000894     ....... ,.. ... 
	...
20000580:	00000001 00000000 abcd330e e66d1234     .........3..4.m.
20000590:	0005deec 0000000b 00000000 00000000     ................
	...

20000900 <__malloc_sbrk_base>:
20000900:	ffffffff                                ....

20000904 <__malloc_trim_threshold>:
20000904:	00020000                                ....

20000908 <__malloc_av_>:
	...
20000910:	20000908 20000908 20000910 20000910     ... ... ... ... 
20000920:	20000918 20000918 20000920 20000920     ... ...  ..  .. 
20000930:	20000928 20000928 20000930 20000930     (.. (.. 0.. 0.. 
20000940:	20000938 20000938 20000940 20000940     8.. 8.. @.. @.. 
20000950:	20000948 20000948 20000950 20000950     H.. H.. P.. P.. 
20000960:	20000958 20000958 20000960 20000960     X.. X.. `.. `.. 
20000970:	20000968 20000968 20000970 20000970     h.. h.. p.. p.. 
20000980:	20000978 20000978 20000980 20000980     x.. x.. ... ... 
20000990:	20000988 20000988 20000990 20000990     ... ... ... ... 
200009a0:	20000998 20000998 200009a0 200009a0     ... ... ... ... 
200009b0:	200009a8 200009a8 200009b0 200009b0     ... ... ... ... 
200009c0:	200009b8 200009b8 200009c0 200009c0     ... ... ... ... 
200009d0:	200009c8 200009c8 200009d0 200009d0     ... ... ... ... 
200009e0:	200009d8 200009d8 200009e0 200009e0     ... ... ... ... 
200009f0:	200009e8 200009e8 200009f0 200009f0     ... ... ... ... 
20000a00:	200009f8 200009f8 20000a00 20000a00     ... ... ... ... 
20000a10:	20000a08 20000a08 20000a10 20000a10     ... ... ... ... 
20000a20:	20000a18 20000a18 20000a20 20000a20     ... ...  ..  .. 
20000a30:	20000a28 20000a28 20000a30 20000a30     (.. (.. 0.. 0.. 
20000a40:	20000a38 20000a38 20000a40 20000a40     8.. 8.. @.. @.. 
20000a50:	20000a48 20000a48 20000a50 20000a50     H.. H.. P.. P.. 
20000a60:	20000a58 20000a58 20000a60 20000a60     X.. X.. `.. `.. 
20000a70:	20000a68 20000a68 20000a70 20000a70     h.. h.. p.. p.. 
20000a80:	20000a78 20000a78 20000a80 20000a80     x.. x.. ... ... 
20000a90:	20000a88 20000a88 20000a90 20000a90     ... ... ... ... 
20000aa0:	20000a98 20000a98 20000aa0 20000aa0     ... ... ... ... 
20000ab0:	20000aa8 20000aa8 20000ab0 20000ab0     ... ... ... ... 
20000ac0:	20000ab8 20000ab8 20000ac0 20000ac0     ... ... ... ... 
20000ad0:	20000ac8 20000ac8 20000ad0 20000ad0     ... ... ... ... 
20000ae0:	20000ad8 20000ad8 20000ae0 20000ae0     ... ... ... ... 
20000af0:	20000ae8 20000ae8 20000af0 20000af0     ... ... ... ... 
20000b00:	20000af8 20000af8 20000b00 20000b00     ... ... ... ... 
20000b10:	20000b08 20000b08 20000b10 20000b10     ... ... ... ... 
20000b20:	20000b18 20000b18 20000b20 20000b20     ... ...  ..  .. 
20000b30:	20000b28 20000b28 20000b30 20000b30     (.. (.. 0.. 0.. 
20000b40:	20000b38 20000b38 20000b40 20000b40     8.. 8.. @.. @.. 
20000b50:	20000b48 20000b48 20000b50 20000b50     H.. H.. P.. P.. 
20000b60:	20000b58 20000b58 20000b60 20000b60     X.. X.. `.. `.. 
20000b70:	20000b68 20000b68 20000b70 20000b70     h.. h.. p.. p.. 
20000b80:	20000b78 20000b78 20000b80 20000b80     x.. x.. ... ... 
20000b90:	20000b88 20000b88 20000b90 20000b90     ... ... ... ... 
20000ba0:	20000b98 20000b98 20000ba0 20000ba0     ... ... ... ... 
20000bb0:	20000ba8 20000ba8 20000bb0 20000bb0     ... ... ... ... 
20000bc0:	20000bb8 20000bb8 20000bc0 20000bc0     ... ... ... ... 
20000bd0:	20000bc8 20000bc8 20000bd0 20000bd0     ... ... ... ... 
20000be0:	20000bd8 20000bd8 20000be0 20000be0     ... ... ... ... 
20000bf0:	20000be8 20000be8 20000bf0 20000bf0     ... ... ... ... 
20000c00:	20000bf8 20000bf8 20000c00 20000c00     ... ... ... ... 
20000c10:	20000c08 20000c08 20000c10 20000c10     ... ... ... ... 
20000c20:	20000c18 20000c18 20000c20 20000c20     ... ...  ..  .. 
20000c30:	20000c28 20000c28 20000c30 20000c30     (.. (.. 0.. 0.. 
20000c40:	20000c38 20000c38 20000c40 20000c40     8.. 8.. @.. @.. 
20000c50:	20000c48 20000c48 20000c50 20000c50     H.. H.. P.. P.. 
20000c60:	20000c58 20000c58 20000c60 20000c60     X.. X.. `.. `.. 
20000c70:	20000c68 20000c68 20000c70 20000c70     h.. h.. p.. p.. 
20000c80:	20000c78 20000c78 20000c80 20000c80     x.. x.. ... ... 
20000c90:	20000c88 20000c88 20000c90 20000c90     ... ... ... ... 
20000ca0:	20000c98 20000c98 20000ca0 20000ca0     ... ... ... ... 
20000cb0:	20000ca8 20000ca8 20000cb0 20000cb0     ... ... ... ... 
20000cc0:	20000cb8 20000cb8 20000cc0 20000cc0     ... ... ... ... 
20000cd0:	20000cc8 20000cc8 20000cd0 20000cd0     ... ... ... ... 
20000ce0:	20000cd8 20000cd8 20000ce0 20000ce0     ... ... ... ... 
20000cf0:	20000ce8 20000ce8 20000cf0 20000cf0     ... ... ... ... 
20000d00:	20000cf8 20000cf8 20000d00 20000d00     ... ... ... ... 

20000d10 <print_mutex>:
	...

20000d18 <__mutex_array_end>:
20000d18:	10005dcd 	.word	0x10005dcd
20000d1c:	10004fcd 	.word	0x10004fcd
20000d20:	100056e1 	.word	0x100056e1
20000d24:	10005d35 	.word	0x10005d35

20000d28 <__frame_dummy_init_array_entry>:
20000d28:	10000339 10000645 10001e29 10008ae1     9...E...).......
